---
triple:          'arm64-apple-darwin'
binary-path:     main
relocations:
  - { offsetInCU: 0x3F, offset: 0x3F, size: 0x8, addend: 0x0, symName: __ZL11init_ram_fs, symObjAddr: 0x209F49, symBinAddr: 0x10006C0C8, symSize: 0x0 }
  - { offsetInCU: 0x6C1, offset: 0x6C1, size: 0x8, addend: 0x0, symName: __ZN4sdsl4util12set_to_valueINS_10int_vectorILh1EEEEEvRT_y, symObjAddr: 0x14508, symBinAddr: 0x100014E4C, symSize: 0x304 }
  - { offsetInCU: 0x7AC, offset: 0x7AC, size: 0x8, addend: 0x0, symName: __ZN4sdsl4util14_set_zero_bitsINS_10int_vectorILh1EEEEEvRT_, symObjAddr: 0x1B4B4, symBinAddr: 0x10001BDF8, symSize: 0x98 }
  - { offsetInCU: 0x80B, offset: 0x80B, size: 0x8, addend: 0x0, symName: __ZN4sdsl4util13_set_one_bitsINS_10int_vectorILh1EEEEEvRT_, symObjAddr: 0x1B54C, symBinAddr: 0x10001BE90, symSize: 0xA0 }
  - { offsetInCU: 0x86A, offset: 0x86A, size: 0x8, addend: 0x0, symName: __ZN4sdsl4util12set_to_valueINS_10int_vectorILh64EEEEEvRT_y, symObjAddr: 0x2B098, symBinAddr: 0x10002B9DC, symSize: 0x304 }
  - { offsetInCU: 0x955, offset: 0x955, size: 0x8, addend: 0x0, symName: __ZN4sdsl4util14_set_zero_bitsINS_10int_vectorILh64EEEEEvRT_, symObjAddr: 0x2B400, symBinAddr: 0x10002BD44, symSize: 0x98 }
  - { offsetInCU: 0x9B4, offset: 0x9B4, size: 0x8, addend: 0x0, symName: __ZN4sdsl4util13_set_one_bitsINS_10int_vectorILh64EEEEEvRT_, symObjAddr: 0x2B498, symBinAddr: 0x10002BDDC, symSize: 0xA0 }
  - { offsetInCU: 0xA13, offset: 0xA13, size: 0x8, addend: 0x0, symName: __ZN4sdsl4util10class_nameINS_15rank_support_v5ILh1ELh1EEEEENSt3__112basic_stringIcNS4_11char_traitsIcEENS4_9allocatorIcEEEERKT_, symObjAddr: 0x2B9F8, symBinAddr: 0x10002C33C, symSize: 0x128 }
  - { offsetInCU: 0xA65, offset: 0xA65, size: 0x8, addend: 0x0, symName: __ZN4sdsl4util10class_nameINS_10int_vectorILh64EEEEENSt3__112basic_stringIcNS4_11char_traitsIcEENS4_9allocatorIcEEEERKT_, symObjAddr: 0x314B0, symBinAddr: 0x100031DF4, symSize: 0x124 }
  - { offsetInCU: 0xAB7, offset: 0xAB7, size: 0x8, addend: 0x0, symName: __ZN4sdsl4util10class_nameIyEENSt3__112basic_stringIcNS2_11char_traitsIcEENS2_9allocatorIcEEEERKT_, symObjAddr: 0x319E0, symBinAddr: 0x100032324, symSize: 0x124 }
  - { offsetInCU: 0xB09, offset: 0xB09, size: 0x8, addend: 0x0, symName: __ZN4sdsl4util10class_nameIhEENSt3__112basic_stringIcNS2_11char_traitsIcEENS2_9allocatorIcEEEERKT_, symObjAddr: 0x31B04, symBinAddr: 0x100032448, symSize: 0x124 }
  - { offsetInCU: 0xB5B, offset: 0xB5B, size: 0x8, addend: 0x0, symName: __ZN4sdsl4util12cnt_one_bitsINS_10int_vectorILh1EEEEENT_9size_typeERKS4_, symObjAddr: 0x34618, symBinAddr: 0x100034F5C, symSize: 0x11C }
  - { offsetInCU: 0xBCD, offset: 0xBCD, size: 0x8, addend: 0x0, symName: __ZN4sdsl4util10class_nameINS_18select_support_mclILh1ELh1EEEEENSt3__112basic_stringIcNS4_11char_traitsIcEENS4_9allocatorIcEEEERKT_, symObjAddr: 0x34CDC, symBinAddr: 0x100035620, symSize: 0x128 }
  - { offsetInCU: 0xC1F, offset: 0xC1F, size: 0x8, addend: 0x0, symName: __ZN4sdsl4util10class_nameIPNS_10int_vectorILh0EEEEENSt3__112basic_stringIcNS5_11char_traitsIcEENS5_9allocatorIcEEEERKT_, symObjAddr: 0x35004, symBinAddr: 0x100035948, symSize: 0x124 }
  - { offsetInCU: 0xC71, offset: 0xC71, size: 0x8, addend: 0x0, symName: __ZN4sdsl4util10class_nameINS_10int_vectorILh0EEEEENSt3__112basic_stringIcNS4_11char_traitsIcEENS4_9allocatorIcEEEERKT_, symObjAddr: 0x35128, symBinAddr: 0x100035A6C, symSize: 0x124 }
  - { offsetInCU: 0xCC3, offset: 0xCC3, size: 0x8, addend: 0x0, symName: __ZN4sdsl4util10class_nameINS_10int_vectorILh1EEEEENSt3__112basic_stringIcNS4_11char_traitsIcEENS4_9allocatorIcEEEERKT_, symObjAddr: 0x35374, symBinAddr: 0x100035CB8, symSize: 0x124 }
  - { offsetInCU: 0xD15, offset: 0xD15, size: 0x8, addend: 0x0, symName: __ZN4sdsl4util12init_supportINS_15rank_support_v5ILh1ELh1EEENS_10int_vectorILh1EEEEEvRT_PKT0_, symObjAddr: 0x3726C, symBinAddr: 0x100037BB0, symSize: 0x80 }
  - { offsetInCU: 0xD6F, offset: 0xD6F, size: 0x8, addend: 0x0, symName: __ZN4sdsl4util12init_supportINS_18select_support_mclILh1ELh1EEENS_10int_vectorILh1EEEEEvRT_PKT0_, symObjAddr: 0x372EC, symBinAddr: 0x100037C30, symSize: 0x80 }
  - { offsetInCU: 0xDC9, offset: 0xDC9, size: 0x8, addend: 0x0, symName: __ZN4sdsl4util12set_to_valueINS_10int_vectorILh0EEEEEvRT_y, symObjAddr: 0x3F288, symBinAddr: 0x10003FBCC, symSize: 0x304 }
  - { offsetInCU: 0xEB4, offset: 0xEB4, size: 0x8, addend: 0x0, symName: __ZN4sdsl4util14_set_zero_bitsINS_10int_vectorILh0EEEEEvRT_, symObjAddr: 0x3F5DC, symBinAddr: 0x10003FF20, symSize: 0x98 }
  - { offsetInCU: 0xF13, offset: 0xF13, size: 0x8, addend: 0x0, symName: __ZN4sdsl4util13_set_one_bitsINS_10int_vectorILh0EEEEEvRT_, symObjAddr: 0x3F674, symBinAddr: 0x10003FFB8, symSize: 0xA0 }
  - { offsetInCU: 0x3331, offset: 0x3331, size: 0x8, addend: 0x0, symName: __ZN4sdsl10k2_tree_ns21build_template_vectorINS_10int_vectorILh1EEEEEvRS3_S4_RT_S6_, symObjAddr: 0x0, symBinAddr: 0x100000944, symSize: 0x40 }
  - { offsetInCU: 0x377B, offset: 0x377B, size: 0x8, addend: 0x0, symName: __ZN4sdsl12write_memberIyEEmRKT_RNSt3__113basic_ostreamIcNS4_11char_traitsIcEEEEPNS_19structure_tree_nodeENS4_12basic_stringIcS7_NS4_9allocatorIcEEEE, symObjAddr: 0x31870, symBinAddr: 0x1000321B4, symSize: 0xB8 }
  - { offsetInCU: 0x37F7, offset: 0x37F7, size: 0x8, addend: 0x0, symName: __ZN4sdsl12write_memberIhEEmRKT_RNSt3__113basic_ostreamIcNS4_11char_traitsIcEEEEPNS_19structure_tree_nodeENS4_12basic_stringIcS7_NS4_9allocatorIcEEEE, symObjAddr: 0x31928, symBinAddr: 0x10003226C, symSize: 0xB8 }
  - { offsetInCU: 0x3873, offset: 0x3873, size: 0x8, addend: 0x0, symName: __ZN4sdsl11read_memberIyEEvRT_RNSt3__113basic_istreamIcNS3_11char_traitsIcEEEE, symObjAddr: 0x31D68, symBinAddr: 0x1000326AC, symSize: 0x30 }
  - { offsetInCU: 0x39B5, offset: 0x39B5, size: 0x8, addend: 0x0, symName: __ZN4sdsl11read_memberIhEEvRT_RNSt3__113basic_istreamIcNS3_11char_traitsIcEEEE, symObjAddr: 0x3586C, symBinAddr: 0x1000361B0, symSize: 0x30 }
  - { offsetInCU: 0x39F4, offset: 0x39F4, size: 0x8, addend: 0x0, symName: __ZN4sdsl41construct_supercartesian_tree_bp_succinctINS_10int_vectorILh0EEEEENS1_ILh1EEERKT_b, symObjAddr: 0x4FED4, symBinAddr: 0x100050818, symSize: 0x478 }
  - { offsetInCU: 0x3CC7, offset: 0x3CC7, size: 0x8, addend: 0x0, symName: _start_select, symObjAddr: 0x209F50, symBinAddr: 0x10006C0D8, symSize: 0x0 }
  - { offsetInCU: 0x43F0, offset: 0x43F0, size: 0x8, addend: 0x0, symName: __ZNSt3__16chronoplB8ue170006INS0_12steady_clockENS0_8durationIxNS_5ratioILl1ELl1000000000EEEEExNS4_ILl1ELl1000EEEEENS0_10time_pointIT_NS_11common_typeIJT0_NS3_IT1_T2_EEEE4typeEEERKNS8_IS9_SB_EERKSE_, symObjAddr: 0x15920, symBinAddr: 0x100016264, symSize: 0x50 }
  - { offsetInCU: 0x4459, offset: 0x4459, size: 0x8, addend: 0x0, symName: __ZNSt3__16chronoplB8ue170006IxNS_5ratioILl1ELl1000000000EEExNS2_ILl1ELl1000EEEEENS_11common_typeIJNS0_8durationIT_T0_EENS6_IT1_T2_EEEE4typeERKS9_RKSC_, symObjAddr: 0x19DF8, symBinAddr: 0x10001A73C, symSize: 0x7C }
  - { offsetInCU: 0x4790, offset: 0x4790, size: 0x8, addend: 0x0, symName: __ZNSt3__16chronomiB8ue170006IxNS_5ratioILl1ELl1000000000EEExS3_EENS_11common_typeIJNS0_8durationIT_T0_EENS5_IT1_T2_EEEE4typeERKS8_RKSB_, symObjAddr: 0x538C0, symBinAddr: 0x100054204, symSize: 0x70 }
  - { offsetInCU: 0x47FD, offset: 0x47FD, size: 0x8, addend: 0x0, symName: __ZNSt3__16chrono13duration_castB8ue170006INS0_8durationIxNS_5ratioILl1ELl1000000EEEEExNS3_ILl1ELl1000000000EEEEENS_9enable_ifIXsr13__is_durationIT_EE5valueES8_E4typeERKNS2_IT0_T1_EE, symObjAddr: 0xF7B8, symBinAddr: 0x1000100FC, symSize: 0x30 }
  - { offsetInCU: 0x4844, offset: 0x4844, size: 0x8, addend: 0x0, symName: __ZNSt3__16chronomiB8ue170006INS0_12steady_clockENS0_8durationIxNS_5ratioILl1ELl1000000000EEEEES6_EENS_11common_typeIJT0_T1_EE4typeERKNS0_10time_pointIT_S8_EERKNSC_ISD_S9_EE, symObjAddr: 0xF7E8, symBinAddr: 0x10001012C, symSize: 0x58 }
  - { offsetInCU: 0x489C, offset: 0x489C, size: 0x8, addend: 0x0, symName: __ZNSt3__16chronoltB8ue170006INS0_12steady_clockENS0_8durationIxNS_5ratioILl1ELl1000000000EEEEES6_EEbRKNS0_10time_pointIT_T0_EERKNS7_IS8_T1_EE, symObjAddr: 0x158CC, symBinAddr: 0x100016210, symSize: 0x54 }
  - { offsetInCU: 0x48F1, offset: 0x48F1, size: 0x8, addend: 0x0, symName: __ZNSt3__16chronoltB8ue170006IxNS_5ratioILl1ELl1000000000EEExS3_EEbRKNS0_8durationIT_T0_EERKNS4_IT1_T2_EE, symObjAddr: 0x19D40, symBinAddr: 0x10001A684, symSize: 0x34 }
  - { offsetInCU: 0x498F, offset: 0x498F, size: 0x8, addend: 0x0, symName: __ZNSt3__16chrono13duration_castB8ue170006INS0_8durationIxNS_5ratioILl1ELl1000000000EEEEExNS3_ILl1ELl1000EEEEENS_9enable_ifIXsr13__is_durationIT_EE5valueES8_E4typeERKNS2_IT0_T1_EE, symObjAddr: 0x19F70, symBinAddr: 0x10001A8B4, symSize: 0x30 }
  - { offsetInCU: 0x49D6, offset: 0x49D6, size: 0x8, addend: 0x0, symName: __ZNSt3__16chrono13duration_castB8ue170006INS0_8durationIdNS_5ratioILl1ELl1EEEEExNS3_ILl1ELl1000000EEEEENS_9enable_ifIXsr13__is_durationIT_EE5valueES8_E4typeERKNS2_IT0_T1_EE, symObjAddr: 0x38F38, symBinAddr: 0x10003987C, symSize: 0x30 }
  - { offsetInCU: 0xE5F1, offset: 0xE5F1, size: 0x8, addend: 0x0, symName: __ZNSt3__1L19piecewise_constructE, symObjAddr: 0x559E9, symBinAddr: 0x100061D09, symSize: 0x0 }
  - { offsetInCU: 0x17233, offset: 0x17233, size: 0x8, addend: 0x0, symName: __ZNSt3__17advanceB8ue170006IPyllvEEvRT_T0_, symObjAddr: 0x1173C, symBinAddr: 0x100012080, symSize: 0x38 }
  - { offsetInCU: 0x1DFC3, offset: 0x1DFC3, size: 0x8, addend: 0x0, symName: __ZNSt3__111__introsortINS_17_ClassicAlgPolicyERPFbRKNS_4pairIyyEES5_EPS3_Lb0EEEvT1_SA_T0_NS_15iterator_traitsISA_E15difference_typeEb, symObjAddr: 0x20110, symBinAddr: 0x100020A54, symSize: 0x43C }
  - { offsetInCU: 0x1E0EE, offset: 0x1E0EE, size: 0x8, addend: 0x0, symName: __ZNSt3__126__insertion_sort_unguardedB8ue170006INS_17_ClassicAlgPolicyERPFbRKNS_4pairIyyEES5_EPS3_EEvT1_SA_T0_, symObjAddr: 0x207D8, symBinAddr: 0x10002111C, symSize: 0x128 }
  - { offsetInCU: 0x1E1DE, offset: 0x1E1DE, size: 0x8, addend: 0x0, symName: __ZNSt3__111__sift_downB8ue170006INS_17_ClassicAlgPolicyERPFbRKNS_4pairIyyEES5_EPS3_EEvT1_OT0_NS_15iterator_traitsISA_E15difference_typeESA_, symObjAddr: 0x21A98, symBinAddr: 0x1000223DC, symSize: 0x21C }
  - { offsetInCU: 0x1E28B, offset: 0x1E28B, size: 0x8, addend: 0x0, symName: __ZNSt3__117__floyd_sift_downB8ue170006INS_17_ClassicAlgPolicyERPFbRKNS_4pairIyyEES5_EPS3_EET1_SA_OT0_NS_15iterator_traitsISA_E15difference_typeE, symObjAddr: 0x21E50, symBinAddr: 0x100022794, symSize: 0x104 }
  - { offsetInCU: 0x1E323, offset: 0x1E323, size: 0x8, addend: 0x0, symName: __ZNSt3__131__partition_with_equals_on_leftB8ue170006INS_17_ClassicAlgPolicyEPNS_4pairIyyEERPFbRKS3_S6_EEET0_SA_SA_T1_, symObjAddr: 0x20B20, symBinAddr: 0x100021464, symSize: 0x224 }
  - { offsetInCU: 0x1E3DE, offset: 0x1E3DE, size: 0x8, addend: 0x0, symName: __ZNSt3__118__bitset_partitionB8ue170006INS_17_ClassicAlgPolicyEPNS_4pairIyyEERPFbRKS3_S6_EEENS2_IT0_bEESA_SA_T1_, symObjAddr: 0x20D44, symBinAddr: 0x100021688, symSize: 0x33C }
  - { offsetInCU: 0x1E4DA, offset: 0x1E4DA, size: 0x8, addend: 0x0, symName: __ZNSt3__124__swap_bitmap_pos_withinB8ue170006INS_17_ClassicAlgPolicyEPNS_4pairIyyEEEEvRT0_S6_RyS7_, symObjAddr: 0x225B8, symBinAddr: 0x100022EFC, symSize: 0x1E0 }
  - { offsetInCU: 0x1E5A7, offset: 0x1E5A7, size: 0x8, addend: 0x0, symName: __ZNSt3__132__partition_with_equals_on_rightB8ue170006INS_17_ClassicAlgPolicyEPNS_4pairIyyEERPFbRKS3_S6_EEENS2_IT0_bEESA_SA_T1_, symObjAddr: 0x21080, symBinAddr: 0x1000219C4, symSize: 0x238 }
  - { offsetInCU: 0x1E671, offset: 0x1E671, size: 0x8, addend: 0x0, symName: __ZNSt3__127__insertion_sort_incompleteB8ue170006INS_17_ClassicAlgPolicyERPFbRKNS_4pairIyyEES5_EPS3_EEbT1_SA_T0_, symObjAddr: 0x212B8, symBinAddr: 0x100021BFC, symSize: 0x310 }
  - { offsetInCU: 0x2084D, offset: 0x2084D, size: 0x8, addend: 0x0, symName: __ZNSt3__16copy_nB8ue170006IPKcmPcEENS_9enable_ifIXsr37__has_random_access_iterator_categoryIT_EE5valueET1_E4typeES5_T0_S6_, symObjAddr: 0x2CAF4, symBinAddr: 0x10002D438, symSize: 0x44 }
  - { offsetInCU: 0x20B91, offset: 0x20B91, size: 0x8, addend: 0x0, symName: __ZNSt3__17advanceB8ue170006IPPNS_6vectorIhNS_9allocatorIhEEEEllvEEvRT_T0_, symObjAddr: 0x382FC, symBinAddr: 0x100038C40, symSize: 0x38 }
  - { offsetInCU: 0x20CD5, offset: 0x20CD5, size: 0x8, addend: 0x0, symName: __ZNSt3__17advanceB8ue170006IPKyllvEEvRT_T0_, symObjAddr: 0x396A8, symBinAddr: 0x100039FEC, symSize: 0x38 }
  - { offsetInCU: 0x2247E, offset: 0x2247E, size: 0x8, addend: 0x0, symName: __ZNSt3__17advanceB8ue170006IPKP16quadtree_formulallvEEvRT_T0_, symObjAddr: 0x3B4E0, symBinAddr: 0x10003BE24, symSize: 0x38 }
  - { offsetInCU: 0x2271B, offset: 0x2271B, size: 0x8, addend: 0x0, symName: __ZNSt3__17advanceB8ue170006IPP16quadtree_formulallvEEvRT_T0_, symObjAddr: 0x3D978, symBinAddr: 0x10003E2BC, symSize: 0x38 }
  - { offsetInCU: 0x23F61, offset: 0x23F61, size: 0x8, addend: 0x0, symName: __ZNSt3__124__put_character_sequenceB8ue170006IcNS_11char_traitsIcEEEERNS_13basic_ostreamIT_T0_EES7_PKS4_m, symObjAddr: 0x3E778, symBinAddr: 0x10003F0BC, symSize: 0x1EC }
  - { offsetInCU: 0x27739, offset: 0x27739, size: 0x8, addend: 0x0, symName: __ZNSt3__117__floyd_sift_downB8ue170006INS_17_ClassicAlgPolicyERNS_4lessI10qdagWeightEENS_11__wrap_iterIPS3_EEEET1_S9_OT0_NS_15iterator_traitsIS9_E15difference_typeE, symObjAddr: 0x41974, symBinAddr: 0x1000422B8, symSize: 0x154 }
  - { offsetInCU: 0x293BF, offset: 0x293BF, size: 0x8, addend: 0x0, symName: __ZNSt3__117__floyd_sift_downB8ue170006INS_17_ClassicAlgPolicyERNS_4lessI13orderJoinQdagEENS_11__wrap_iterIPS3_EEEET1_S9_OT0_NS_15iterator_traitsIS9_E15difference_typeE, symObjAddr: 0x46920, symBinAddr: 0x100047264, symSize: 0x154 }
  - { offsetInCU: 0x29489, offset: 0x29489, size: 0x8, addend: 0x0, symName: __ZNSt3__117__floyd_sift_downB8ue170006INS_17_ClassicAlgPolicyERNS_4lessI11qdagResultsEENS_11__wrap_iterIPS3_EEEET1_S9_OT0_NS_15iterator_traitsIS9_E15difference_typeE, symObjAddr: 0x4880C, symBinAddr: 0x100049150, symSize: 0x14C }
  - { offsetInCU: 0x2FC54, offset: 0x2FC54, size: 0x8, addend: 0x0, symName: __ZNSt3__1neB8ue170006ERKNS_14__map_iteratorINS_15__tree_iteratorINS_12__value_typeIyhEEPNS_11__tree_nodeIS3_PvEElEEEESB_, symObjAddr: 0x2CF0, symBinAddr: 0x100003634, symSize: 0x30 }
  - { offsetInCU: 0x2FC91, offset: 0x2FC91, size: 0x8, addend: 0x0, symName: __ZNSt3__1lsB8ue170006INS_11char_traitsIcEEEERNS_13basic_ostreamIcT_EES6_PKc, symObjAddr: 0x3390, symBinAddr: 0x100003CD4, symSize: 0x48 }
  - { offsetInCU: 0x2FCD7, offset: 0x2FCD7, size: 0x8, addend: 0x0, symName: __ZNSt3__14endlB8ue170006IcNS_11char_traitsIcEEEERNS_13basic_ostreamIT_T0_EES7_, symObjAddr: 0x3404, symBinAddr: 0x100003D48, symSize: 0x58 }
  - { offsetInCU: 0x30C62, offset: 0x30C62, size: 0x8, addend: 0x0, symName: __ZNSt3__17getlineB8ue170006IcNS_11char_traitsIcEENS_9allocatorIcEEEERNS_13basic_istreamIT_T0_EES9_RNS_12basic_stringIS6_S7_T1_EE, symObjAddr: 0xF4C4, symBinAddr: 0x10000FE08, symSize: 0x5C }
  - { offsetInCU: 0x30CD6, offset: 0x30CD6, size: 0x8, addend: 0x0, symName: __ZNSt3__18distanceB8ue170006IPyEENS_15iterator_traitsIT_E15difference_typeES3_S3_, symObjAddr: 0x112EC, symBinAddr: 0x100011C30, symSize: 0x2C }
  - { offsetInCU: 0x30D19, offset: 0x30D19, size: 0x8, addend: 0x0, symName: __ZNSt3__14nextB8ue170006IPyEENS_9enable_ifIXsr29__has_input_iterator_categoryIT_EE5valueES3_E4typeES3_NS_15iterator_traitsIS3_E15difference_typeE, symObjAddr: 0x11358, symBinAddr: 0x100011C9C, symSize: 0x34 }
  - { offsetInCU: 0x30D5C, offset: 0x30D5C, size: 0x8, addend: 0x0, symName: __ZNSt3__14copyB8ue170006IPyS1_EET0_T_S3_S2_, symObjAddr: 0x1138C, symBinAddr: 0x100011CD0, symSize: 0x40 }
  - { offsetInCU: 0x30DB6, offset: 0x30DB6, size: 0x8, addend: 0x0, symName: __ZNSt3__16__copyB8ue170006INS_17_ClassicAlgPolicyEPyS2_S2_EENS_4pairIT0_T2_EES4_T1_S5_, symObjAddr: 0x11458, symBinAddr: 0x100011D9C, symSize: 0x44 }
  - { offsetInCU: 0x30E23, offset: 0x30E23, size: 0x8, addend: 0x0, symName: __ZNSt3__121__convert_to_integralB8ue170006El, symObjAddr: 0x11774, symBinAddr: 0x1000120B8, symSize: 0x14 }
  - { offsetInCU: 0x30E50, offset: 0x30E50, size: 0x8, addend: 0x0, symName: __ZNSt3__19__advanceB8ue170006IPyEEvRT_NS_15iterator_traitsIS2_E15difference_typeENS_26random_access_iterator_tagE, symObjAddr: 0x11788, symBinAddr: 0x1000120CC, symSize: 0x28 }
  - { offsetInCU: 0x30E9A, offset: 0x30E9A, size: 0x8, addend: 0x0, symName: __ZNSt3__130__uninitialized_allocator_copyB8ue170006INS_9allocatorIyEEPyS3_S3_EET2_RT_T0_T1_S4_, symObjAddr: 0x117EC, symBinAddr: 0x100012130, symSize: 0x80 }
  - { offsetInCU: 0x30F37, offset: 0x30F37, size: 0x8, addend: 0x0, symName: __ZNSt3__114__unwrap_rangeB8ue170006IPyS1_EENS_4pairIT0_S3_EET_S5_, symObjAddr: 0x11904, symBinAddr: 0x100012248, symSize: 0x60 }
  - { offsetInCU: 0x30F83, offset: 0x30F83, size: 0x8, addend: 0x0, symName: __ZNSt3__135__uninitialized_allocator_copy_implB8ue170006INS_9allocatorIyEEyyyLPv0EEEPT2_RT_PT0_S9_S5_, symObjAddr: 0x11964, symBinAddr: 0x1000122A8, symSize: 0x38 }
  - { offsetInCU: 0x31005, offset: 0x31005, size: 0x8, addend: 0x0, symName: __ZNSt3__113__unwrap_iterB8ue170006IPyNS_18__unwrap_iter_implIS1_Lb1EEELi0EEEDTclsrT0_8__unwrapclsr3stdE7declvalIT_EEEES5_, symObjAddr: 0x1199C, symBinAddr: 0x1000122E0, symSize: 0x24 }
  - { offsetInCU: 0x31049, offset: 0x31049, size: 0x8, addend: 0x0, symName: __ZNSt3__113__rewrap_iterB8ue170006IPyS1_NS_18__unwrap_iter_implIS1_Lb1EEEEET_S4_T0_, symObjAddr: 0x119C0, symBinAddr: 0x100012304, symSize: 0x3C }
  - { offsetInCU: 0x3109E, offset: 0x3109E, size: 0x8, addend: 0x0, symName: __ZNSt3__19make_pairB8ue170006IPyS1_EENS_4pairINS_18__unwrap_ref_decayIT_E4typeENS3_IT0_E4typeEEEOS4_OS7_, symObjAddr: 0x119FC, symBinAddr: 0x100012340, symSize: 0x38 }
  - { offsetInCU: 0x31244, offset: 0x31244, size: 0x8, addend: 0x0, symName: __ZNSt3__112__to_addressB8ue170006IyEEPT_S2_, symObjAddr: 0x11AC8, symBinAddr: 0x10001240C, symSize: 0x14 }
  - { offsetInCU: 0x31279, offset: 0x31279, size: 0x8, addend: 0x0, symName: __ZNSt3__123__dispatch_copy_or_moveB8ue170006INS_17_ClassicAlgPolicyENS_11__copy_loopIS1_EENS_14__copy_trivialEPyS5_S5_EENS_4pairIT2_T4_EES7_T3_S8_, symObjAddr: 0x11B84, symBinAddr: 0x1000124C8, symSize: 0x44 }
  - { offsetInCU: 0x312F7, offset: 0x312F7, size: 0x8, addend: 0x0, symName: __ZNSt3__121__unwrap_and_dispatchB8ue170006INS_10__overloadINS_11__copy_loopINS_17_ClassicAlgPolicyEEENS_14__copy_trivialEEEPyS7_S7_Li0EEENS_4pairIT0_T2_EES9_T1_SA_, symObjAddr: 0x11BC8, symBinAddr: 0x10001250C, symSize: 0xB4 }
  - { offsetInCU: 0x314F7, offset: 0x314F7, size: 0x8, addend: 0x0, symName: __ZNSt3__114__rewrap_rangeB8ue170006IPyS1_EET_S2_T0_, symObjAddr: 0x11CC4, symBinAddr: 0x100012608, symSize: 0x2C }
  - { offsetInCU: 0x31543, offset: 0x31543, size: 0x8, addend: 0x0, symName: __ZNSt3__119__copy_trivial_implB8ue170006IyyEENS_4pairIPT_PT0_EES3_S3_S5_, symObjAddr: 0x11CF0, symBinAddr: 0x100012634, symSize: 0x80 }
  - { offsetInCU: 0x315AB, offset: 0x315AB, size: 0x8, addend: 0x0, symName: __ZNSt3__119__constexpr_memmoveB8ue170006IyyLi0EEEPT_S2_PT0_NS_15__element_countE, symObjAddr: 0x11D70, symBinAddr: 0x1000126B4, symSize: 0x64 }
  - { offsetInCU: 0x31619, offset: 0x31619, size: 0x8, addend: 0x0, symName: __ZNSt3__19make_pairB8ue170006IRPyS1_EENS_4pairINS_18__unwrap_ref_decayIT_E4typeENS4_IT0_E4typeEEEOS5_OS8_, symObjAddr: 0x11DD4, symBinAddr: 0x100012718, symSize: 0x38 }
  - { offsetInCU: 0x31668, offset: 0x31668, size: 0x8, addend: 0x0, symName: __ZNSt3__119__libcpp_deallocateB8ue170006EPvmm, symObjAddr: 0x12198, symBinAddr: 0x100012ADC, symSize: 0x30 }
  - { offsetInCU: 0x316B0, offset: 0x316B0, size: 0x8, addend: 0x0, symName: __ZNSt3__127__do_deallocate_handle_sizeB8ue170006IJEEEvPvmDpT_, symObjAddr: 0x121C8, symBinAddr: 0x100012B0C, symSize: 0x28 }
  - { offsetInCU: 0x316EE, offset: 0x316EE, size: 0x8, addend: 0x0, symName: __ZNSt3__124__libcpp_operator_deleteB8ue170006IJPvEEEvDpT_, symObjAddr: 0x121F0, symBinAddr: 0x100012B34, symSize: 0x24 }
  - { offsetInCU: 0x31723, offset: 0x31723, size: 0x8, addend: 0x0, symName: __ZNSt3__119__allocate_at_leastB8ue170006INS_9allocatorIyEEEENS_19__allocation_resultINS_16allocator_traitsIT_E7pointerEEERS5_m, symObjAddr: 0x122C8, symBinAddr: 0x100012C0C, symSize: 0x40 }
  - { offsetInCU: 0x31766, offset: 0x31766, size: 0x8, addend: 0x0, symName: __ZNSt3__13minB8ue170006ImEERKT_S3_S3_, symObjAddr: 0x123B4, symBinAddr: 0x100012CF8, symSize: 0x2C }
  - { offsetInCU: 0x319AA, offset: 0x319AA, size: 0x8, addend: 0x0, symName: __ZNSt3__13minB8ue170006ImNS_6__lessIvvEEEERKT_S5_S5_T0_, symObjAddr: 0x12440, symBinAddr: 0x100012D84, symSize: 0x54 }
  - { offsetInCU: 0x31AAC, offset: 0x31AAC, size: 0x8, addend: 0x0, symName: __ZNSt3__120__throw_length_errorB8ue170006EPKc, symObjAddr: 0x1251C, symBinAddr: 0x100012E60, symSize: 0x64 }
  - { offsetInCU: 0x31AD6, offset: 0x31AD6, size: 0x8, addend: 0x0, symName: __ZNSt3__117__libcpp_allocateB8ue170006Emm, symObjAddr: 0x1268C, symBinAddr: 0x100012FD0, symSize: 0x28 }
  - { offsetInCU: 0x31B13, offset: 0x31B13, size: 0x8, addend: 0x0, symName: __ZNSt3__121__libcpp_operator_newB8ue170006IJmEEEPvDpT_, symObjAddr: 0x126B4, symBinAddr: 0x100012FF8, symSize: 0x24 }
  - { offsetInCU: 0x31B4C, offset: 0x31B4C, size: 0x8, addend: 0x0, symName: __ZNSt3__13maxB8ue170006ImEERKT_S3_S3_, symObjAddr: 0x126D8, symBinAddr: 0x10001301C, symSize: 0x2C }
  - { offsetInCU: 0x31B8F, offset: 0x31B8F, size: 0x8, addend: 0x0, symName: __ZNSt3__13maxB8ue170006ImNS_6__lessIvvEEEERKT_S5_S5_T0_, symObjAddr: 0x12704, symBinAddr: 0x100013048, symSize: 0x54 }
  - { offsetInCU: 0x31BEA, offset: 0x31BEA, size: 0x8, addend: 0x0, symName: __ZNSt3__110__distanceB8ue170006IPyEENS_15iterator_traitsIT_E15difference_typeES3_S3_NS_26random_access_iterator_tagE, symObjAddr: 0x12758, symBinAddr: 0x10001309C, symSize: 0x28 }
  - { offsetInCU: 0x31C39, offset: 0x31C39, size: 0x8, addend: 0x0, symName: __ZNSt3__112__to_addressB8ue170006IPNS_6vectorIhNS_9allocatorIhEEEEEEPT_S7_, symObjAddr: 0x12B88, symBinAddr: 0x1000134CC, symSize: 0x14 }
  - { offsetInCU: 0x31C6E, offset: 0x31C6E, size: 0x8, addend: 0x0, symName: __ZNSt3__142__uninitialized_allocator_move_if_noexceptB8ue170006INS_9allocatorIyEENS_16reverse_iteratorIPyEES5_yvEET1_RT_T0_S9_S6_, symObjAddr: 0x137F8, symBinAddr: 0x10001413C, symSize: 0x78 }
  - { offsetInCU: 0x31CED, offset: 0x31CED, size: 0x8, addend: 0x0, symName: __ZNSt3__14swapB8ue170006IPyEENS_9enable_ifIXaasr21is_move_constructibleIT_EE5valuesr18is_move_assignableIS3_EE5valueEvE4typeERS3_S6_, symObjAddr: 0x138BC, symBinAddr: 0x100014200, symSize: 0x3C }
  - { offsetInCU: 0x31D3E, offset: 0x31D3E, size: 0x8, addend: 0x0, symName: __ZNSt3__14moveB8ue170006INS_16reverse_iteratorIPyEES3_EET0_T_S5_S4_, symObjAddr: 0x138F8, symBinAddr: 0x10001423C, symSize: 0x78 }
  - { offsetInCU: 0x31D98, offset: 0x31D98, size: 0x8, addend: 0x0, symName: __ZNSt3__16__moveB8ue170006INS_17_ClassicAlgPolicyENS_16reverse_iteratorIPyEES4_S4_EENS_4pairIT0_T2_EES6_T1_S7_, symObjAddr: 0x13970, symBinAddr: 0x1000142B4, symSize: 0x64 }
  - { offsetInCU: 0x31E04, offset: 0x31E04, size: 0x8, addend: 0x0, symName: __ZNSt3__123__dispatch_copy_or_moveB8ue170006INS_17_ClassicAlgPolicyENS_11__move_loopIS1_EENS_14__move_trivialENS_16reverse_iteratorIPyEES7_S7_EENS_4pairIT2_T4_EES9_T3_SA_, symObjAddr: 0x139D4, symBinAddr: 0x100014318, symSize: 0x64 }
  - { offsetInCU: 0x31E82, offset: 0x31E82, size: 0x8, addend: 0x0, symName: __ZNSt3__121__unwrap_and_dispatchB8ue170006INS_10__overloadINS_11__move_loopINS_17_ClassicAlgPolicyEEENS_14__move_trivialEEENS_16reverse_iteratorIPyEES9_S9_Li0EEENS_4pairIT0_T2_EESB_T1_SC_, symObjAddr: 0x13A38, symBinAddr: 0x10001437C, symSize: 0x12C }
  - { offsetInCU: 0x31F12, offset: 0x31F12, size: 0x8, addend: 0x0, symName: __ZNSt3__114__unwrap_rangeB8ue170006INS_16reverse_iteratorIPyEES3_EENS_4pairIT0_S5_EET_S7_, symObjAddr: 0x13B64, symBinAddr: 0x1000144A8, symSize: 0x84 }
  - { offsetInCU: 0x32207, offset: 0x32207, size: 0x8, addend: 0x0, symName: __ZNSt3__113__unwrap_iterB8ue170006INS_16reverse_iteratorIPyEENS_18__unwrap_iter_implIS3_Lb0EEELi0EEEDTclsrT0_8__unwrapclsr3stdE7declvalIT_EEEES7_, symObjAddr: 0x13C88, symBinAddr: 0x1000145CC, symSize: 0x44 }
  - { offsetInCU: 0x3224B, offset: 0x3224B, size: 0x8, addend: 0x0, symName: __ZNSt3__19make_pairB8ue170006INS_16reverse_iteratorIPyEES3_EENS_4pairINS_18__unwrap_ref_decayIT_E4typeENS5_IT0_E4typeEEEOS6_OS9_, symObjAddr: 0x13CCC, symBinAddr: 0x100014610, symSize: 0x38 }
  - { offsetInCU: 0x3229A, offset: 0x3229A, size: 0x8, addend: 0x0, symName: __ZNSt3__114__rewrap_rangeB8ue170006INS_16reverse_iteratorIPyEES3_EET_S4_T0_, symObjAddr: 0x13D04, symBinAddr: 0x100014648, symSize: 0x5C }
  - { offsetInCU: 0x322E6, offset: 0x322E6, size: 0x8, addend: 0x0, symName: __ZNSt3__113__rewrap_iterB8ue170006INS_16reverse_iteratorIPyEES3_NS_18__unwrap_iter_implIS3_Lb0EEEEET_S6_T0_, symObjAddr: 0x13D60, symBinAddr: 0x1000146A4, symSize: 0x74 }
  - { offsetInCU: 0x3233B, offset: 0x3233B, size: 0x8, addend: 0x0, symName: __ZNSt3__1neB8ue170006IPyS1_EEbRKNS_16reverse_iteratorIT_EERKNS2_IT0_EE, symObjAddr: 0x13DD4, symBinAddr: 0x100014718, symSize: 0x48 }
  - { offsetInCU: 0x326D2, offset: 0x326D2, size: 0x8, addend: 0x0, symName: __ZNSt3__1neB8ue170006IPyEEbRKNS_11__wrap_iterIT_EES6_, symObjAddr: 0x14200, symBinAddr: 0x100014B44, symSize: 0x34 }
  - { offsetInCU: 0x3287D, offset: 0x3287D, size: 0x8, addend: 0x0, symName: __ZNSt3__112__to_addressB8ue170006IN4sdsl14memory_monitor8mm_eventEEEPT_S5_, symObjAddr: 0x167D4, symBinAddr: 0x100017118, symSize: 0x14 }
  - { offsetInCU: 0x328B3, offset: 0x328B3, size: 0x8, addend: 0x0, symName: __ZNSt3__118__cxx_atomic_storeB8ue170006IbEEvPNS_22__cxx_atomic_base_implIT_EES2_NS_12memory_orderE, symObjAddr: 0x168D4, symBinAddr: 0x100017218, symSize: 0x90 }
  - { offsetInCU: 0x32904, offset: 0x32904, size: 0x8, addend: 0x0, symName: __ZNSt3__1neB8ue170006ERKNS_16__deque_iteratorIN4sdsl14memory_monitor8mm_eventEPS3_RS3_PS4_lLl85EEES9_, symObjAddr: 0x16F08, symBinAddr: 0x10001784C, symSize: 0x34 }
  - { offsetInCU: 0x32942, offset: 0x32942, size: 0x8, addend: 0x0, symName: __ZNSt3__1eqB8ue170006ERKNS_16__deque_iteratorIN4sdsl14memory_monitor8mm_eventEPS3_RS3_PS4_lLl85EEES9_, symObjAddr: 0x170EC, symBinAddr: 0x100017A30, symSize: 0x30 }
  - { offsetInCU: 0x32980, offset: 0x32980, size: 0x8, addend: 0x0, symName: __ZNSt3__112__to_addressB8ue170006IN4sdsl14memory_monitor8mm_allocEEEPT_S5_, symObjAddr: 0x17530, symBinAddr: 0x100017E74, symSize: 0x14 }
  - { offsetInCU: 0x329B6, offset: 0x329B6, size: 0x8, addend: 0x0, symName: __ZNSt3__112__to_addressB8ue170006IPN4sdsl14memory_monitor8mm_eventEEEPT_S6_, symObjAddr: 0x17A90, symBinAddr: 0x1000183D4, symSize: 0x14 }
  - { offsetInCU: 0x329EB, offset: 0x329EB, size: 0x8, addend: 0x0, symName: __ZNSt3__119__allocate_at_leastB8ue170006INS_9allocatorIN4sdsl14memory_monitor8mm_eventEEEEENS_19__allocation_resultINS_16allocator_traitsIT_E7pointerEEERS8_m, symObjAddr: 0x18C18, symBinAddr: 0x10001955C, symSize: 0x40 }
  - { offsetInCU: 0x32A2E, offset: 0x32A2E, size: 0x8, addend: 0x0, symName: __ZNSt3__142__uninitialized_allocator_move_if_noexceptB8ue170006INS_9allocatorIN4sdsl14memory_monitor8mm_eventEEENS_16reverse_iteratorIPS4_EES8_S8_EET2_RT_T0_T1_S9_, symObjAddr: 0x18DD0, symBinAddr: 0x100019714, symSize: 0x12C }
  - { offsetInCU: 0x32ACF, offset: 0x32ACF, size: 0x8, addend: 0x0, symName: __ZNSt3__14swapB8ue170006IPN4sdsl14memory_monitor8mm_eventEEENS_9enable_ifIXaasr21is_move_constructibleIT_EE5valuesr18is_move_assignableIS6_EE5valueEvE4typeERS6_S9_, symObjAddr: 0x18F48, symBinAddr: 0x10001988C, symSize: 0x3C }
  - { offsetInCU: 0x32B20, offset: 0x32B20, size: 0x8, addend: 0x0, symName: __ZNSt3__122__make_exception_guardB8ue170006INS_29_AllocatorDestroyRangeReverseINS_9allocatorIN4sdsl14memory_monitor8mm_eventEEENS_16reverse_iteratorIPS5_EEEEEENS_28__exception_guard_exceptionsIT_EESC_, symObjAddr: 0x1904C, symBinAddr: 0x100019990, symSize: 0x4C }
  - { offsetInCU: 0x32B56, offset: 0x32B56, size: 0x8, addend: 0x0, symName: __ZNSt3__1neB8ue170006IPN4sdsl14memory_monitor8mm_eventES4_EEbRKNS_16reverse_iteratorIT_EERKNS5_IT0_EE, symObjAddr: 0x190DC, symBinAddr: 0x100019A20, symSize: 0x48 }
  - { offsetInCU: 0x32BA2, offset: 0x32BA2, size: 0x8, addend: 0x0, symName: __ZNSt3__112__to_addressB8ue170006INS_16reverse_iteratorIPN4sdsl14memory_monitor8mm_eventEEEvEEu7__decayIDTclsr19__to_address_helperIT_EE6__callclsr3stdE7declvalIRKS7_EEEEES9_, symObjAddr: 0x19124, symBinAddr: 0x100019A68, symSize: 0x24 }
  - { offsetInCU: 0x32C01, offset: 0x32C01, size: 0x8, addend: 0x0, symName: __ZNSt3__119__allocator_destroyB8ue170006INS_9allocatorIN4sdsl14memory_monitor8mm_eventEEENS_16reverse_iteratorINS6_IPS4_EEEES9_EEvRT_T0_T1_, symObjAddr: 0x193D4, symBinAddr: 0x100019D18, symSize: 0x70 }
  - { offsetInCU: 0x32C66, offset: 0x32C66, size: 0x8, addend: 0x0, symName: __ZNSt3__1neB8ue170006INS_16reverse_iteratorIPN4sdsl14memory_monitor8mm_eventEEES6_EEbRKNS1_IT_EERKNS1_IT0_EE, symObjAddr: 0x19480, symBinAddr: 0x100019DC4, symSize: 0x60 }
  - { offsetInCU: 0x32CB2, offset: 0x32CB2, size: 0x8, addend: 0x0, symName: __ZNSt3__112__to_addressB8ue170006INS_16reverse_iteratorINS1_IPN4sdsl14memory_monitor8mm_eventEEEEEvEEu7__decayIDTclsr19__to_address_helperIT_EE6__callclsr3stdE7declvalIRKS8_EEEEESA_, symObjAddr: 0x194E0, symBinAddr: 0x100019E24, symSize: 0x24 }
  - { offsetInCU: 0x32D12, offset: 0x32D12, size: 0x8, addend: 0x0, symName: __ZNSt3__121__cxx_atomic_exchangeB8ue170006IbEET_PNS_22__cxx_atomic_base_implIS1_EES1_NS_12memory_orderE, symObjAddr: 0x19C58, symBinAddr: 0x10001A59C, symSize: 0xD4 }
  - { offsetInCU: 0x32D67, offset: 0x32D67, size: 0x8, addend: 0x0, symName: __ZNSt3__119__allocate_at_leastB8ue170006INS_9allocatorIN4sdsl14memory_monitor8mm_allocEEEEENS_19__allocation_resultINS_16allocator_traitsIT_E7pointerEEERS8_m, symObjAddr: 0x1A848, symBinAddr: 0x10001B18C, symSize: 0x40 }
  - { offsetInCU: 0x32DAA, offset: 0x32DAA, size: 0x8, addend: 0x0, symName: __ZNSt3__142__uninitialized_allocator_move_if_noexceptB8ue170006INS_9allocatorIN4sdsl14memory_monitor8mm_allocEEENS_16reverse_iteratorIPS4_EES8_S4_vEET1_RT_T0_SC_S9_, symObjAddr: 0x1A9FC, symBinAddr: 0x10001B340, symSize: 0x78 }
  - { offsetInCU: 0x32E29, offset: 0x32E29, size: 0x8, addend: 0x0, symName: __ZNSt3__14swapB8ue170006IPN4sdsl14memory_monitor8mm_allocEEENS_9enable_ifIXaasr21is_move_constructibleIT_EE5valuesr18is_move_assignableIS6_EE5valueEvE4typeERS6_S9_, symObjAddr: 0x1AAC0, symBinAddr: 0x10001B404, symSize: 0x3C }
  - { offsetInCU: 0x32E7A, offset: 0x32E7A, size: 0x8, addend: 0x0, symName: __ZNSt3__14moveB8ue170006INS_16reverse_iteratorIPN4sdsl14memory_monitor8mm_allocEEES6_EET0_T_S8_S7_, symObjAddr: 0x1ABA8, symBinAddr: 0x10001B4EC, symSize: 0x78 }
  - { offsetInCU: 0x32ED4, offset: 0x32ED4, size: 0x8, addend: 0x0, symName: __ZNSt3__16__moveB8ue170006INS_17_ClassicAlgPolicyENS_16reverse_iteratorIPN4sdsl14memory_monitor8mm_allocEEES7_S7_EENS_4pairIT0_T2_EES9_T1_SA_, symObjAddr: 0x1AC20, symBinAddr: 0x10001B564, symSize: 0x64 }
  - { offsetInCU: 0x32F40, offset: 0x32F40, size: 0x8, addend: 0x0, symName: __ZNSt3__123__dispatch_copy_or_moveB8ue170006INS_17_ClassicAlgPolicyENS_11__move_loopIS1_EENS_14__move_trivialENS_16reverse_iteratorIPN4sdsl14memory_monitor8mm_allocEEESA_SA_EENS_4pairIT2_T4_EESC_T3_SD_, symObjAddr: 0x1AC84, symBinAddr: 0x10001B5C8, symSize: 0x64 }
  - { offsetInCU: 0x32FBE, offset: 0x32FBE, size: 0x8, addend: 0x0, symName: __ZNSt3__121__unwrap_and_dispatchB8ue170006INS_10__overloadINS_11__move_loopINS_17_ClassicAlgPolicyEEENS_14__move_trivialEEENS_16reverse_iteratorIPN4sdsl14memory_monitor8mm_allocEEESC_SC_Li0EEENS_4pairIT0_T2_EESE_T1_SF_, symObjAddr: 0x1ACE8, symBinAddr: 0x10001B62C, symSize: 0x12C }
  - { offsetInCU: 0x3304E, offset: 0x3304E, size: 0x8, addend: 0x0, symName: __ZNSt3__114__unwrap_rangeB8ue170006INS_16reverse_iteratorIPN4sdsl14memory_monitor8mm_allocEEES6_EENS_4pairIT0_S8_EET_SA_, symObjAddr: 0x1AE14, symBinAddr: 0x10001B758, symSize: 0x84 }
  - { offsetInCU: 0x3316E, offset: 0x3316E, size: 0x8, addend: 0x0, symName: __ZNSt3__113__unwrap_iterB8ue170006INS_16reverse_iteratorIPN4sdsl14memory_monitor8mm_allocEEENS_18__unwrap_iter_implIS6_Lb0EEELi0EEEDTclsrT0_8__unwrapclsr3stdE7declvalIT_EEEESA_, symObjAddr: 0x1AF38, symBinAddr: 0x10001B87C, symSize: 0x44 }
  - { offsetInCU: 0x331B2, offset: 0x331B2, size: 0x8, addend: 0x0, symName: __ZNSt3__19make_pairB8ue170006INS_16reverse_iteratorIPN4sdsl14memory_monitor8mm_allocEEES6_EENS_4pairINS_18__unwrap_ref_decayIT_E4typeENS8_IT0_E4typeEEEOS9_OSC_, symObjAddr: 0x1AF7C, symBinAddr: 0x10001B8C0, symSize: 0x38 }
  - { offsetInCU: 0x33201, offset: 0x33201, size: 0x8, addend: 0x0, symName: __ZNSt3__114__rewrap_rangeB8ue170006INS_16reverse_iteratorIPN4sdsl14memory_monitor8mm_allocEEES6_EET_S7_T0_, symObjAddr: 0x1AFB4, symBinAddr: 0x10001B8F8, symSize: 0x5C }
  - { offsetInCU: 0x3324D, offset: 0x3324D, size: 0x8, addend: 0x0, symName: __ZNSt3__113__rewrap_iterB8ue170006INS_16reverse_iteratorIPN4sdsl14memory_monitor8mm_allocEEES6_NS_18__unwrap_iter_implIS6_Lb0EEEEET_S9_T0_, symObjAddr: 0x1B010, symBinAddr: 0x10001B954, symSize: 0x74 }
  - { offsetInCU: 0x332A2, offset: 0x332A2, size: 0x8, addend: 0x0, symName: __ZNSt3__1neB8ue170006IPN4sdsl14memory_monitor8mm_allocES4_EEbRKNS_16reverse_iteratorIT_EERKNS5_IT0_EE, symObjAddr: 0x1B084, symBinAddr: 0x10001B9C8, symSize: 0x48 }
  - { offsetInCU: 0x3335A, offset: 0x3335A, size: 0x8, addend: 0x0, symName: __ZNSt3__1eqB8ue170006IPyEEbRKNS_11__wrap_iterIT_EES6_, symObjAddr: 0x1B670, symBinAddr: 0x10001BFB4, symSize: 0x48 }
  - { offsetInCU: 0x3339D, offset: 0x3339D, size: 0x8, addend: 0x0, symName: __ZNSt3__122__make_exception_guardB8ue170006INS_6vectorIyNS_9allocatorIyEEE16__destroy_vectorEEENS_28__exception_guard_exceptionsIT_EES7_, symObjAddr: 0x1BCC4, symBinAddr: 0x10001C608, symSize: 0x40 }
  - { offsetInCU: 0x333D3, offset: 0x333D3, size: 0x8, addend: 0x0, symName: __ZNSt3__112__to_addressB8ue170006I10qdagWeightEEPT_S3_, symObjAddr: 0x1C2B4, symBinAddr: 0x10001CBF8, symSize: 0x14 }
  - { offsetInCU: 0x33409, offset: 0x33409, size: 0x8, addend: 0x0, symName: __ZNSt3__112__to_addressB8ue170006I13orderJoinQdagEEPT_S3_, symObjAddr: 0x1C7F4, symBinAddr: 0x10001D138, symSize: 0x14 }
  - { offsetInCU: 0x3343E, offset: 0x3343E, size: 0x8, addend: 0x0, symName: __ZNSt3__19make_pairB8ue170006IRyS1_EENS_4pairINS_18__unwrap_ref_decayIT_E4typeENS3_IT0_E4typeEEEOS4_OS7_, symObjAddr: 0x1ED10, symBinAddr: 0x10001F654, symSize: 0x38 }
  - { offsetInCU: 0x3348D, offset: 0x3348D, size: 0x8, addend: 0x0, symName: __ZNSt3__14sortB8ue170006INS_11__wrap_iterIPNS_4pairIyyEEEEPFbRKS3_S7_EEEvT_SA_T0_, symObjAddr: 0x1ED9C, symBinAddr: 0x10001F6E0, symSize: 0x48 }
  - { offsetInCU: 0x334E7, offset: 0x334E7, size: 0x8, addend: 0x0, symName: __ZNSt3__14sortB8ue170006INS_11__wrap_iterIPyEEEEvT_S4_, symObjAddr: 0x1EE44, symBinAddr: 0x10001F788, symSize: 0x3C }
  - { offsetInCU: 0x33529, offset: 0x33529, size: 0x8, addend: 0x0, symName: __ZNSt3__122__make_exception_guardB8ue170006INS_6vectorINS_4pairIyyEENS_9allocatorIS3_EEE16__destroy_vectorEEENS_28__exception_guard_exceptionsIT_EES9_, symObjAddr: 0x1F2D4, symBinAddr: 0x10001FC18, symSize: 0x40 }
  - { offsetInCU: 0x3355E, offset: 0x3355E, size: 0x8, addend: 0x0, symName: __ZNSt3__119__allocate_at_leastB8ue170006INS_9allocatorINS_4pairIyyEEEEEENS_19__allocation_resultINS_16allocator_traitsIT_E7pointerEEERS7_m, symObjAddr: 0x1F6C0, symBinAddr: 0x100020004, symSize: 0x40 }
  - { offsetInCU: 0x335A2, offset: 0x335A2, size: 0x8, addend: 0x0, symName: __ZNSt3__112__to_addressB8ue170006INS_4pairIyyEEEEPT_S4_, symObjAddr: 0x1F9E4, symBinAddr: 0x100020328, symSize: 0x14 }
  - { offsetInCU: 0x335D7, offset: 0x335D7, size: 0x8, addend: 0x0, symName: __ZNSt3__111__sort_implB8ue170006INS_17_ClassicAlgPolicyENS_11__wrap_iterIPNS_4pairIyyEEEEPFbRKS4_S8_EEEvT0_SB_RT1_, symObjAddr: 0x1FF58, symBinAddr: 0x10002089C, symSize: 0xA8 }
  - { offsetInCU: 0x3363B, offset: 0x3363B, size: 0x8, addend: 0x0, symName: __ZNSt3__123__debug_randomize_rangeB8ue170006INS_17_ClassicAlgPolicyENS_11__wrap_iterIPNS_4pairIyyEEEES6_EEvT0_T1_, symObjAddr: 0x20000, symBinAddr: 0x100020944, symSize: 0x14 }
  - { offsetInCU: 0x3368C, offset: 0x3368C, size: 0x8, addend: 0x0, symName: __ZNSt3__115__sort_dispatchB8ue170006INS_17_ClassicAlgPolicyEPNS_4pairIyyEEPFbRKS3_S6_EEEvT0_S9_RT1_, symObjAddr: 0x20014, symBinAddr: 0x100020958, symSize: 0x64 }
  - { offsetInCU: 0x3370A, offset: 0x3370A, size: 0x8, addend: 0x0, symName: __ZNSt3__113__unwrap_iterB8ue170006INS_11__wrap_iterIPNS_4pairIyyEEEENS_18__unwrap_iter_implIS5_Lb1EEELi0EEEDTclsrT0_8__unwrapclsr3stdE7declvalIT_EEEES9_, symObjAddr: 0x20078, symBinAddr: 0x1000209BC, symSize: 0x2C }
  - { offsetInCU: 0x3374F, offset: 0x3374F, size: 0x8, addend: 0x0, symName: __ZNSt3__135__check_strict_weak_ordering_sortedB8ue170006IPNS_4pairIyyEEPFbRKS2_S5_EEEvT_S8_RT0_, symObjAddr: 0x200A4, symBinAddr: 0x1000209E8, symSize: 0x18 }
  - { offsetInCU: 0x337A5, offset: 0x337A5, size: 0x8, addend: 0x0, symName: __ZNSt3__17__log2iB8ue170006IlEET_S1_, symObjAddr: 0x200BC, symBinAddr: 0x100020A00, symSize: 0x54 }
  - { offsetInCU: 0x337DD, offset: 0x337DD, size: 0x8, addend: 0x0, symName: __ZNSt3__112__libcpp_clzB8ue170006Em, symObjAddr: 0x20564, symBinAddr: 0x100020EA8, symSize: 0x1C }
  - { offsetInCU: 0x33809, offset: 0x33809, size: 0x8, addend: 0x0, symName: __ZNSt3__124__sort3_maybe_branchlessB8ue170006INS_17_ClassicAlgPolicyERPFbRKNS_4pairIyyEES5_EPS3_EENS_9enable_ifIXntsr21__use_branchless_sortIT0_T1_EE5valueEvE4typeESC_SC_SC_SB_, symObjAddr: 0x205B4, symBinAddr: 0x100020EF8, symSize: 0x3C }
  - { offsetInCU: 0x3387A, offset: 0x3387A, size: 0x8, addend: 0x0, symName: __ZNSt3__124__sort4_maybe_branchlessB8ue170006INS_17_ClassicAlgPolicyERPFbRKNS_4pairIyyEES5_EPS3_EENS_9enable_ifIXntsr21__use_branchless_sortIT0_T1_EE5valueEvE4typeESC_SC_SC_SC_SB_, symObjAddr: 0x205F0, symBinAddr: 0x100020F34, symSize: 0x44 }
  - { offsetInCU: 0x338F9, offset: 0x338F9, size: 0x8, addend: 0x0, symName: __ZNSt3__124__sort5_maybe_branchlessB8ue170006INS_17_ClassicAlgPolicyERPFbRKNS_4pairIyyEES5_EPS3_EENS_9enable_ifIXntsr21__use_branchless_sortIT0_T1_EE5valueEvE4typeESC_SC_SC_SC_SC_SB_, symObjAddr: 0x20634, symBinAddr: 0x100020F78, symSize: 0x4C }
  - { offsetInCU: 0x33986, offset: 0x33986, size: 0x8, addend: 0x0, symName: __ZNSt3__116__insertion_sortB8ue170006INS_17_ClassicAlgPolicyERPFbRKNS_4pairIyyEES5_EPS3_EEvT1_SA_T0_, symObjAddr: 0x20680, symBinAddr: 0x100020FC4, symSize: 0x158 }
  - { offsetInCU: 0x33A49, offset: 0x33A49, size: 0x8, addend: 0x0, symName: __ZNSt3__114__partial_sortB8ue170006INS_17_ClassicAlgPolicyERPFbRKNS_4pairIyyEES5_EPS3_S9_EET1_SA_SA_T2_RT0_, symObjAddr: 0x20900, symBinAddr: 0x100021244, symSize: 0x94 }
  - { offsetInCU: 0x33AD1, offset: 0x33AD1, size: 0x8, addend: 0x0, symName: __ZNSt3__17__sort3B8ue170006INS_17_ClassicAlgPolicyERPFbRKNS_4pairIyyEES5_EPS3_EEjT1_SA_SA_T0_, symObjAddr: 0x20994, symBinAddr: 0x1000212D8, symSize: 0x158 }
  - { offsetInCU: 0x33B50, offset: 0x33B50, size: 0x8, addend: 0x0, symName: __ZNSt3__19iter_swapB8ue170006IPNS_4pairIyyEES3_EEvT_T0_, symObjAddr: 0x215E0, symBinAddr: 0x100021F24, symSize: 0x2C }
  - { offsetInCU: 0x33B98, offset: 0x33B98, size: 0x8, addend: 0x0, symName: __ZNSt3__14swapB8ue170006IyyEENS_9enable_ifIXaasr14__is_swappableIT_EE5valuesr14__is_swappableIT0_EE5valueEvE4typeERNS_4pairIS2_S3_EES8_, symObjAddr: 0x2160C, symBinAddr: 0x100021F50, symSize: 0x2C }
  - { offsetInCU: 0x33BE8, offset: 0x33BE8, size: 0x8, addend: 0x0, symName: __ZNSt3__14swapB8ue170006IyEENS_9enable_ifIXaasr21is_move_constructibleIT_EE5valuesr18is_move_assignableIS2_EE5valueEvE4typeERS2_S5_, symObjAddr: 0x2167C, symBinAddr: 0x100021FC0, symSize: 0x3C }
  - { offsetInCU: 0x33C39, offset: 0x33C39, size: 0x8, addend: 0x0, symName: __ZNSt3__17__sort4B8ue170006INS_17_ClassicAlgPolicyERPFbRKNS_4pairIyyEES5_EPS3_EEvT1_SA_SA_SA_T0_, symObjAddr: 0x216B8, symBinAddr: 0x100021FFC, symSize: 0xC4 }
  - { offsetInCU: 0x33CB4, offset: 0x33CB4, size: 0x8, addend: 0x0, symName: __ZNSt3__17__sort5B8ue170006INS_17_ClassicAlgPolicyERPFbRKNS_4pairIyyEES5_EPS3_EEvT1_SA_SA_SA_SA_T0_, symObjAddr: 0x2177C, symBinAddr: 0x1000220C0, symSize: 0xF8 }
  - { offsetInCU: 0x33D62, offset: 0x33D62, size: 0x8, addend: 0x0, symName: __ZNSt3__123__debug_randomize_rangeB8ue170006INS_17_ClassicAlgPolicyEPNS_4pairIyyEES4_EEvT0_T1_, symObjAddr: 0x218B8, symBinAddr: 0x1000221FC, symSize: 0x14 }
  - { offsetInCU: 0x33DB3, offset: 0x33DB3, size: 0x8, addend: 0x0, symName: __ZNSt3__119__partial_sort_implB8ue170006INS_17_ClassicAlgPolicyERPFbRKNS_4pairIyyEES5_EPS3_S9_EET1_SA_SA_T2_OT0_, symObjAddr: 0x218CC, symBinAddr: 0x100022210, symSize: 0x114 }
  - { offsetInCU: 0x33E49, offset: 0x33E49, size: 0x8, addend: 0x0, symName: __ZNSt3__111__make_heapB8ue170006INS_17_ClassicAlgPolicyERPFbRKNS_4pairIyyEES5_EPS3_EEvT1_SA_OT0_, symObjAddr: 0x219E0, symBinAddr: 0x100022324, symSize: 0xB8 }
  - { offsetInCU: 0x33EEB, offset: 0x33EEB, size: 0x8, addend: 0x0, symName: __ZNSt3__111__sort_heapB8ue170006INS_17_ClassicAlgPolicyERPFbRKNS_4pairIyyEES5_EPS3_EEvT1_SA_OT0_, symObjAddr: 0x21CB4, symBinAddr: 0x1000225F8, symSize: 0xA8 }
  - { offsetInCU: 0x33F8D, offset: 0x33F8D, size: 0x8, addend: 0x0, symName: __ZNSt3__110__pop_heapB8ue170006INS_17_ClassicAlgPolicyEPFbRKNS_4pairIyyEES5_EPS3_EEvT1_S9_RT0_NS_15iterator_traitsIS9_E15difference_typeE, symObjAddr: 0x21D5C, symBinAddr: 0x1000226A0, symSize: 0xF4 }
  - { offsetInCU: 0x3403D, offset: 0x3403D, size: 0x8, addend: 0x0, symName: __ZNSt3__19__sift_upB8ue170006INS_17_ClassicAlgPolicyERPFbRKNS_4pairIyyEES5_EPS3_EEvT1_SA_OT0_NS_15iterator_traitsISA_E15difference_typeE, symObjAddr: 0x21F54, symBinAddr: 0x100022898, symSize: 0x124 }
  - { offsetInCU: 0x340ED, offset: 0x340ED, size: 0x8, addend: 0x0, symName: __ZNSt3__122__populate_left_bitsetB8ue170006IRPFbRKNS_4pairIyyEES4_EPS2_S2_EEvT0_T_RT1_Ry, symObjAddr: 0x22078, symBinAddr: 0x1000229BC, symSize: 0xAC }
  - { offsetInCU: 0x341A8, offset: 0x341A8, size: 0x8, addend: 0x0, symName: __ZNSt3__123__populate_right_bitsetB8ue170006IRPFbRKNS_4pairIyyEES4_EPS2_S2_EEvT0_T_RT1_Ry, symObjAddr: 0x22124, symBinAddr: 0x100022A68, symSize: 0xA4 }
  - { offsetInCU: 0x34263, offset: 0x34263, size: 0x8, addend: 0x0, symName: __ZNSt3__117__swap_bitmap_posB8ue170006INS_17_ClassicAlgPolicyEPNS_4pairIyyEEEEvT0_S5_RyS6_, symObjAddr: 0x221C8, symBinAddr: 0x100022B0C, symSize: 0x100 }
  - { offsetInCU: 0x34304, offset: 0x34304, size: 0x8, addend: 0x0, symName: __ZNSt3__133__bitset_partition_partial_blocksB8ue170006INS_17_ClassicAlgPolicyERPFbRKNS_4pairIyyEES5_EPS3_S3_EEvRT1_SB_T0_RT2_RySF_, symObjAddr: 0x222C8, symBinAddr: 0x100022C0C, symSize: 0x2F0 }
  - { offsetInCU: 0x34485, offset: 0x34485, size: 0x8, addend: 0x0, symName: __ZNSt3__19make_pairB8ue170006IRPNS_4pairIyyEERbEENS1_INS_18__unwrap_ref_decayIT_E4typeENS6_IT0_E4typeEEEOS7_OSA_, symObjAddr: 0x22798, symBinAddr: 0x1000230DC, symSize: 0x38 }
  - { offsetInCU: 0x344D5, offset: 0x344D5, size: 0x8, addend: 0x0, symName: __ZNSt3__112__libcpp_ctzB8ue170006Ey, symObjAddr: 0x227D0, symBinAddr: 0x100023114, symSize: 0x20 }
  - { offsetInCU: 0x34502, offset: 0x34502, size: 0x8, addend: 0x0, symName: __ZNSt3__113__libcpp_blsrB8ue170006Ey, symObjAddr: 0x227F0, symBinAddr: 0x100023134, symSize: 0x2C }
  - { offsetInCU: 0x3452F, offset: 0x3452F, size: 0x8, addend: 0x0, symName: __ZNSt3__112__libcpp_clzB8ue170006Ey, symObjAddr: 0x22850, symBinAddr: 0x100023194, symSize: 0x1C }
  - { offsetInCU: 0x34682, offset: 0x34682, size: 0x8, addend: 0x0, symName: __ZNSt3__112__to_addressB8ue170006INS_11__wrap_iterIPNS_4pairIyyEEEEvEEu7__decayIDTclsr19__to_address_helperIT_EE6__callclsr3stdE7declvalIRKS6_EEEEES8_, symObjAddr: 0x22908, symBinAddr: 0x10002324C, symSize: 0x24 }
  - { offsetInCU: 0x3475D, offset: 0x3475D, size: 0x8, addend: 0x0, symName: __ZNSt3__14sortB8ue170006INS_11__wrap_iterIPyEENS_6__lessIvvEEEEvT_S6_T0_, symObjAddr: 0x22A24, symBinAddr: 0x100023368, symSize: 0x40 }
  - { offsetInCU: 0x347B7, offset: 0x347B7, size: 0x8, addend: 0x0, symName: __ZNSt3__111__sort_implB8ue170006INS_17_ClassicAlgPolicyENS_11__wrap_iterIPyEENS_6__lessIvvEEEEvT0_S7_RT1_, symObjAddr: 0x22A64, symBinAddr: 0x1000233A8, symSize: 0xA8 }
  - { offsetInCU: 0x3481B, offset: 0x3481B, size: 0x8, addend: 0x0, symName: __ZNSt3__123__debug_randomize_rangeB8ue170006INS_17_ClassicAlgPolicyENS_11__wrap_iterIPyEES4_EEvT0_T1_, symObjAddr: 0x22B0C, symBinAddr: 0x100023450, symSize: 0x14 }
  - { offsetInCU: 0x3486C, offset: 0x3486C, size: 0x8, addend: 0x0, symName: __ZNSt3__115__sort_dispatchB8ue170006INS_17_ClassicAlgPolicyEyLi0EEEvPT0_S3_RNS_6__lessIvvEE, symObjAddr: 0x22B20, symBinAddr: 0x100023464, symSize: 0x34 }
  - { offsetInCU: 0x348D8, offset: 0x348D8, size: 0x8, addend: 0x0, symName: __ZNSt3__113__unwrap_iterB8ue170006INS_11__wrap_iterIPyEENS_18__unwrap_iter_implIS3_Lb1EEELi0EEEDTclsrT0_8__unwrapclsr3stdE7declvalIT_EEEES7_, symObjAddr: 0x22B54, symBinAddr: 0x100023498, symSize: 0x2C }
  - { offsetInCU: 0x3491D, offset: 0x3491D, size: 0x8, addend: 0x0, symName: __ZNSt3__135__check_strict_weak_ordering_sortedB8ue170006IPyNS_6__lessIvvEEEEvT_S4_RT0_, symObjAddr: 0x22B80, symBinAddr: 0x1000234C4, symSize: 0x18 }
  - { offsetInCU: 0x349C6, offset: 0x349C6, size: 0x8, addend: 0x0, symName: __ZNSt3__112__to_addressB8ue170006INS_11__wrap_iterIPyEEvEEu7__decayIDTclsr19__to_address_helperIT_EE6__callclsr3stdE7declvalIRKS4_EEEEES6_, symObjAddr: 0x22BC0, symBinAddr: 0x100023504, symSize: 0x24 }
  - { offsetInCU: 0x34CAC, offset: 0x34CAC, size: 0x8, addend: 0x0, symName: __ZNSt3__13tieB8ue170006IJyyyPyEEENS_5tupleIJDpRT_EEES5_, symObjAddr: 0x23A18, symBinAddr: 0x10002435C, symSize: 0x48 }
  - { offsetInCU: 0x3539B, offset: 0x3539B, size: 0x8, addend: 0x0, symName: __ZNSt3__19iter_swapB8ue170006INS_11__wrap_iterIPNS_6vectorIyNS_9allocatorIyEEEEEES7_EEvT_T0_, symObjAddr: 0x23C50, symBinAddr: 0x100024594, symSize: 0x50 }
  - { offsetInCU: 0x353E4, offset: 0x353E4, size: 0x8, addend: 0x0, symName: __ZNSt3__112__to_addressB8ue170006INS_5tupleIJyyyPyEEEEEPT_S5_, symObjAddr: 0x24734, symBinAddr: 0x100025078, symSize: 0x14 }
  - { offsetInCU: 0x35873, offset: 0x35873, size: 0x8, addend: 0x0, symName: __ZNSt3__14swapB8ue170006IPPNS_5tupleIJyyyPyEEEEENS_9enable_ifIXaasr21is_move_constructibleIT_EE5valuesr18is_move_assignableIS7_EE5valueEvE4typeERS7_SA_, symObjAddr: 0x25F98, symBinAddr: 0x1000268DC, symSize: 0x3C }
  - { offsetInCU: 0x358C4, offset: 0x358C4, size: 0x8, addend: 0x0, symName: __ZNSt3__14moveB8ue170006IPPNS_5tupleIJyyyPyEEES5_EET0_T_S7_S6_, symObjAddr: 0x260C8, symBinAddr: 0x100026A0C, symSize: 0x40 }
  - { offsetInCU: 0x3591F, offset: 0x3591F, size: 0x8, addend: 0x0, symName: __ZNSt3__112__to_addressB8ue170006IPNS_5tupleIJyyyPyEEEEEPT_S6_, symObjAddr: 0x261D0, symBinAddr: 0x100026B14, symSize: 0x14 }
  - { offsetInCU: 0x35954, offset: 0x35954, size: 0x8, addend: 0x0, symName: __ZNSt3__16__moveB8ue170006INS_17_ClassicAlgPolicyEPPNS_5tupleIJyyyPyEEES6_S6_EENS_4pairIT0_T2_EES8_T1_S9_, symObjAddr: 0x261E4, symBinAddr: 0x100026B28, symSize: 0x44 }
  - { offsetInCU: 0x359C0, offset: 0x359C0, size: 0x8, addend: 0x0, symName: __ZNSt3__123__dispatch_copy_or_moveB8ue170006INS_17_ClassicAlgPolicyENS_11__move_loopIS1_EENS_14__move_trivialEPPNS_5tupleIJyyyPyEEES9_S9_EENS_4pairIT2_T4_EESB_T3_SC_, symObjAddr: 0x26228, symBinAddr: 0x100026B6C, symSize: 0x44 }
  - { offsetInCU: 0x35A3E, offset: 0x35A3E, size: 0x8, addend: 0x0, symName: __ZNSt3__121__unwrap_and_dispatchB8ue170006INS_10__overloadINS_11__move_loopINS_17_ClassicAlgPolicyEEENS_14__move_trivialEEEPPNS_5tupleIJyyyPyEEESB_SB_Li0EEENS_4pairIT0_T2_EESD_T1_SE_, symObjAddr: 0x2626C, symBinAddr: 0x100026BB0, symSize: 0xB4 }
  - { offsetInCU: 0x35ACC, offset: 0x35ACC, size: 0x8, addend: 0x0, symName: __ZNSt3__114__unwrap_rangeB8ue170006IPPNS_5tupleIJyyyPyEEES5_EENS_4pairIT0_S7_EET_S9_, symObjAddr: 0x26320, symBinAddr: 0x100026C64, symSize: 0x60 }
  - { offsetInCU: 0x35C90, offset: 0x35C90, size: 0x8, addend: 0x0, symName: __ZNSt3__113__unwrap_iterB8ue170006IPPNS_5tupleIJyyyPyEEENS_18__unwrap_iter_implIS5_Lb1EEELi0EEEDTclsrT0_8__unwrapclsr3stdE7declvalIT_EEEES9_, symObjAddr: 0x263C8, symBinAddr: 0x100026D0C, symSize: 0x24 }
  - { offsetInCU: 0x35CD4, offset: 0x35CD4, size: 0x8, addend: 0x0, symName: __ZNSt3__19make_pairB8ue170006IPPNS_5tupleIJyyyPyEEES5_EENS_4pairINS_18__unwrap_ref_decayIT_E4typeENS7_IT0_E4typeEEEOS8_OSB_, symObjAddr: 0x263EC, symBinAddr: 0x100026D30, symSize: 0x38 }
  - { offsetInCU: 0x35D23, offset: 0x35D23, size: 0x8, addend: 0x0, symName: __ZNSt3__114__rewrap_rangeB8ue170006IPPNS_5tupleIJyyyPyEEES5_EET_S6_T0_, symObjAddr: 0x26424, symBinAddr: 0x100026D68, symSize: 0x2C }
  - { offsetInCU: 0x35D6F, offset: 0x35D6F, size: 0x8, addend: 0x0, symName: __ZNSt3__113__rewrap_iterB8ue170006IPPNS_5tupleIJyyyPyEEES5_NS_18__unwrap_iter_implIS5_Lb1EEEEET_S8_T0_, symObjAddr: 0x26450, symBinAddr: 0x100026D94, symSize: 0x3C }
  - { offsetInCU: 0x35DC4, offset: 0x35DC4, size: 0x8, addend: 0x0, symName: __ZNSt3__119__copy_trivial_implB8ue170006IPNS_5tupleIJyyyPyEEES4_EENS_4pairIPT_PT0_EES7_S7_S9_, symObjAddr: 0x2648C, symBinAddr: 0x100026DD0, symSize: 0x80 }
  - { offsetInCU: 0x35E2C, offset: 0x35E2C, size: 0x8, addend: 0x0, symName: __ZNSt3__119__constexpr_memmoveB8ue170006IPNS_5tupleIJyyyPyEEES4_Li0EEEPT_S6_PT0_NS_15__element_countE, symObjAddr: 0x2650C, symBinAddr: 0x100026E50, symSize: 0x64 }
  - { offsetInCU: 0x35E9A, offset: 0x35E9A, size: 0x8, addend: 0x0, symName: __ZNSt3__19make_pairB8ue170006IRPPNS_5tupleIJyyyPyEEES5_EENS_4pairINS_18__unwrap_ref_decayIT_E4typeENS8_IT0_E4typeEEEOS9_OSC_, symObjAddr: 0x26570, symBinAddr: 0x100026EB4, symSize: 0x38 }
  - { offsetInCU: 0x35F3C, offset: 0x35F3C, size: 0x8, addend: 0x0, symName: __ZNSt3__18distanceB8ue170006INS_13move_iteratorIPPNS_5tupleIJyyyPyEEEEEEENS_15iterator_traitsIT_E15difference_typeES9_S9_, symObjAddr: 0x267D8, symBinAddr: 0x10002711C, symSize: 0x3C }
  - { offsetInCU: 0x35F7F, offset: 0x35F7F, size: 0x8, addend: 0x0, symName: __ZNSt3__110__distanceB8ue170006INS_13move_iteratorIPPNS_5tupleIJyyyPyEEEEEEENS_15iterator_traitsIT_E15difference_typeES9_S9_NS_26random_access_iterator_tagE, symObjAddr: 0x269DC, symBinAddr: 0x100027320, symSize: 0x30 }
  - { offsetInCU: 0x35FCD, offset: 0x35FCD, size: 0x8, addend: 0x0, symName: __ZNSt3__1miB8ue170006IPPNS_5tupleIJyyyPyEEES5_EEDTmicldtfp_4baseEcldtfp0_4baseEERKNS_13move_iteratorIT_EERKNS7_IT0_EE, symObjAddr: 0x26A0C, symBinAddr: 0x100027350, symSize: 0x48 }
  - { offsetInCU: 0x3601C, offset: 0x3601C, size: 0x8, addend: 0x0, symName: __ZNSt3__113move_backwardB8ue170006IPPNS_5tupleIJyyyPyEEES5_EET0_T_S7_S6_, symObjAddr: 0x26BA4, symBinAddr: 0x1000274E8, symSize: 0x40 }
  - { offsetInCU: 0x36076, offset: 0x36076, size: 0x8, addend: 0x0, symName: __ZNSt3__115__move_backwardB8ue170006INS_17_ClassicAlgPolicyEPPNS_5tupleIJyyyPyEEES6_S6_EENS_4pairIT0_T2_EES8_T1_S9_, symObjAddr: 0x26BE4, symBinAddr: 0x100027528, symSize: 0x44 }
  - { offsetInCU: 0x360E2, offset: 0x360E2, size: 0x8, addend: 0x0, symName: __ZNSt3__123__dispatch_copy_or_moveB8ue170006INS_17_ClassicAlgPolicyENS_20__move_backward_loopIS1_EENS_23__move_backward_trivialEPPNS_5tupleIJyyyPyEEES9_S9_EENS_4pairIT2_T4_EESB_T3_SC_, symObjAddr: 0x26C28, symBinAddr: 0x10002756C, symSize: 0x44 }
  - { offsetInCU: 0x36160, offset: 0x36160, size: 0x8, addend: 0x0, symName: __ZNSt3__121__unwrap_and_dispatchB8ue170006INS_10__overloadINS_20__move_backward_loopINS_17_ClassicAlgPolicyEEENS_23__move_backward_trivialEEEPPNS_5tupleIJyyyPyEEESB_SB_Li0EEENS_4pairIT0_T2_EESD_T1_SE_, symObjAddr: 0x26C6C, symBinAddr: 0x1000275B0, symSize: 0xB4 }
  - { offsetInCU: 0x36234, offset: 0x36234, size: 0x8, addend: 0x0, symName: __ZNSt3__128__copy_backward_trivial_implB8ue170006IPNS_5tupleIJyyyPyEEES4_EENS_4pairIPT_PT0_EES7_S7_S9_, symObjAddr: 0x26D68, symBinAddr: 0x1000276AC, symSize: 0x90 }
  - { offsetInCU: 0x3629C, offset: 0x3629C, size: 0x8, addend: 0x0, symName: __ZNSt3__19make_pairB8ue170006IRPPNS_5tupleIJyyyPyEEES6_EENS_4pairINS_18__unwrap_ref_decayIT_E4typeENS8_IT0_E4typeEEEOS9_OSC_, symObjAddr: 0x26DF8, symBinAddr: 0x10002773C, symSize: 0x38 }
  - { offsetInCU: 0x362EB, offset: 0x362EB, size: 0x8, addend: 0x0, symName: __ZNSt3__119__allocate_at_leastB8ue170006INS_9allocatorIPNS_5tupleIJyyyPyEEEEEEENS_19__allocation_resultINS_16allocator_traitsIT_E7pointerEEERS9_m, symObjAddr: 0x2702C, symBinAddr: 0x100027970, symSize: 0x40 }
  - { offsetInCU: 0x36391, offset: 0x36391, size: 0x8, addend: 0x0, symName: __ZNSt3__124__memberwise_copy_assignB8ue170006INS_5tupleIJRyS2_S2_RPyEEENS1_IJyyyS3_EEEJLm0ELm1ELm2ELm3EEEEvRT_RKT0_NS_15__tuple_indicesIJXspT1_EEEE, symObjAddr: 0x27C3C, symBinAddr: 0x100028580, symSize: 0xE0 }
  - { offsetInCU: 0x36407, offset: 0x36407, size: 0x8, addend: 0x0, symName: __ZNSt3__19__swallowB8ue170006IJiiiiEEEvDpOT_, symObjAddr: 0x27D1C, symBinAddr: 0x100028660, symSize: 0x1C }
  - { offsetInCU: 0x3646C, offset: 0x3646C, size: 0x8, addend: 0x0, symName: __ZNSt3__13getB8ue170006ILm0EJyyyPyEEERKNS_13tuple_elementIXT_ENS_5tupleIJDpT0_EEEE4typeERKS6_, symObjAddr: 0x27D38, symBinAddr: 0x10002867C, symSize: 0x24 }
  - { offsetInCU: 0x364BD, offset: 0x364BD, size: 0x8, addend: 0x0, symName: __ZNSt3__13getB8ue170006ILm0EJRyS1_S1_RPyEEERNS_13tuple_elementIXT_ENS_5tupleIJDpT0_EEEE4typeERS8_, symObjAddr: 0x27D5C, symBinAddr: 0x1000286A0, symSize: 0x24 }
  - { offsetInCU: 0x3650E, offset: 0x3650E, size: 0x8, addend: 0x0, symName: __ZNSt3__13getB8ue170006ILm1EJyyyPyEEERKNS_13tuple_elementIXT_ENS_5tupleIJDpT0_EEEE4typeERKS6_, symObjAddr: 0x27D80, symBinAddr: 0x1000286C4, symSize: 0x28 }
  - { offsetInCU: 0x3655F, offset: 0x3655F, size: 0x8, addend: 0x0, symName: __ZNSt3__13getB8ue170006ILm1EJRyS1_S1_RPyEEERNS_13tuple_elementIXT_ENS_5tupleIJDpT0_EEEE4typeERS8_, symObjAddr: 0x27DA8, symBinAddr: 0x1000286EC, symSize: 0x28 }
  - { offsetInCU: 0x365B0, offset: 0x365B0, size: 0x8, addend: 0x0, symName: __ZNSt3__13getB8ue170006ILm2EJyyyPyEEERKNS_13tuple_elementIXT_ENS_5tupleIJDpT0_EEEE4typeERKS6_, symObjAddr: 0x27DD0, symBinAddr: 0x100028714, symSize: 0x28 }
  - { offsetInCU: 0x36601, offset: 0x36601, size: 0x8, addend: 0x0, symName: __ZNSt3__13getB8ue170006ILm2EJRyS1_S1_RPyEEERNS_13tuple_elementIXT_ENS_5tupleIJDpT0_EEEE4typeERS8_, symObjAddr: 0x27DF8, symBinAddr: 0x10002873C, symSize: 0x28 }
  - { offsetInCU: 0x36652, offset: 0x36652, size: 0x8, addend: 0x0, symName: __ZNSt3__13getB8ue170006ILm3EJyyyPyEEERKNS_13tuple_elementIXT_ENS_5tupleIJDpT0_EEEE4typeERKS6_, symObjAddr: 0x27E20, symBinAddr: 0x100028764, symSize: 0x28 }
  - { offsetInCU: 0x366A3, offset: 0x366A3, size: 0x8, addend: 0x0, symName: __ZNSt3__13getB8ue170006ILm3EJRyS1_S1_RPyEEERNS_13tuple_elementIXT_ENS_5tupleIJDpT0_EEEE4typeERS8_, symObjAddr: 0x27E48, symBinAddr: 0x10002878C, symSize: 0x28 }
  - { offsetInCU: 0x366F4, offset: 0x366F4, size: 0x8, addend: 0x0, symName: __ZNSt3__14swapB8ue170006IyNS_9allocatorIyEEEEvRNS_6vectorIT_T0_EES7_, symObjAddr: 0x28330, symBinAddr: 0x100028C74, symSize: 0x2C }
  - { offsetInCU: 0x36740, offset: 0x36740, size: 0x8, addend: 0x0, symName: __ZNSt3__116__swap_allocatorB8ue170006INS_9allocatorIyEEEEvRT_S4_NS_17integral_constantIbLb0EEE, symObjAddr: 0x283F8, symBinAddr: 0x100028D3C, symSize: 0x14 }
  - { offsetInCU: 0x36784, offset: 0x36784, size: 0x8, addend: 0x0, symName: __ZNSt3__1neB8ue170006ERKNS_16__deque_iteratorINS_5tupleIJyyyPyEEEPS3_RS3_PS4_lLl128EEES9_, symObjAddr: 0x288E8, symBinAddr: 0x10002922C, symSize: 0x34 }
  - { offsetInCU: 0x367C2, offset: 0x367C2, size: 0x8, addend: 0x0, symName: __ZNSt3__1eqB8ue170006ERKNS_16__deque_iteratorINS_5tupleIJyyyPyEEEPS3_RS3_PS4_lLl128EEES9_, symObjAddr: 0x2898C, symBinAddr: 0x1000292D0, symSize: 0x30 }
  - { offsetInCU: 0x367FF, offset: 0x367FF, size: 0x8, addend: 0x0, symName: __ZNSt3__1plB8ue170006IcNS_11char_traitsIcEENS_9allocatorIcEEEENS_12basic_stringIT_T0_T1_EERKS9_SB_, symObjAddr: 0x2BE18, symBinAddr: 0x10002C75C, symSize: 0x134 }
  - { offsetInCU: 0x368A0, offset: 0x368A0, size: 0x8, addend: 0x0, symName: __ZNSt3__1eqB8ue170006ERKNS_19__hash_map_iteratorINS_15__hash_iteratorIPNS_11__hash_nodeINS_17__hash_value_typeINS_12basic_stringIcNS_11char_traitsIcEENS_9allocatorIcEEEENS_10unique_ptrIN4sdsl19structure_tree_nodeENS_14default_deleteISC_EEEEEEPvEEEEEESN_, symObjAddr: 0x2BF8C, symBinAddr: 0x10002C8D0, symSize: 0x30 }
  - { offsetInCU: 0x368DE, offset: 0x368DE, size: 0x8, addend: 0x0, symName: __ZNSt3__112__to_addressB8ue170006IcEEPT_S2_, symObjAddr: 0x2C274, symBinAddr: 0x10002CBB8, symSize: 0x14 }
  - { offsetInCU: 0x36946, offset: 0x36946, size: 0x8, addend: 0x0, symName: __ZNSt3__14copyB8ue170006IPKcPcEET0_T_S5_S4_, symObjAddr: 0x2CB38, symBinAddr: 0x10002D47C, symSize: 0x40 }
  - { offsetInCU: 0x369A0, offset: 0x369A0, size: 0x8, addend: 0x0, symName: __ZNSt3__16__copyB8ue170006INS_17_ClassicAlgPolicyEPKcS3_PcEENS_4pairIT0_T2_EES6_T1_S7_, symObjAddr: 0x2CB78, symBinAddr: 0x10002D4BC, symSize: 0x44 }
  - { offsetInCU: 0x36A0C, offset: 0x36A0C, size: 0x8, addend: 0x0, symName: __ZNSt3__123__dispatch_copy_or_moveB8ue170006INS_17_ClassicAlgPolicyENS_11__copy_loopIS1_EENS_14__copy_trivialEPKcS6_PcEENS_4pairIT2_T4_EES9_T3_SA_, symObjAddr: 0x2CBBC, symBinAddr: 0x10002D500, symSize: 0x44 }
  - { offsetInCU: 0x36A8A, offset: 0x36A8A, size: 0x8, addend: 0x0, symName: __ZNSt3__121__unwrap_and_dispatchB8ue170006INS_10__overloadINS_11__copy_loopINS_17_ClassicAlgPolicyEEENS_14__copy_trivialEEEPKcS8_PcLi0EEENS_4pairIT0_T2_EESB_T1_SC_, symObjAddr: 0x2CC00, symBinAddr: 0x10002D544, symSize: 0xB4 }
  - { offsetInCU: 0x36B18, offset: 0x36B18, size: 0x8, addend: 0x0, symName: __ZNSt3__114__unwrap_rangeB8ue170006IPKcS2_EENS_4pairIT0_S4_EET_S6_, symObjAddr: 0x2CCB4, symBinAddr: 0x10002D5F8, symSize: 0x60 }
  - { offsetInCU: 0x36C67, offset: 0x36C67, size: 0x8, addend: 0x0, symName: __ZNSt3__113__unwrap_iterB8ue170006IPcNS_18__unwrap_iter_implIS1_Lb1EEELi0EEEDTclsrT0_8__unwrapclsr3stdE7declvalIT_EEEES5_, symObjAddr: 0x2CD5C, symBinAddr: 0x10002D6A0, symSize: 0x24 }
  - { offsetInCU: 0x36CAB, offset: 0x36CAB, size: 0x8, addend: 0x0, symName: __ZNSt3__19make_pairB8ue170006IPKcPcEENS_4pairINS_18__unwrap_ref_decayIT_E4typeENS5_IT0_E4typeEEEOS6_OS9_, symObjAddr: 0x2CD80, symBinAddr: 0x10002D6C4, symSize: 0x38 }
  - { offsetInCU: 0x36CFA, offset: 0x36CFA, size: 0x8, addend: 0x0, symName: __ZNSt3__114__rewrap_rangeB8ue170006IPKcS2_EET_S3_T0_, symObjAddr: 0x2CDB8, symBinAddr: 0x10002D6FC, symSize: 0x2C }
  - { offsetInCU: 0x36D46, offset: 0x36D46, size: 0x8, addend: 0x0, symName: __ZNSt3__113__rewrap_iterB8ue170006IPcS1_NS_18__unwrap_iter_implIS1_Lb1EEEEET_S4_T0_, symObjAddr: 0x2CDE4, symBinAddr: 0x10002D728, symSize: 0x3C }
  - { offsetInCU: 0x36D9B, offset: 0x36D9B, size: 0x8, addend: 0x0, symName: __ZNSt3__19make_pairB8ue170006IPKcS2_EENS_4pairINS_18__unwrap_ref_decayIT_E4typeENS4_IT0_E4typeEEEOS5_OS8_, symObjAddr: 0x2CE20, symBinAddr: 0x10002D764, symSize: 0x38 }
  - { offsetInCU: 0x36DEA, offset: 0x36DEA, size: 0x8, addend: 0x0, symName: __ZNSt3__113__unwrap_iterB8ue170006IPKcNS_18__unwrap_iter_implIS2_Lb1EEELi0EEEDTclsrT0_8__unwrapclsr3stdE7declvalIT_EEEES6_, symObjAddr: 0x2CE58, symBinAddr: 0x10002D79C, symSize: 0x24 }
  - { offsetInCU: 0x36F56, offset: 0x36F56, size: 0x8, addend: 0x0, symName: __ZNSt3__112__to_addressB8ue170006IKcEEPT_S3_, symObjAddr: 0x2CF10, symBinAddr: 0x10002D854, symSize: 0x14 }
  - { offsetInCU: 0x36F8B, offset: 0x36F8B, size: 0x8, addend: 0x0, symName: __ZNSt3__119__copy_trivial_implB8ue170006IKccEENS_4pairIPT_PT0_EES4_S4_S6_, symObjAddr: 0x2CF24, symBinAddr: 0x10002D868, symSize: 0x78 }
  - { offsetInCU: 0x36FF3, offset: 0x36FF3, size: 0x8, addend: 0x0, symName: __ZNSt3__119__constexpr_memmoveB8ue170006IcKcLi0EEEPT_S3_PT0_NS_15__element_countE, symObjAddr: 0x2CF9C, symBinAddr: 0x10002D8E0, symSize: 0x64 }
  - { offsetInCU: 0x37061, offset: 0x37061, size: 0x8, addend: 0x0, symName: __ZNSt3__19make_pairB8ue170006IRPKcPcEENS_4pairINS_18__unwrap_ref_decayIT_E4typeENS6_IT0_E4typeEEEOS7_OSA_, symObjAddr: 0x2D000, symBinAddr: 0x10002D944, symSize: 0x38 }
  - { offsetInCU: 0x37103, offset: 0x37103, size: 0x8, addend: 0x0, symName: __ZNSt3__113__rewrap_iterB8ue170006IPKcS2_NS_18__unwrap_iter_implIS2_Lb1EEEEET_S5_T0_, symObjAddr: 0x2D13C, symBinAddr: 0x10002DA80, symSize: 0x3C }
  - { offsetInCU: 0x3718B, offset: 0x3718B, size: 0x8, addend: 0x0, symName: __ZNSt3__16fill_nB8ue170006IPcmcEET_S2_T0_RKT1_, symObjAddr: 0x2D2C0, symBinAddr: 0x10002DC04, symSize: 0x44 }
  - { offsetInCU: 0x371EF, offset: 0x371EF, size: 0x8, addend: 0x0, symName: __ZNSt3__18__fill_nB8ue170006IPcmcEET_S2_T0_RKT1_, symObjAddr: 0x2D304, symBinAddr: 0x10002DC48, symSize: 0x64 }
  - { offsetInCU: 0x37253, offset: 0x37253, size: 0x8, addend: 0x0, symName: __ZNSt3__121__convert_to_integralB8ue170006Em, symObjAddr: 0x2D368, symBinAddr: 0x10002DCAC, symSize: 0x14 }
  - { offsetInCU: 0x37280, offset: 0x37280, size: 0x8, addend: 0x0, symName: __ZNSt3__116__constrain_hashB8ue170006Emm, symObjAddr: 0x2D5DC, symBinAddr: 0x10002DF20, symSize: 0x98 }
  - { offsetInCU: 0x372BA, offset: 0x372BA, size: 0x8, addend: 0x0, symName: __ZNSt3__116__do_string_hashB8ue170006IPKcEEmT_S3_, symObjAddr: 0x2D850, symBinAddr: 0x10002E194, symSize: 0x3C }
  - { offsetInCU: 0x37301, offset: 0x37301, size: 0x8, addend: 0x0, symName: __ZNSt3__110__loadwordB8ue170006ImEET_PKv, symObjAddr: 0x2E244, symBinAddr: 0x10002EB88, symSize: 0x20 }
  - { offsetInCU: 0x37345, offset: 0x37345, size: 0x8, addend: 0x0, symName: __ZNSt3__14swapB8ue170006ImEENS_9enable_ifIXaasr21is_move_constructibleIT_EE5valuesr18is_move_assignableIS2_EE5valueEvE4typeERS2_S5_, symObjAddr: 0x2E400, symBinAddr: 0x10002ED44, symSize: 0x3C }
  - { offsetInCU: 0x37397, offset: 0x37397, size: 0x8, addend: 0x0, symName: __ZNSt3__110__loadwordB8ue170006IjEET_PKv, symObjAddr: 0x2E490, symBinAddr: 0x10002EDD4, symSize: 0x20 }
  - { offsetInCU: 0x373DA, offset: 0x373DA, size: 0x8, addend: 0x0, symName: __ZNSt3__1eqB8ue170006INS_9allocatorIcEEEEbRKNS_12basic_stringIcNS_11char_traitsIcEET_EES9_, symObjAddr: 0x2E75C, symBinAddr: 0x10002F0A0, symSize: 0x148 }
  - { offsetInCU: 0x37481, offset: 0x37481, size: 0x8, addend: 0x0, symName: __ZNSt3__1eqB8ue170006ERKNS_15__hash_iteratorIPNS_11__hash_nodeINS_17__hash_value_typeINS_12basic_stringIcNS_11char_traitsIcEENS_9allocatorIcEEEENS_10unique_ptrIN4sdsl19structure_tree_nodeENS_14default_deleteISB_EEEEEEPvEEEESL_, symObjAddr: 0x2E92C, symBinAddr: 0x10002F270, symSize: 0x30 }
  - { offsetInCU: 0x374F5, offset: 0x374F5, size: 0x8, addend: 0x0, symName: __ZNSt3__116forward_as_tupleB8ue170006IJRKNS_12basic_stringIcNS_11char_traitsIcEENS_9allocatorIcEEEEEEENS_5tupleIJDpOT_EEESC_, symObjAddr: 0x2FC00, symBinAddr: 0x100030544, symSize: 0x2C }
  - { offsetInCU: 0x3752F, offset: 0x3752F, size: 0x8, addend: 0x0, symName: __ZNSt3__116forward_as_tupleB8ue170006IJEEENS_5tupleIJDpOT_EEES4_, symObjAddr: 0x2FC2C, symBinAddr: 0x100030570, symSize: 0x4 }
  - { offsetInCU: 0x37554, offset: 0x37554, size: 0x8, addend: 0x0, symName: __ZNSt3__116__is_hash_power2B8ue170006Em, symObjAddr: 0x2FE2C, symBinAddr: 0x100030770, symSize: 0x50 }
  - { offsetInCU: 0x3759E, offset: 0x3759E, size: 0x8, addend: 0x0, symName: __ZNSt3__13getB8ue170006ILm0EJRKNS_12basic_stringIcNS_11char_traitsIcEENS_9allocatorIcEEEEEEERNS_13tuple_elementIXT_ENS_5tupleIJDpT0_EEEE4typeERSD_, symObjAddr: 0x303BC, symBinAddr: 0x100030D00, symSize: 0x24 }
  - { offsetInCU: 0x375E1, offset: 0x375E1, size: 0x8, addend: 0x0, symName: __ZNSt3__116__next_hash_pow2B8ue170006Em, symObjAddr: 0x309B8, symBinAddr: 0x1000312FC, symSize: 0x6C }
  - { offsetInCU: 0x37655, offset: 0x37655, size: 0x8, addend: 0x0, symName: __ZNSt3__110__str_findB8ue170006IcmNS_11char_traitsIcEELm18446744073709551615EEET0_PKT_S3_S6_S3_S3_, symObjAddr: 0x31170, symBinAddr: 0x100031AB4, symSize: 0xE4 }
  - { offsetInCU: 0x376FC, offset: 0x376FC, size: 0x8, addend: 0x0, symName: __ZNSt3__118__search_substringB8ue170006IcNS_11char_traitsIcEEEEPKT_S5_S5_S5_S5_, symObjAddr: 0x31288, symBinAddr: 0x100031BCC, symSize: 0x154 }
  - { offsetInCU: 0x37796, offset: 0x37796, size: 0x8, addend: 0x0, symName: __ZNSt3__118__constexpr_memchrB8ue170006IKccEEPT_S3_T0_m, symObjAddr: 0x3144C, symBinAddr: 0x100031D90, symSize: 0x40 }
  - { offsetInCU: 0x3780C, offset: 0x3780C, size: 0x8, addend: 0x0, symName: __ZNSt3__118__constexpr_strlenB8ue170006EPKc, symObjAddr: 0x3148C, symBinAddr: 0x100031DD0, symSize: 0x24 }
  - { offsetInCU: 0x37A89, offset: 0x37A89, size: 0x8, addend: 0x0, symName: __ZNSt3__14swapB8ue170006IjEENS_9enable_ifIXaasr21is_move_constructibleIT_EE5valuesr18is_move_assignableIS2_EE5valueEvE4typeERS2_S5_, symObjAddr: 0x374AC, symBinAddr: 0x100037DF0, symSize: 0x3C }
  - { offsetInCU: 0x37ADB, offset: 0x37ADB, size: 0x8, addend: 0x0, symName: __ZNSt3__14swapB8ue170006IPN4sdsl10int_vectorILh0EEEEENS_9enable_ifIXaasr21is_move_constructibleIT_EE5valuesr18is_move_assignableIS6_EE5valueEvE4typeERS6_S9_, symObjAddr: 0x374E8, symBinAddr: 0x100037E2C, symSize: 0x3C }
  - { offsetInCU: 0x37B2C, offset: 0x37B2C, size: 0x8, addend: 0x0, symName: __ZNSt3__18distanceB8ue170006IPPNS_6vectorIhNS_9allocatorIhEEEEEENS_15iterator_traitsIT_E15difference_typeES8_S8_, symObjAddr: 0x37F4C, symBinAddr: 0x100038890, symSize: 0x2C }
  - { offsetInCU: 0x37B6F, offset: 0x37B6F, size: 0x8, addend: 0x0, symName: __ZNSt3__14nextB8ue170006IPPNS_6vectorIhNS_9allocatorIhEEEEEENS_9enable_ifIXsr29__has_input_iterator_categoryIT_EE5valueES8_E4typeES8_NS_15iterator_traitsIS8_E15difference_typeE, symObjAddr: 0x37F78, symBinAddr: 0x1000388BC, symSize: 0x34 }
  - { offsetInCU: 0x37BB2, offset: 0x37BB2, size: 0x8, addend: 0x0, symName: __ZNSt3__14copyB8ue170006IPPNS_6vectorIhNS_9allocatorIhEEEES6_EET0_T_S8_S7_, symObjAddr: 0x37FAC, symBinAddr: 0x1000388F0, symSize: 0x40 }
  - { offsetInCU: 0x37C0C, offset: 0x37C0C, size: 0x8, addend: 0x0, symName: __ZNSt3__16__copyB8ue170006INS_17_ClassicAlgPolicyEPPNS_6vectorIhNS_9allocatorIhEEEES7_S7_EENS_4pairIT0_T2_EES9_T1_SA_, symObjAddr: 0x38078, symBinAddr: 0x1000389BC, symSize: 0x44 }
  - { offsetInCU: 0x37C79, offset: 0x37C79, size: 0x8, addend: 0x0, symName: __ZNSt3__19__advanceB8ue170006IPPNS_6vectorIhNS_9allocatorIhEEEEEEvRT_NS_15iterator_traitsIS7_E15difference_typeENS_26random_access_iterator_tagE, symObjAddr: 0x38334, symBinAddr: 0x100038C78, symSize: 0x28 }
  - { offsetInCU: 0x37CC3, offset: 0x37CC3, size: 0x8, addend: 0x0, symName: __ZNSt3__130__uninitialized_allocator_copyB8ue170006INS_9allocatorIPNS_6vectorIhNS1_IhEEEEEEPS5_S7_S7_EET2_RT_T0_T1_S8_, symObjAddr: 0x38398, symBinAddr: 0x100038CDC, symSize: 0x80 }
  - { offsetInCU: 0x37D60, offset: 0x37D60, size: 0x8, addend: 0x0, symName: __ZNSt3__114__unwrap_rangeB8ue170006IPPNS_6vectorIhNS_9allocatorIhEEEES6_EENS_4pairIT0_S8_EET_SA_, symObjAddr: 0x38488, symBinAddr: 0x100038DCC, symSize: 0x60 }
  - { offsetInCU: 0x37DAC, offset: 0x37DAC, size: 0x8, addend: 0x0, symName: __ZNSt3__135__uninitialized_allocator_copy_implB8ue170006INS_9allocatorIPNS_6vectorIhNS1_IhEEEEEES5_S5_S5_LPv0EEEPT2_RT_PT0_SD_S9_, symObjAddr: 0x384E8, symBinAddr: 0x100038E2C, symSize: 0x38 }
  - { offsetInCU: 0x37E2E, offset: 0x37E2E, size: 0x8, addend: 0x0, symName: __ZNSt3__113__unwrap_iterB8ue170006IPPNS_6vectorIhNS_9allocatorIhEEEENS_18__unwrap_iter_implIS6_Lb1EEELi0EEEDTclsrT0_8__unwrapclsr3stdE7declvalIT_EEEESA_, symObjAddr: 0x38520, symBinAddr: 0x100038E64, symSize: 0x24 }
  - { offsetInCU: 0x37E72, offset: 0x37E72, size: 0x8, addend: 0x0, symName: __ZNSt3__113__rewrap_iterB8ue170006IPPNS_6vectorIhNS_9allocatorIhEEEES6_NS_18__unwrap_iter_implIS6_Lb1EEEEET_S9_T0_, symObjAddr: 0x38544, symBinAddr: 0x100038E88, symSize: 0x3C }
  - { offsetInCU: 0x37EC7, offset: 0x37EC7, size: 0x8, addend: 0x0, symName: __ZNSt3__19make_pairB8ue170006IPPNS_6vectorIhNS_9allocatorIhEEEES6_EENS_4pairINS_18__unwrap_ref_decayIT_E4typeENS8_IT0_E4typeEEEOS9_OSC_, symObjAddr: 0x38580, symBinAddr: 0x100038EC4, symSize: 0x38 }
  - { offsetInCU: 0x3806C, offset: 0x3806C, size: 0x8, addend: 0x0, symName: __ZNSt3__123__dispatch_copy_or_moveB8ue170006INS_17_ClassicAlgPolicyENS_11__copy_loopIS1_EENS_14__copy_trivialEPPNS_6vectorIhNS_9allocatorIhEEEESA_SA_EENS_4pairIT2_T4_EESC_T3_SD_, symObjAddr: 0x386BC, symBinAddr: 0x100039000, symSize: 0x44 }
  - { offsetInCU: 0x380EA, offset: 0x380EA, size: 0x8, addend: 0x0, symName: __ZNSt3__121__unwrap_and_dispatchB8ue170006INS_10__overloadINS_11__copy_loopINS_17_ClassicAlgPolicyEEENS_14__copy_trivialEEEPPNS_6vectorIhNS_9allocatorIhEEEESC_SC_Li0EEENS_4pairIT0_T2_EESE_T1_SF_, symObjAddr: 0x38700, symBinAddr: 0x100039044, symSize: 0xB4 }
  - { offsetInCU: 0x38178, offset: 0x38178, size: 0x8, addend: 0x0, symName: __ZNSt3__114__rewrap_rangeB8ue170006IPPNS_6vectorIhNS_9allocatorIhEEEES6_EET_S7_T0_, symObjAddr: 0x387FC, symBinAddr: 0x100039140, symSize: 0x2C }
  - { offsetInCU: 0x381C4, offset: 0x381C4, size: 0x8, addend: 0x0, symName: __ZNSt3__119__copy_trivial_implB8ue170006IPNS_6vectorIhNS_9allocatorIhEEEES5_EENS_4pairIPT_PT0_EES8_S8_SA_, symObjAddr: 0x38828, symBinAddr: 0x10003916C, symSize: 0x80 }
  - { offsetInCU: 0x3822C, offset: 0x3822C, size: 0x8, addend: 0x0, symName: __ZNSt3__119__constexpr_memmoveB8ue170006IPNS_6vectorIhNS_9allocatorIhEEEES5_Li0EEEPT_S7_PT0_NS_15__element_countE, symObjAddr: 0x388A8, symBinAddr: 0x1000391EC, symSize: 0x64 }
  - { offsetInCU: 0x3829A, offset: 0x3829A, size: 0x8, addend: 0x0, symName: __ZNSt3__19make_pairB8ue170006IRPPNS_6vectorIhNS_9allocatorIhEEEES6_EENS_4pairINS_18__unwrap_ref_decayIT_E4typeENS9_IT0_E4typeEEEOSA_OSD_, symObjAddr: 0x3890C, symBinAddr: 0x100039250, symSize: 0x38 }
  - { offsetInCU: 0x382E9, offset: 0x382E9, size: 0x8, addend: 0x0, symName: __ZNSt3__119__allocate_at_leastB8ue170006INS_9allocatorIPNS_6vectorIhNS1_IhEEEEEEEENS_19__allocation_resultINS_16allocator_traitsIT_E7pointerEEERS9_m, symObjAddr: 0x38B88, symBinAddr: 0x1000394CC, symSize: 0x40 }
  - { offsetInCU: 0x3832D, offset: 0x3832D, size: 0x8, addend: 0x0, symName: __ZNSt3__110__distanceB8ue170006IPPNS_6vectorIhNS_9allocatorIhEEEEEENS_15iterator_traitsIT_E15difference_typeES8_S8_NS_26random_access_iterator_tagE, symObjAddr: 0x38D64, symBinAddr: 0x1000396A8, symSize: 0x28 }
  - { offsetInCU: 0x3837B, offset: 0x3837B, size: 0x8, addend: 0x0, symName: __ZNSt3__18distanceB8ue170006IPKyEENS_15iterator_traitsIT_E15difference_typeES4_S4_, symObjAddr: 0x39538, symBinAddr: 0x100039E7C, symSize: 0x2C }
  - { offsetInCU: 0x383BE, offset: 0x383BE, size: 0x8, addend: 0x0, symName: __ZNSt3__14nextB8ue170006IPKyEENS_9enable_ifIXsr29__has_input_iterator_categoryIT_EE5valueES4_E4typeES4_NS_15iterator_traitsIS4_E15difference_typeE, symObjAddr: 0x39564, symBinAddr: 0x100039EA8, symSize: 0x34 }
  - { offsetInCU: 0x38401, offset: 0x38401, size: 0x8, addend: 0x0, symName: __ZNSt3__14copyB8ue170006IPKyPyEET0_T_S5_S4_, symObjAddr: 0x39598, symBinAddr: 0x100039EDC, symSize: 0x40 }
  - { offsetInCU: 0x3845B, offset: 0x3845B, size: 0x8, addend: 0x0, symName: __ZNSt3__16__copyB8ue170006INS_17_ClassicAlgPolicyEPKyS3_PyEENS_4pairIT0_T2_EES6_T1_S7_, symObjAddr: 0x39664, symBinAddr: 0x100039FA8, symSize: 0x44 }
  - { offsetInCU: 0x384C8, offset: 0x384C8, size: 0x8, addend: 0x0, symName: __ZNSt3__19__advanceB8ue170006IPKyEEvRT_NS_15iterator_traitsIS3_E15difference_typeENS_26random_access_iterator_tagE, symObjAddr: 0x396E0, symBinAddr: 0x10003A024, symSize: 0x28 }
  - { offsetInCU: 0x38512, offset: 0x38512, size: 0x8, addend: 0x0, symName: __ZNSt3__130__uninitialized_allocator_copyB8ue170006INS_9allocatorIyEEPKyS4_PyEET2_RT_T0_T1_S6_, symObjAddr: 0x39708, symBinAddr: 0x10003A04C, symSize: 0x80 }
  - { offsetInCU: 0x385AF, offset: 0x385AF, size: 0x8, addend: 0x0, symName: __ZNSt3__114__unwrap_rangeB8ue170006IPKyS2_EENS_4pairIT0_S4_EET_S6_, symObjAddr: 0x39788, symBinAddr: 0x10003A0CC, symSize: 0x60 }
  - { offsetInCU: 0x385FB, offset: 0x385FB, size: 0x8, addend: 0x0, symName: __ZNSt3__135__uninitialized_allocator_copy_implB8ue170006INS_9allocatorIyEEKyyyLPv0EEEPT2_RT_PT0_SA_S6_, symObjAddr: 0x397E8, symBinAddr: 0x10003A12C, symSize: 0x38 }
  - { offsetInCU: 0x3867D, offset: 0x3867D, size: 0x8, addend: 0x0, symName: __ZNSt3__19make_pairB8ue170006IPKyS2_EENS_4pairINS_18__unwrap_ref_decayIT_E4typeENS4_IT0_E4typeEEEOS5_OS8_, symObjAddr: 0x39820, symBinAddr: 0x10003A164, symSize: 0x38 }
  - { offsetInCU: 0x386CC, offset: 0x386CC, size: 0x8, addend: 0x0, symName: __ZNSt3__113__unwrap_iterB8ue170006IPKyNS_18__unwrap_iter_implIS2_Lb1EEELi0EEEDTclsrT0_8__unwrapclsr3stdE7declvalIT_EEEES6_, symObjAddr: 0x39858, symBinAddr: 0x10003A19C, symSize: 0x24 }
  - { offsetInCU: 0x38838, offset: 0x38838, size: 0x8, addend: 0x0, symName: __ZNSt3__112__to_addressB8ue170006IKyEEPT_S3_, symObjAddr: 0x39910, symBinAddr: 0x10003A254, symSize: 0x14 }
  - { offsetInCU: 0x3886D, offset: 0x3886D, size: 0x8, addend: 0x0, symName: __ZNSt3__123__dispatch_copy_or_moveB8ue170006INS_17_ClassicAlgPolicyENS_11__copy_loopIS1_EENS_14__copy_trivialEPKyS6_PyEENS_4pairIT2_T4_EES9_T3_SA_, symObjAddr: 0x39924, symBinAddr: 0x10003A268, symSize: 0x44 }
  - { offsetInCU: 0x388EB, offset: 0x388EB, size: 0x8, addend: 0x0, symName: __ZNSt3__121__unwrap_and_dispatchB8ue170006INS_10__overloadINS_11__copy_loopINS_17_ClassicAlgPolicyEEENS_14__copy_trivialEEEPKyS8_PyLi0EEENS_4pairIT0_T2_EESB_T1_SC_, symObjAddr: 0x39968, symBinAddr: 0x10003A2AC, symSize: 0xB4 }
  - { offsetInCU: 0x38A7C, offset: 0x38A7C, size: 0x8, addend: 0x0, symName: __ZNSt3__19make_pairB8ue170006IPKyPyEENS_4pairINS_18__unwrap_ref_decayIT_E4typeENS5_IT0_E4typeEEEOS6_OS9_, symObjAddr: 0x39A64, symBinAddr: 0x10003A3A8, symSize: 0x38 }
  - { offsetInCU: 0x38ACB, offset: 0x38ACB, size: 0x8, addend: 0x0, symName: __ZNSt3__114__rewrap_rangeB8ue170006IPKyS2_EET_S3_T0_, symObjAddr: 0x39A9C, symBinAddr: 0x10003A3E0, symSize: 0x2C }
  - { offsetInCU: 0x38B17, offset: 0x38B17, size: 0x8, addend: 0x0, symName: __ZNSt3__119__copy_trivial_implB8ue170006IKyyEENS_4pairIPT_PT0_EES4_S4_S6_, symObjAddr: 0x39AC8, symBinAddr: 0x10003A40C, symSize: 0x80 }
  - { offsetInCU: 0x38B7F, offset: 0x38B7F, size: 0x8, addend: 0x0, symName: __ZNSt3__119__constexpr_memmoveB8ue170006IyKyLi0EEEPT_S3_PT0_NS_15__element_countE, symObjAddr: 0x39B48, symBinAddr: 0x10003A48C, symSize: 0x64 }
  - { offsetInCU: 0x38BED, offset: 0x38BED, size: 0x8, addend: 0x0, symName: __ZNSt3__19make_pairB8ue170006IRPKyPyEENS_4pairINS_18__unwrap_ref_decayIT_E4typeENS6_IT0_E4typeEEEOS7_OSA_, symObjAddr: 0x39BAC, symBinAddr: 0x10003A4F0, symSize: 0x38 }
  - { offsetInCU: 0x38C3C, offset: 0x38C3C, size: 0x8, addend: 0x0, symName: __ZNSt3__113__rewrap_iterB8ue170006IPKyS2_NS_18__unwrap_iter_implIS2_Lb1EEEEET_S5_T0_, symObjAddr: 0x39CC4, symBinAddr: 0x10003A608, symSize: 0x3C }
  - { offsetInCU: 0x38C92, offset: 0x38C92, size: 0x8, addend: 0x0, symName: __ZNSt3__110__distanceB8ue170006IPKyEENS_15iterator_traitsIT_E15difference_typeES4_S4_NS_26random_access_iterator_tagE, symObjAddr: 0x39D50, symBinAddr: 0x10003A694, symSize: 0x28 }
  - { offsetInCU: 0x38CE0, offset: 0x38CE0, size: 0x8, addend: 0x0, symName: __ZNSt3__13maxB8ue170006IdEERKT_S3_S3_, symObjAddr: 0x3A824, symBinAddr: 0x10003B168, symSize: 0x2C }
  - { offsetInCU: 0x38D23, offset: 0x38D23, size: 0x8, addend: 0x0, symName: __ZNSt3__13minB8ue170006IdEERKT_S3_S3_, symObjAddr: 0x3A850, symBinAddr: 0x10003B194, symSize: 0x2C }
  - { offsetInCU: 0x38D66, offset: 0x38D66, size: 0x8, addend: 0x0, symName: __ZNSt3__18distanceB8ue170006IPKP16quadtree_formulaEENS_15iterator_traitsIT_E15difference_typeES6_S6_, symObjAddr: 0x3B068, symBinAddr: 0x10003B9AC, symSize: 0x2C }
  - { offsetInCU: 0x38DA9, offset: 0x38DA9, size: 0x8, addend: 0x0, symName: __ZNSt3__14nextB8ue170006IPKP16quadtree_formulaEENS_9enable_ifIXsr29__has_input_iterator_categoryIT_EE5valueES6_E4typeES6_NS_15iterator_traitsIS6_E15difference_typeE, symObjAddr: 0x3B0FC, symBinAddr: 0x10003BA40, symSize: 0x34 }
  - { offsetInCU: 0x38DEC, offset: 0x38DEC, size: 0x8, addend: 0x0, symName: __ZNSt3__14copyB8ue170006IPKP16quadtree_formulaPS2_EET0_T_S7_S6_, symObjAddr: 0x3B130, symBinAddr: 0x10003BA74, symSize: 0x40 }
  - { offsetInCU: 0x38E46, offset: 0x38E46, size: 0x8, addend: 0x0, symName: __ZNSt3__16__copyB8ue170006INS_17_ClassicAlgPolicyEPKP16quadtree_formulaS5_PS3_EENS_4pairIT0_T2_EES8_T1_S9_, symObjAddr: 0x3B1FC, symBinAddr: 0x10003BB40, symSize: 0x44 }
  - { offsetInCU: 0x38EB3, offset: 0x38EB3, size: 0x8, addend: 0x0, symName: __ZNSt3__19__advanceB8ue170006IPKP16quadtree_formulaEEvRT_NS_15iterator_traitsIS5_E15difference_typeENS_26random_access_iterator_tagE, symObjAddr: 0x3B518, symBinAddr: 0x10003BE5C, symSize: 0x28 }
  - { offsetInCU: 0x38EFD, offset: 0x38EFD, size: 0x8, addend: 0x0, symName: __ZNSt3__130__uninitialized_allocator_copyB8ue170006INS_9allocatorIP16quadtree_formulaEEPKS3_S6_PS3_EET2_RT_T0_T1_S8_, symObjAddr: 0x3B57C, symBinAddr: 0x10003BEC0, symSize: 0x80 }
  - { offsetInCU: 0x38F9A, offset: 0x38F9A, size: 0x8, addend: 0x0, symName: __ZNSt3__114__unwrap_rangeB8ue170006IPKP16quadtree_formulaS4_EENS_4pairIT0_S6_EET_S8_, symObjAddr: 0x3B694, symBinAddr: 0x10003BFD8, symSize: 0x60 }
  - { offsetInCU: 0x38FE6, offset: 0x38FE6, size: 0x8, addend: 0x0, symName: __ZNSt3__135__uninitialized_allocator_copy_implB8ue170006INS_9allocatorIP16quadtree_formulaEEKS3_S3_S3_LPv0EEEPT2_RT_PT0_SC_S8_, symObjAddr: 0x3B6F4, symBinAddr: 0x10003C038, symSize: 0x38 }
  - { offsetInCU: 0x39068, offset: 0x39068, size: 0x8, addend: 0x0, symName: __ZNSt3__113__unwrap_iterB8ue170006IPP16quadtree_formulaNS_18__unwrap_iter_implIS3_Lb1EEELi0EEEDTclsrT0_8__unwrapclsr3stdE7declvalIT_EEEES7_, symObjAddr: 0x3B72C, symBinAddr: 0x10003C070, symSize: 0x24 }
  - { offsetInCU: 0x390AC, offset: 0x390AC, size: 0x8, addend: 0x0, symName: __ZNSt3__113__rewrap_iterB8ue170006IPP16quadtree_formulaS3_NS_18__unwrap_iter_implIS3_Lb1EEEEET_S6_T0_, symObjAddr: 0x3B750, symBinAddr: 0x10003C094, symSize: 0x3C }
  - { offsetInCU: 0x39101, offset: 0x39101, size: 0x8, addend: 0x0, symName: __ZNSt3__19make_pairB8ue170006IPKP16quadtree_formulaS4_EENS_4pairINS_18__unwrap_ref_decayIT_E4typeENS6_IT0_E4typeEEEOS7_OSA_, symObjAddr: 0x3B78C, symBinAddr: 0x10003C0D0, symSize: 0x38 }
  - { offsetInCU: 0x39150, offset: 0x39150, size: 0x8, addend: 0x0, symName: __ZNSt3__113__unwrap_iterB8ue170006IPKP16quadtree_formulaNS_18__unwrap_iter_implIS4_Lb1EEELi0EEEDTclsrT0_8__unwrapclsr3stdE7declvalIT_EEEES8_, symObjAddr: 0x3B7C4, symBinAddr: 0x10003C108, symSize: 0x24 }
  - { offsetInCU: 0x392BC, offset: 0x392BC, size: 0x8, addend: 0x0, symName: __ZNSt3__112__to_addressB8ue170006IKP16quadtree_formulaEEPT_S5_, symObjAddr: 0x3B87C, symBinAddr: 0x10003C1C0, symSize: 0x14 }
  - { offsetInCU: 0x39345, offset: 0x39345, size: 0x8, addend: 0x0, symName: __ZNSt3__112__to_addressB8ue170006IP16quadtree_formulaEEPT_S4_, symObjAddr: 0x3B8B4, symBinAddr: 0x10003C1F8, symSize: 0x14 }
  - { offsetInCU: 0x3937A, offset: 0x3937A, size: 0x8, addend: 0x0, symName: __ZNSt3__123__dispatch_copy_or_moveB8ue170006INS_17_ClassicAlgPolicyENS_11__copy_loopIS1_EENS_14__copy_trivialEPKP16quadtree_formulaS8_PS6_EENS_4pairIT2_T4_EESB_T3_SC_, symObjAddr: 0x3B970, symBinAddr: 0x10003C2B4, symSize: 0x44 }
  - { offsetInCU: 0x393F8, offset: 0x393F8, size: 0x8, addend: 0x0, symName: __ZNSt3__121__unwrap_and_dispatchB8ue170006INS_10__overloadINS_11__copy_loopINS_17_ClassicAlgPolicyEEENS_14__copy_trivialEEEPKP16quadtree_formulaSA_PS8_Li0EEENS_4pairIT0_T2_EESD_T1_SE_, symObjAddr: 0x3B9B4, symBinAddr: 0x10003C2F8, symSize: 0xB4 }
  - { offsetInCU: 0x39589, offset: 0x39589, size: 0x8, addend: 0x0, symName: __ZNSt3__19make_pairB8ue170006IPKP16quadtree_formulaPS2_EENS_4pairINS_18__unwrap_ref_decayIT_E4typeENS7_IT0_E4typeEEEOS8_OSB_, symObjAddr: 0x3BAB0, symBinAddr: 0x10003C3F4, symSize: 0x38 }
  - { offsetInCU: 0x395D8, offset: 0x395D8, size: 0x8, addend: 0x0, symName: __ZNSt3__114__rewrap_rangeB8ue170006IPKP16quadtree_formulaS4_EET_S5_T0_, symObjAddr: 0x3BAE8, symBinAddr: 0x10003C42C, symSize: 0x2C }
  - { offsetInCU: 0x39624, offset: 0x39624, size: 0x8, addend: 0x0, symName: __ZNSt3__119__copy_trivial_implB8ue170006IKP16quadtree_formulaS2_EENS_4pairIPT_PT0_EES6_S6_S8_, symObjAddr: 0x3BB14, symBinAddr: 0x10003C458, symSize: 0x80 }
  - { offsetInCU: 0x3968C, offset: 0x3968C, size: 0x8, addend: 0x0, symName: __ZNSt3__119__constexpr_memmoveB8ue170006IP16quadtree_formulaKS2_Li0EEEPT_S5_PT0_NS_15__element_countE, symObjAddr: 0x3BB94, symBinAddr: 0x10003C4D8, symSize: 0x64 }
  - { offsetInCU: 0x396FA, offset: 0x396FA, size: 0x8, addend: 0x0, symName: __ZNSt3__19make_pairB8ue170006IRPKP16quadtree_formulaPS2_EENS_4pairINS_18__unwrap_ref_decayIT_E4typeENS8_IT0_E4typeEEEOS9_OSC_, symObjAddr: 0x3BBF8, symBinAddr: 0x10003C53C, symSize: 0x38 }
  - { offsetInCU: 0x39749, offset: 0x39749, size: 0x8, addend: 0x0, symName: __ZNSt3__113__rewrap_iterB8ue170006IPKP16quadtree_formulaS4_NS_18__unwrap_iter_implIS4_Lb1EEEEET_S7_T0_, symObjAddr: 0x3BD10, symBinAddr: 0x10003C654, symSize: 0x3C }
  - { offsetInCU: 0x3979E, offset: 0x3979E, size: 0x8, addend: 0x0, symName: __ZNSt3__119__allocate_at_leastB8ue170006INS_9allocatorIP16quadtree_formulaEEEENS_19__allocation_resultINS_16allocator_traitsIT_E7pointerEEERS7_m, symObjAddr: 0x3C16C, symBinAddr: 0x10003CAB0, symSize: 0x40 }
  - { offsetInCU: 0x397E2, offset: 0x397E2, size: 0x8, addend: 0x0, symName: __ZNSt3__110__distanceB8ue170006IPKP16quadtree_formulaEENS_15iterator_traitsIT_E15difference_typeES6_S6_NS_26random_access_iterator_tagE, symObjAddr: 0x3C348, symBinAddr: 0x10003CC8C, symSize: 0x28 }
  - { offsetInCU: 0x39830, offset: 0x39830, size: 0x8, addend: 0x0, symName: __ZNSt3__142__uninitialized_allocator_move_if_noexceptB8ue170006INS_9allocatorIP16quadtree_formulaEENS_16reverse_iteratorIPS3_EES7_S3_vEET1_RT_T0_SB_S8_, symObjAddr: 0x3CB68, symBinAddr: 0x10003D4AC, symSize: 0x78 }
  - { offsetInCU: 0x398AF, offset: 0x398AF, size: 0x8, addend: 0x0, symName: __ZNSt3__14swapB8ue170006IPP16quadtree_formulaEENS_9enable_ifIXaasr21is_move_constructibleIT_EE5valuesr18is_move_assignableIS5_EE5valueEvE4typeERS5_S8_, symObjAddr: 0x3CC2C, symBinAddr: 0x10003D570, symSize: 0x3C }
  - { offsetInCU: 0x39900, offset: 0x39900, size: 0x8, addend: 0x0, symName: __ZNSt3__14moveB8ue170006INS_16reverse_iteratorIPP16quadtree_formulaEES5_EET0_T_S7_S6_, symObjAddr: 0x3CC68, symBinAddr: 0x10003D5AC, symSize: 0x78 }
  - { offsetInCU: 0x3995A, offset: 0x3995A, size: 0x8, addend: 0x0, symName: __ZNSt3__16__moveB8ue170006INS_17_ClassicAlgPolicyENS_16reverse_iteratorIPP16quadtree_formulaEES6_S6_EENS_4pairIT0_T2_EES8_T1_S9_, symObjAddr: 0x3CCE0, symBinAddr: 0x10003D624, symSize: 0x64 }
  - { offsetInCU: 0x399C6, offset: 0x399C6, size: 0x8, addend: 0x0, symName: __ZNSt3__123__dispatch_copy_or_moveB8ue170006INS_17_ClassicAlgPolicyENS_11__move_loopIS1_EENS_14__move_trivialENS_16reverse_iteratorIPP16quadtree_formulaEES9_S9_EENS_4pairIT2_T4_EESB_T3_SC_, symObjAddr: 0x3CD44, symBinAddr: 0x10003D688, symSize: 0x64 }
  - { offsetInCU: 0x39A44, offset: 0x39A44, size: 0x8, addend: 0x0, symName: __ZNSt3__121__unwrap_and_dispatchB8ue170006INS_10__overloadINS_11__move_loopINS_17_ClassicAlgPolicyEEENS_14__move_trivialEEENS_16reverse_iteratorIPP16quadtree_formulaEESB_SB_Li0EEENS_4pairIT0_T2_EESD_T1_SE_, symObjAddr: 0x3CDA8, symBinAddr: 0x10003D6EC, symSize: 0x12C }
  - { offsetInCU: 0x39AD4, offset: 0x39AD4, size: 0x8, addend: 0x0, symName: __ZNSt3__114__unwrap_rangeB8ue170006INS_16reverse_iteratorIPP16quadtree_formulaEES5_EENS_4pairIT0_S7_EET_S9_, symObjAddr: 0x3CED4, symBinAddr: 0x10003D818, symSize: 0x84 }
  - { offsetInCU: 0x39BF4, offset: 0x39BF4, size: 0x8, addend: 0x0, symName: __ZNSt3__113__unwrap_iterB8ue170006INS_16reverse_iteratorIPP16quadtree_formulaEENS_18__unwrap_iter_implIS5_Lb0EEELi0EEEDTclsrT0_8__unwrapclsr3stdE7declvalIT_EEEES9_, symObjAddr: 0x3CFF8, symBinAddr: 0x10003D93C, symSize: 0x44 }
  - { offsetInCU: 0x39C38, offset: 0x39C38, size: 0x8, addend: 0x0, symName: __ZNSt3__19make_pairB8ue170006INS_16reverse_iteratorIPP16quadtree_formulaEES5_EENS_4pairINS_18__unwrap_ref_decayIT_E4typeENS7_IT0_E4typeEEEOS8_OSB_, symObjAddr: 0x3D03C, symBinAddr: 0x10003D980, symSize: 0x38 }
  - { offsetInCU: 0x39C87, offset: 0x39C87, size: 0x8, addend: 0x0, symName: __ZNSt3__114__rewrap_rangeB8ue170006INS_16reverse_iteratorIPP16quadtree_formulaEES5_EET_S6_T0_, symObjAddr: 0x3D074, symBinAddr: 0x10003D9B8, symSize: 0x5C }
  - { offsetInCU: 0x39CD3, offset: 0x39CD3, size: 0x8, addend: 0x0, symName: __ZNSt3__113__rewrap_iterB8ue170006INS_16reverse_iteratorIPP16quadtree_formulaEES5_NS_18__unwrap_iter_implIS5_Lb0EEEEET_S8_T0_, symObjAddr: 0x3D0D0, symBinAddr: 0x10003DA14, symSize: 0x74 }
  - { offsetInCU: 0x39D28, offset: 0x39D28, size: 0x8, addend: 0x0, symName: __ZNSt3__1neB8ue170006IPP16quadtree_formulaS3_EEbRKNS_16reverse_iteratorIT_EERKNS4_IT0_EE, symObjAddr: 0x3D144, symBinAddr: 0x10003DA88, symSize: 0x48 }
  - { offsetInCU: 0x39DE0, offset: 0x39DE0, size: 0x8, addend: 0x0, symName: __ZNSt3__13maxB8ue170006IdNS_6__lessIvvEEEERKT_S5_S5_T0_, symObjAddr: 0x3D4D4, symBinAddr: 0x10003DE18, symSize: 0x54 }
  - { offsetInCU: 0x39E3A, offset: 0x39E3A, size: 0x8, addend: 0x0, symName: __ZNSt3__13minB8ue170006IdNS_6__lessIvvEEEERKT_S5_S5_T0_, symObjAddr: 0x3D55C, symBinAddr: 0x10003DEA0, symSize: 0x54 }
  - { offsetInCU: 0x39E94, offset: 0x39E94, size: 0x8, addend: 0x0, symName: __ZNSt3__18distanceB8ue170006IPP16quadtree_formulaEENS_15iterator_traitsIT_E15difference_typeES5_S5_, symObjAddr: 0x3D808, symBinAddr: 0x10003E14C, symSize: 0x2C }
  - { offsetInCU: 0x39ED7, offset: 0x39ED7, size: 0x8, addend: 0x0, symName: __ZNSt3__14nextB8ue170006IPP16quadtree_formulaEENS_9enable_ifIXsr29__has_input_iterator_categoryIT_EE5valueES5_E4typeES5_NS_15iterator_traitsIS5_E15difference_typeE, symObjAddr: 0x3D834, symBinAddr: 0x10003E178, symSize: 0x34 }
  - { offsetInCU: 0x39F1A, offset: 0x39F1A, size: 0x8, addend: 0x0, symName: __ZNSt3__14copyB8ue170006IPP16quadtree_formulaS3_EET0_T_S5_S4_, symObjAddr: 0x3D868, symBinAddr: 0x10003E1AC, symSize: 0x40 }
  - { offsetInCU: 0x39F74, offset: 0x39F74, size: 0x8, addend: 0x0, symName: __ZNSt3__16__copyB8ue170006INS_17_ClassicAlgPolicyEPP16quadtree_formulaS4_S4_EENS_4pairIT0_T2_EES6_T1_S7_, symObjAddr: 0x3D934, symBinAddr: 0x10003E278, symSize: 0x44 }
  - { offsetInCU: 0x39FE1, offset: 0x39FE1, size: 0x8, addend: 0x0, symName: __ZNSt3__19__advanceB8ue170006IPP16quadtree_formulaEEvRT_NS_15iterator_traitsIS4_E15difference_typeENS_26random_access_iterator_tagE, symObjAddr: 0x3D9B0, symBinAddr: 0x10003E2F4, symSize: 0x28 }
  - { offsetInCU: 0x3A02B, offset: 0x3A02B, size: 0x8, addend: 0x0, symName: __ZNSt3__130__uninitialized_allocator_copyB8ue170006INS_9allocatorIP16quadtree_formulaEEPS3_S5_S5_EET2_RT_T0_T1_S6_, symObjAddr: 0x3D9D8, symBinAddr: 0x10003E31C, symSize: 0x80 }
  - { offsetInCU: 0x3A0C8, offset: 0x3A0C8, size: 0x8, addend: 0x0, symName: __ZNSt3__114__unwrap_rangeB8ue170006IPP16quadtree_formulaS3_EENS_4pairIT0_S5_EET_S7_, symObjAddr: 0x3DA58, symBinAddr: 0x10003E39C, symSize: 0x60 }
  - { offsetInCU: 0x3A114, offset: 0x3A114, size: 0x8, addend: 0x0, symName: __ZNSt3__135__uninitialized_allocator_copy_implB8ue170006INS_9allocatorIP16quadtree_formulaEES3_S3_S3_LPv0EEEPT2_RT_PT0_SB_S7_, symObjAddr: 0x3DAB8, symBinAddr: 0x10003E3FC, symSize: 0x38 }
  - { offsetInCU: 0x3A196, offset: 0x3A196, size: 0x8, addend: 0x0, symName: __ZNSt3__19make_pairB8ue170006IPP16quadtree_formulaS3_EENS_4pairINS_18__unwrap_ref_decayIT_E4typeENS5_IT0_E4typeEEEOS6_OS9_, symObjAddr: 0x3DAF0, symBinAddr: 0x10003E434, symSize: 0x38 }
  - { offsetInCU: 0x3A2E8, offset: 0x3A2E8, size: 0x8, addend: 0x0, symName: __ZNSt3__123__dispatch_copy_or_moveB8ue170006INS_17_ClassicAlgPolicyENS_11__copy_loopIS1_EENS_14__copy_trivialEPP16quadtree_formulaS7_S7_EENS_4pairIT2_T4_EES9_T3_SA_, symObjAddr: 0x3DB98, symBinAddr: 0x10003E4DC, symSize: 0x44 }
  - { offsetInCU: 0x3A366, offset: 0x3A366, size: 0x8, addend: 0x0, symName: __ZNSt3__121__unwrap_and_dispatchB8ue170006INS_10__overloadINS_11__copy_loopINS_17_ClassicAlgPolicyEEENS_14__copy_trivialEEEPP16quadtree_formulaS9_S9_Li0EEENS_4pairIT0_T2_EESB_T1_SC_, symObjAddr: 0x3DBDC, symBinAddr: 0x10003E520, symSize: 0xB4 }
  - { offsetInCU: 0x3A3F4, offset: 0x3A3F4, size: 0x8, addend: 0x0, symName: __ZNSt3__114__rewrap_rangeB8ue170006IPP16quadtree_formulaS3_EET_S4_T0_, symObjAddr: 0x3DCD8, symBinAddr: 0x10003E61C, symSize: 0x2C }
  - { offsetInCU: 0x3A440, offset: 0x3A440, size: 0x8, addend: 0x0, symName: __ZNSt3__119__copy_trivial_implB8ue170006IP16quadtree_formulaS2_EENS_4pairIPT_PT0_EES5_S5_S7_, symObjAddr: 0x3DD04, symBinAddr: 0x10003E648, symSize: 0x80 }
  - { offsetInCU: 0x3A4A8, offset: 0x3A4A8, size: 0x8, addend: 0x0, symName: __ZNSt3__119__constexpr_memmoveB8ue170006IP16quadtree_formulaS2_Li0EEEPT_S4_PT0_NS_15__element_countE, symObjAddr: 0x3DD84, symBinAddr: 0x10003E6C8, symSize: 0x64 }
  - { offsetInCU: 0x3A516, offset: 0x3A516, size: 0x8, addend: 0x0, symName: __ZNSt3__19make_pairB8ue170006IRPP16quadtree_formulaS3_EENS_4pairINS_18__unwrap_ref_decayIT_E4typeENS6_IT0_E4typeEEEOS7_OSA_, symObjAddr: 0x3DDE8, symBinAddr: 0x10003E72C, symSize: 0x38 }
  - { offsetInCU: 0x3A566, offset: 0x3A566, size: 0x8, addend: 0x0, symName: __ZNSt3__110__distanceB8ue170006IPP16quadtree_formulaEENS_15iterator_traitsIT_E15difference_typeES5_S5_NS_26random_access_iterator_tagE, symObjAddr: 0x3DE90, symBinAddr: 0x10003E7D4, symSize: 0x28 }
  - { offsetInCU: 0x3A5B5, offset: 0x3A5B5, size: 0x8, addend: 0x0, symName: __ZNSt3__112__to_addressB8ue170006I11qdagResultsEEPT_S3_, symObjAddr: 0x3E394, symBinAddr: 0x10003ECD8, symSize: 0x14 }
  - { offsetInCU: 0x3A5EA, offset: 0x3A5EA, size: 0x8, addend: 0x0, symName: __ZNSt3__116__pad_and_outputB8ue170006IcNS_11char_traitsIcEEEENS_19ostreambuf_iteratorIT_T0_EES6_PKS4_S8_S8_RNS_8ios_baseES4_, symObjAddr: 0x3E980, symBinAddr: 0x10003F2C4, symSize: 0x240 }
  - { offsetInCU: 0x3A6B9, offset: 0x3A6B9, size: 0x8, addend: 0x0, symName: __ZNSt3__19use_facetB8ue170006INS_5ctypeIcEEEERKT_RKNS_6localeE, symObjAddr: 0x3EF0C, symBinAddr: 0x10003F850, symSize: 0x2C }
  - { offsetInCU: 0x3AB86, offset: 0x3AB86, size: 0x8, addend: 0x0, symName: __ZNSt3__116forward_as_tupleB8ue170006IJyEEENS_5tupleIJDpOT_EEES4_, symObjAddr: 0x4004C, symBinAddr: 0x100040990, symSize: 0x2C }
  - { offsetInCU: 0x3ABDD, offset: 0x3ABDD, size: 0x8, addend: 0x0, symName: __ZNSt3__13getB8ue170006ILm0EJOyEEERNS_13tuple_elementIXT_ENS_5tupleIJDpT0_EEEE4typeERS6_, symObjAddr: 0x40AB0, symBinAddr: 0x1000413F4, symSize: 0x24 }
  - { offsetInCU: 0x3AC20, offset: 0x3AC20, size: 0x8, addend: 0x0, symName: __ZNSt3__127__tree_balance_after_insertB8ue170006IPNS_16__tree_node_baseIPvEEEEvT_S5_, symObjAddr: 0x40B60, symBinAddr: 0x1000414A4, symSize: 0x32C }
  - { offsetInCU: 0x3AC9D, offset: 0x3AC9D, size: 0x8, addend: 0x0, symName: __ZNSt3__120__tree_is_left_childB8ue170006IPNS_16__tree_node_baseIPvEEEEbT_, symObjAddr: 0x40ECC, symBinAddr: 0x100041810, symSize: 0x2C }
  - { offsetInCU: 0x3ACD2, offset: 0x3ACD2, size: 0x8, addend: 0x0, symName: __ZNSt3__118__tree_left_rotateB8ue170006IPNS_16__tree_node_baseIPvEEEEvT_, symObjAddr: 0x40EF8, symBinAddr: 0x10004183C, symSize: 0xD8 }
  - { offsetInCU: 0x3AD14, offset: 0x3AD14, size: 0x8, addend: 0x0, symName: __ZNSt3__119__tree_right_rotateB8ue170006IPNS_16__tree_node_baseIPvEEEEvT_, symObjAddr: 0x40FD0, symBinAddr: 0x100041914, symSize: 0xCC }
  - { offsetInCU: 0x3AD9E, offset: 0x3AD9E, size: 0x8, addend: 0x0, symName: __ZNSt3__1neB8ue170006ERKNS_15__tree_iteratorINS_12__value_typeIyhEEPNS_11__tree_nodeIS2_PvEElEES9_, symObjAddr: 0x414D8, symBinAddr: 0x100041E1C, symSize: 0x34 }
  - { offsetInCU: 0x3ADDC, offset: 0x3ADDC, size: 0x8, addend: 0x0, symName: __ZNSt3__1eqB8ue170006ERKNS_15__tree_iteratorINS_12__value_typeIyhEEPNS_11__tree_nodeIS2_PvEElEES9_, symObjAddr: 0x4150C, symBinAddr: 0x100041E50, symSize: 0x30 }
  - { offsetInCU: 0x3AE19, offset: 0x3AE19, size: 0x8, addend: 0x0, symName: __ZNSt3__116__tree_next_iterB8ue170006IPNS_15__tree_end_nodeIPNS_16__tree_node_baseIPvEEEES5_EET_T0_, symObjAddr: 0x415A0, symBinAddr: 0x100041EE4, symSize: 0x80 }
  - { offsetInCU: 0x3AE58, offset: 0x3AE58, size: 0x8, addend: 0x0, symName: __ZNSt3__110__tree_minB8ue170006IPNS_16__tree_node_baseIPvEEEET_S5_, symObjAddr: 0x41620, symBinAddr: 0x100041F64, symSize: 0x40 }
  - { offsetInCU: 0x3AEC0, offset: 0x3AEC0, size: 0x8, addend: 0x0, symName: __ZNSt3__18pop_heapB8ue170006INS_11__wrap_iterIP10qdagWeightEENS_4lessIS2_EEEEvT_S7_T0_, symObjAddr: 0x416B4, symBinAddr: 0x100041FF8, symSize: 0x58 }
  - { offsetInCU: 0x3AF24, offset: 0x3AF24, size: 0x8, addend: 0x0, symName: __ZNSt3__1miB8ue170006IP10qdagWeightS2_EEDTmicldtfp_4baseEcldtfp0_4baseEERKNS_11__wrap_iterIT_EERKNS4_IT0_EE, symObjAddr: 0x41798, symBinAddr: 0x1000420DC, symSize: 0x48 }
  - { offsetInCU: 0x3AF70, offset: 0x3AF70, size: 0x8, addend: 0x0, symName: __ZNSt3__110__pop_heapB8ue170006INS_17_ClassicAlgPolicyENS_4lessI10qdagWeightEENS_11__wrap_iterIPS3_EEEEvT1_S8_RT0_NS_15iterator_traitsIS8_E15difference_typeE, symObjAddr: 0x417E0, symBinAddr: 0x100042124, symSize: 0x154 }
  - { offsetInCU: 0x3B046, offset: 0x3B046, size: 0x8, addend: 0x0, symName: __ZNSt3__1eqB8ue170006IP10qdagWeightEEbRKNS_11__wrap_iterIT_EES7_, symObjAddr: 0x41AE8, symBinAddr: 0x10004242C, symSize: 0x48 }
  - { offsetInCU: 0x3B089, offset: 0x3B089, size: 0x8, addend: 0x0, symName: __ZNSt3__19__sift_upB8ue170006INS_17_ClassicAlgPolicyERNS_4lessI10qdagWeightEENS_11__wrap_iterIPS3_EEEEvT1_S9_OT0_NS_15iterator_traitsIS9_E15difference_typeE, symObjAddr: 0x41B68, symBinAddr: 0x1000424AC, symSize: 0x178 }
  - { offsetInCU: 0x3B13A, offset: 0x3B13A, size: 0x8, addend: 0x0, symName: __ZNSt3__112__to_addressB8ue170006IPtEEPT_S3_, symObjAddr: 0x42190, symBinAddr: 0x100042AD4, symSize: 0x14 }
  - { offsetInCU: 0x3B16F, offset: 0x3B16F, size: 0x8, addend: 0x0, symName: __ZNSt3__119__allocate_at_leastB8ue170006INS_9allocatorIPtEEEENS_19__allocation_resultINS_16allocator_traitsIT_E7pointerEEERS6_m, symObjAddr: 0x4278C, symBinAddr: 0x1000430D0, symSize: 0x40 }
  - { offsetInCU: 0x3B1B2, offset: 0x3B1B2, size: 0x8, addend: 0x0, symName: __ZNSt3__142__uninitialized_allocator_move_if_noexceptB8ue170006INS_9allocatorIPtEENS_16reverse_iteratorIPS2_EES6_S2_vEET1_RT_T0_SA_S7_, symObjAddr: 0x42A14, symBinAddr: 0x100043358, symSize: 0x78 }
  - { offsetInCU: 0x3B231, offset: 0x3B231, size: 0x8, addend: 0x0, symName: __ZNSt3__14swapB8ue170006IPPtEENS_9enable_ifIXaasr21is_move_constructibleIT_EE5valuesr18is_move_assignableIS4_EE5valueEvE4typeERS4_S7_, symObjAddr: 0x42AD8, symBinAddr: 0x10004341C, symSize: 0x3C }
  - { offsetInCU: 0x3B282, offset: 0x3B282, size: 0x8, addend: 0x0, symName: __ZNSt3__14moveB8ue170006INS_16reverse_iteratorIPPtEES4_EET0_T_S6_S5_, symObjAddr: 0x42C08, symBinAddr: 0x10004354C, symSize: 0x78 }
  - { offsetInCU: 0x3B2DC, offset: 0x3B2DC, size: 0x8, addend: 0x0, symName: __ZNSt3__16__moveB8ue170006INS_17_ClassicAlgPolicyENS_16reverse_iteratorIPPtEES5_S5_EENS_4pairIT0_T2_EES7_T1_S8_, symObjAddr: 0x42C80, symBinAddr: 0x1000435C4, symSize: 0x64 }
  - { offsetInCU: 0x3B348, offset: 0x3B348, size: 0x8, addend: 0x0, symName: __ZNSt3__123__dispatch_copy_or_moveB8ue170006INS_17_ClassicAlgPolicyENS_11__move_loopIS1_EENS_14__move_trivialENS_16reverse_iteratorIPPtEES8_S8_EENS_4pairIT2_T4_EESA_T3_SB_, symObjAddr: 0x42CE4, symBinAddr: 0x100043628, symSize: 0x64 }
  - { offsetInCU: 0x3B3C6, offset: 0x3B3C6, size: 0x8, addend: 0x0, symName: __ZNSt3__121__unwrap_and_dispatchB8ue170006INS_10__overloadINS_11__move_loopINS_17_ClassicAlgPolicyEEENS_14__move_trivialEEENS_16reverse_iteratorIPPtEESA_SA_Li0EEENS_4pairIT0_T2_EESC_T1_SD_, symObjAddr: 0x42D48, symBinAddr: 0x10004368C, symSize: 0x12C }
  - { offsetInCU: 0x3B456, offset: 0x3B456, size: 0x8, addend: 0x0, symName: __ZNSt3__114__unwrap_rangeB8ue170006INS_16reverse_iteratorIPPtEES4_EENS_4pairIT0_S6_EET_S8_, symObjAddr: 0x42E74, symBinAddr: 0x1000437B8, symSize: 0x84 }
  - { offsetInCU: 0x3B576, offset: 0x3B576, size: 0x8, addend: 0x0, symName: __ZNSt3__113__unwrap_iterB8ue170006INS_16reverse_iteratorIPPtEENS_18__unwrap_iter_implIS4_Lb0EEELi0EEEDTclsrT0_8__unwrapclsr3stdE7declvalIT_EEEES8_, symObjAddr: 0x42F98, symBinAddr: 0x1000438DC, symSize: 0x44 }
  - { offsetInCU: 0x3B5BA, offset: 0x3B5BA, size: 0x8, addend: 0x0, symName: __ZNSt3__19make_pairB8ue170006INS_16reverse_iteratorIPPtEES4_EENS_4pairINS_18__unwrap_ref_decayIT_E4typeENS6_IT0_E4typeEEEOS7_OSA_, symObjAddr: 0x42FDC, symBinAddr: 0x100043920, symSize: 0x38 }
  - { offsetInCU: 0x3B609, offset: 0x3B609, size: 0x8, addend: 0x0, symName: __ZNSt3__114__rewrap_rangeB8ue170006INS_16reverse_iteratorIPPtEES4_EET_S5_T0_, symObjAddr: 0x43014, symBinAddr: 0x100043958, symSize: 0x5C }
  - { offsetInCU: 0x3B655, offset: 0x3B655, size: 0x8, addend: 0x0, symName: __ZNSt3__113__rewrap_iterB8ue170006INS_16reverse_iteratorIPPtEES4_NS_18__unwrap_iter_implIS4_Lb0EEEEET_S7_T0_, symObjAddr: 0x43070, symBinAddr: 0x1000439B4, symSize: 0x74 }
  - { offsetInCU: 0x3B6AA, offset: 0x3B6AA, size: 0x8, addend: 0x0, symName: __ZNSt3__1neB8ue170006IPPtS2_EEbRKNS_16reverse_iteratorIT_EERKNS3_IT0_EE, symObjAddr: 0x430E4, symBinAddr: 0x100043A28, symSize: 0x48 }
  - { offsetInCU: 0x3B762, offset: 0x3B762, size: 0x8, addend: 0x0, symName: __ZNSt3__19push_heapB8ue170006INS_11__wrap_iterIP10qdagWeightEENS_4lessIS2_EEEEvT_S7_T0_, symObjAddr: 0x43594, symBinAddr: 0x100043ED8, symSize: 0x40 }
  - { offsetInCU: 0x3B7B8, offset: 0x3B7B8, size: 0x8, addend: 0x0, symName: __ZNSt3__119__allocate_at_leastB8ue170006INS_9allocatorI10qdagWeightEEEENS_19__allocation_resultINS_16allocator_traitsIT_E7pointerEEERS6_m, symObjAddr: 0x43D24, symBinAddr: 0x100044668, symSize: 0x40 }
  - { offsetInCU: 0x3B7FB, offset: 0x3B7FB, size: 0x8, addend: 0x0, symName: __ZNSt3__142__uninitialized_allocator_move_if_noexceptB8ue170006INS_9allocatorI10qdagWeightEENS_16reverse_iteratorIPS2_EES6_S2_vEET1_RT_T0_SA_S7_, symObjAddr: 0x43EF4, symBinAddr: 0x100044838, symSize: 0x78 }
  - { offsetInCU: 0x3B87A, offset: 0x3B87A, size: 0x8, addend: 0x0, symName: __ZNSt3__14swapB8ue170006IP10qdagWeightEENS_9enable_ifIXaasr21is_move_constructibleIT_EE5valuesr18is_move_assignableIS4_EE5valueEvE4typeERS4_S7_, symObjAddr: 0x43FB8, symBinAddr: 0x1000448FC, symSize: 0x3C }
  - { offsetInCU: 0x3B8CB, offset: 0x3B8CB, size: 0x8, addend: 0x0, symName: __ZNSt3__14moveB8ue170006INS_16reverse_iteratorIP10qdagWeightEES4_EET0_T_S6_S5_, symObjAddr: 0x440A0, symBinAddr: 0x1000449E4, symSize: 0x78 }
  - { offsetInCU: 0x3B925, offset: 0x3B925, size: 0x8, addend: 0x0, symName: __ZNSt3__16__moveB8ue170006INS_17_ClassicAlgPolicyENS_16reverse_iteratorIP10qdagWeightEES5_S5_EENS_4pairIT0_T2_EES7_T1_S8_, symObjAddr: 0x44118, symBinAddr: 0x100044A5C, symSize: 0x64 }
  - { offsetInCU: 0x3B991, offset: 0x3B991, size: 0x8, addend: 0x0, symName: __ZNSt3__123__dispatch_copy_or_moveB8ue170006INS_17_ClassicAlgPolicyENS_11__move_loopIS1_EENS_14__move_trivialENS_16reverse_iteratorIP10qdagWeightEES8_S8_EENS_4pairIT2_T4_EESA_T3_SB_, symObjAddr: 0x4417C, symBinAddr: 0x100044AC0, symSize: 0x64 }
  - { offsetInCU: 0x3BA0F, offset: 0x3BA0F, size: 0x8, addend: 0x0, symName: __ZNSt3__121__unwrap_and_dispatchB8ue170006INS_10__overloadINS_11__move_loopINS_17_ClassicAlgPolicyEEENS_14__move_trivialEEENS_16reverse_iteratorIP10qdagWeightEESA_SA_Li0EEENS_4pairIT0_T2_EESC_T1_SD_, symObjAddr: 0x441E0, symBinAddr: 0x100044B24, symSize: 0x12C }
  - { offsetInCU: 0x3BA9F, offset: 0x3BA9F, size: 0x8, addend: 0x0, symName: __ZNSt3__114__unwrap_rangeB8ue170006INS_16reverse_iteratorIP10qdagWeightEES4_EENS_4pairIT0_S6_EET_S8_, symObjAddr: 0x4430C, symBinAddr: 0x100044C50, symSize: 0x84 }
  - { offsetInCU: 0x3BBBF, offset: 0x3BBBF, size: 0x8, addend: 0x0, symName: __ZNSt3__113__unwrap_iterB8ue170006INS_16reverse_iteratorIP10qdagWeightEENS_18__unwrap_iter_implIS4_Lb0EEELi0EEEDTclsrT0_8__unwrapclsr3stdE7declvalIT_EEEES8_, symObjAddr: 0x44438, symBinAddr: 0x100044D7C, symSize: 0x44 }
  - { offsetInCU: 0x3BC03, offset: 0x3BC03, size: 0x8, addend: 0x0, symName: __ZNSt3__19make_pairB8ue170006INS_16reverse_iteratorIP10qdagWeightEES4_EENS_4pairINS_18__unwrap_ref_decayIT_E4typeENS6_IT0_E4typeEEEOS7_OSA_, symObjAddr: 0x4447C, symBinAddr: 0x100044DC0, symSize: 0x38 }
  - { offsetInCU: 0x3BC52, offset: 0x3BC52, size: 0x8, addend: 0x0, symName: __ZNSt3__114__rewrap_rangeB8ue170006INS_16reverse_iteratorIP10qdagWeightEES4_EET_S5_T0_, symObjAddr: 0x444B4, symBinAddr: 0x100044DF8, symSize: 0x5C }
  - { offsetInCU: 0x3BC9E, offset: 0x3BC9E, size: 0x8, addend: 0x0, symName: __ZNSt3__113__rewrap_iterB8ue170006INS_16reverse_iteratorIP10qdagWeightEES4_NS_18__unwrap_iter_implIS4_Lb0EEEEET_S7_T0_, symObjAddr: 0x44510, symBinAddr: 0x100044E54, symSize: 0x74 }
  - { offsetInCU: 0x3BCF3, offset: 0x3BCF3, size: 0x8, addend: 0x0, symName: __ZNSt3__1neB8ue170006IP10qdagWeightS2_EEbRKNS_16reverse_iteratorIT_EERKNS3_IT0_EE, symObjAddr: 0x44584, symBinAddr: 0x100044EC8, symSize: 0x48 }
  - { offsetInCU: 0x3BD87, offset: 0x3BD87, size: 0x8, addend: 0x0, symName: __ZNSt3__111__push_heapB8ue170006INS_17_ClassicAlgPolicyENS_11__wrap_iterIP10qdagWeightEENS_4lessIS3_EEEEvT0_S8_RT1_, symObjAddr: 0x44914, symBinAddr: 0x100045258, symSize: 0x5C }
  - { offsetInCU: 0x3BDF4, offset: 0x3BDF4, size: 0x8, addend: 0x0, symName: __ZNSt3__19push_heapB8ue170006INS_11__wrap_iterIP13orderJoinQdagEENS_4lessIS2_EEEEvT_S7_T0_, symObjAddr: 0x44F48, symBinAddr: 0x10004588C, symSize: 0x40 }
  - { offsetInCU: 0x3BE4A, offset: 0x3BE4A, size: 0x8, addend: 0x0, symName: __ZNSt3__119__allocate_at_leastB8ue170006INS_9allocatorI13orderJoinQdagEEEENS_19__allocation_resultINS_16allocator_traitsIT_E7pointerEEERS6_m, symObjAddr: 0x45750, symBinAddr: 0x100046094, symSize: 0x40 }
  - { offsetInCU: 0x3BE8D, offset: 0x3BE8D, size: 0x8, addend: 0x0, symName: __ZNSt3__142__uninitialized_allocator_move_if_noexceptB8ue170006INS_9allocatorI13orderJoinQdagEENS_16reverse_iteratorIPS2_EES6_S2_vEET1_RT_T0_SA_S7_, symObjAddr: 0x45908, symBinAddr: 0x10004624C, symSize: 0x78 }
  - { offsetInCU: 0x3BF0C, offset: 0x3BF0C, size: 0x8, addend: 0x0, symName: __ZNSt3__14swapB8ue170006IP13orderJoinQdagEENS_9enable_ifIXaasr21is_move_constructibleIT_EE5valuesr18is_move_assignableIS4_EE5valueEvE4typeERS4_S7_, symObjAddr: 0x459CC, symBinAddr: 0x100046310, symSize: 0x3C }
  - { offsetInCU: 0x3BF5D, offset: 0x3BF5D, size: 0x8, addend: 0x0, symName: __ZNSt3__14moveB8ue170006INS_16reverse_iteratorIP13orderJoinQdagEES4_EET0_T_S6_S5_, symObjAddr: 0x45AD0, symBinAddr: 0x100046414, symSize: 0x78 }
  - { offsetInCU: 0x3BFB7, offset: 0x3BFB7, size: 0x8, addend: 0x0, symName: __ZNSt3__16__moveB8ue170006INS_17_ClassicAlgPolicyENS_16reverse_iteratorIP13orderJoinQdagEES5_S5_EENS_4pairIT0_T2_EES7_T1_S8_, symObjAddr: 0x45B48, symBinAddr: 0x10004648C, symSize: 0x64 }
  - { offsetInCU: 0x3C023, offset: 0x3C023, size: 0x8, addend: 0x0, symName: __ZNSt3__123__dispatch_copy_or_moveB8ue170006INS_17_ClassicAlgPolicyENS_11__move_loopIS1_EENS_14__move_trivialENS_16reverse_iteratorIP13orderJoinQdagEES8_S8_EENS_4pairIT2_T4_EESA_T3_SB_, symObjAddr: 0x45BAC, symBinAddr: 0x1000464F0, symSize: 0x64 }
  - { offsetInCU: 0x3C0A1, offset: 0x3C0A1, size: 0x8, addend: 0x0, symName: __ZNSt3__121__unwrap_and_dispatchB8ue170006INS_10__overloadINS_11__move_loopINS_17_ClassicAlgPolicyEEENS_14__move_trivialEEENS_16reverse_iteratorIP13orderJoinQdagEESA_SA_Li0EEENS_4pairIT0_T2_EESC_T1_SD_, symObjAddr: 0x45C10, symBinAddr: 0x100046554, symSize: 0x12C }
  - { offsetInCU: 0x3C131, offset: 0x3C131, size: 0x8, addend: 0x0, symName: __ZNSt3__114__unwrap_rangeB8ue170006INS_16reverse_iteratorIP13orderJoinQdagEES4_EENS_4pairIT0_S6_EET_S8_, symObjAddr: 0x45D3C, symBinAddr: 0x100046680, symSize: 0x84 }
  - { offsetInCU: 0x3C251, offset: 0x3C251, size: 0x8, addend: 0x0, symName: __ZNSt3__113__unwrap_iterB8ue170006INS_16reverse_iteratorIP13orderJoinQdagEENS_18__unwrap_iter_implIS4_Lb0EEELi0EEEDTclsrT0_8__unwrapclsr3stdE7declvalIT_EEEES8_, symObjAddr: 0x45E68, symBinAddr: 0x1000467AC, symSize: 0x44 }
  - { offsetInCU: 0x3C295, offset: 0x3C295, size: 0x8, addend: 0x0, symName: __ZNSt3__19make_pairB8ue170006INS_16reverse_iteratorIP13orderJoinQdagEES4_EENS_4pairINS_18__unwrap_ref_decayIT_E4typeENS6_IT0_E4typeEEEOS7_OSA_, symObjAddr: 0x45EAC, symBinAddr: 0x1000467F0, symSize: 0x38 }
  - { offsetInCU: 0x3C2E4, offset: 0x3C2E4, size: 0x8, addend: 0x0, symName: __ZNSt3__114__rewrap_rangeB8ue170006INS_16reverse_iteratorIP13orderJoinQdagEES4_EET_S5_T0_, symObjAddr: 0x45EE4, symBinAddr: 0x100046828, symSize: 0x5C }
  - { offsetInCU: 0x3C330, offset: 0x3C330, size: 0x8, addend: 0x0, symName: __ZNSt3__113__rewrap_iterB8ue170006INS_16reverse_iteratorIP13orderJoinQdagEES4_NS_18__unwrap_iter_implIS4_Lb0EEEEET_S7_T0_, symObjAddr: 0x45F40, symBinAddr: 0x100046884, symSize: 0x74 }
  - { offsetInCU: 0x3C385, offset: 0x3C385, size: 0x8, addend: 0x0, symName: __ZNSt3__1neB8ue170006IP13orderJoinQdagS2_EEbRKNS_16reverse_iteratorIT_EERKNS3_IT0_EE, symObjAddr: 0x45FB4, symBinAddr: 0x1000468F8, symSize: 0x48 }
  - { offsetInCU: 0x3C43D, offset: 0x3C43D, size: 0x8, addend: 0x0, symName: __ZNSt3__111__push_heapB8ue170006INS_17_ClassicAlgPolicyENS_11__wrap_iterIP13orderJoinQdagEENS_4lessIS3_EEEEvT0_S8_RT1_, symObjAddr: 0x46344, symBinAddr: 0x100046C88, symSize: 0x5C }
  - { offsetInCU: 0x3C4AA, offset: 0x3C4AA, size: 0x8, addend: 0x0, symName: __ZNSt3__1miB8ue170006IP13orderJoinQdagS2_EEDTmicldtfp_4baseEcldtfp0_4baseEERKNS_11__wrap_iterIT_EERKNS4_IT0_EE, symObjAddr: 0x463A0, symBinAddr: 0x100046CE4, symSize: 0x48 }
  - { offsetInCU: 0x3C4F6, offset: 0x3C4F6, size: 0x8, addend: 0x0, symName: __ZNSt3__19__sift_upB8ue170006INS_17_ClassicAlgPolicyERNS_4lessI13orderJoinQdagEENS_11__wrap_iterIPS3_EEEEvT1_S9_OT0_NS_15iterator_traitsIS9_E15difference_typeE, symObjAddr: 0x463E8, symBinAddr: 0x100046D2C, symSize: 0x178 }
  - { offsetInCU: 0x3C5A6, offset: 0x3C5A6, size: 0x8, addend: 0x0, symName: __ZNSt3__18pop_heapB8ue170006INS_11__wrap_iterIP13orderJoinQdagEENS_4lessIS2_EEEEvT_S7_T0_, symObjAddr: 0x46748, symBinAddr: 0x10004708C, symSize: 0x58 }
  - { offsetInCU: 0x3C60A, offset: 0x3C60A, size: 0x8, addend: 0x0, symName: __ZNSt3__110__pop_heapB8ue170006INS_17_ClassicAlgPolicyENS_4lessI13orderJoinQdagEENS_11__wrap_iterIPS3_EEEEvT1_S8_RT0_NS_15iterator_traitsIS8_E15difference_typeE, symObjAddr: 0x467CC, symBinAddr: 0x100047110, symSize: 0x154 }
  - { offsetInCU: 0x3C6BB, offset: 0x3C6BB, size: 0x8, addend: 0x0, symName: __ZNSt3__1eqB8ue170006IP13orderJoinQdagEEbRKNS_11__wrap_iterIT_EES7_, symObjAddr: 0x46A74, symBinAddr: 0x1000473B8, symSize: 0x48 }
  - { offsetInCU: 0x3C6FE, offset: 0x3C6FE, size: 0x8, addend: 0x0, symName: __ZNSt3__13minB8ue170006IyEERKT_S3_S3_, symObjAddr: 0x47D20, symBinAddr: 0x100048664, symSize: 0x2C }
  - { offsetInCU: 0x3C741, offset: 0x3C741, size: 0x8, addend: 0x0, symName: __ZNSt3__13maxB8ue170006IyEERKT_S3_S3_, symObjAddr: 0x47DEC, symBinAddr: 0x100048730, symSize: 0x2C }
  - { offsetInCU: 0x3C784, offset: 0x3C784, size: 0x8, addend: 0x0, symName: __ZNSt3__13minB8ue170006IyNS_6__lessIvvEEEERKT_S5_S5_T0_, symObjAddr: 0x47E64, symBinAddr: 0x1000487A8, symSize: 0x54 }
  - { offsetInCU: 0x3C7DE, offset: 0x3C7DE, size: 0x8, addend: 0x0, symName: __ZNSt3__13maxB8ue170006IyNS_6__lessIvvEEEERKT_S5_S5_T0_, symObjAddr: 0x47EEC, symBinAddr: 0x100048830, symSize: 0x54 }
  - { offsetInCU: 0x3C838, offset: 0x3C838, size: 0x8, addend: 0x0, symName: __ZNSt3__18pop_heapB8ue170006INS_11__wrap_iterIP11qdagResultsEENS_4lessIS2_EEEEvT_S7_T0_, symObjAddr: 0x4856C, symBinAddr: 0x100048EB0, symSize: 0x58 }
  - { offsetInCU: 0x3C89C, offset: 0x3C89C, size: 0x8, addend: 0x0, symName: __ZNSt3__1miB8ue170006IP11qdagResultsS2_EEDTmicldtfp_4baseEcldtfp0_4baseEERKNS_11__wrap_iterIT_EERKNS4_IT0_EE, symObjAddr: 0x48650, symBinAddr: 0x100048F94, symSize: 0x48 }
  - { offsetInCU: 0x3C8E8, offset: 0x3C8E8, size: 0x8, addend: 0x0, symName: __ZNSt3__110__pop_heapB8ue170006INS_17_ClassicAlgPolicyENS_4lessI11qdagResultsEENS_11__wrap_iterIPS3_EEEEvT1_S8_RT0_NS_15iterator_traitsIS8_E15difference_typeE, symObjAddr: 0x48698, symBinAddr: 0x100048FDC, symSize: 0x134 }
  - { offsetInCU: 0x3C9BD, offset: 0x3C9BD, size: 0x8, addend: 0x0, symName: __ZNSt3__1eqB8ue170006IP11qdagResultsEEbRKNS_11__wrap_iterIT_EES7_, symObjAddr: 0x48978, symBinAddr: 0x1000492BC, symSize: 0x48 }
  - { offsetInCU: 0x3CA00, offset: 0x3CA00, size: 0x8, addend: 0x0, symName: __ZNSt3__19__sift_upB8ue170006INS_17_ClassicAlgPolicyERNS_4lessI11qdagResultsEENS_11__wrap_iterIPS3_EEEEvT1_S9_OT0_NS_15iterator_traitsIS9_E15difference_typeE, symObjAddr: 0x489F8, symBinAddr: 0x10004933C, symSize: 0x160 }
  - { offsetInCU: 0x3CAB0, offset: 0x3CAB0, size: 0x8, addend: 0x0, symName: __ZNSt3__19push_heapB8ue170006INS_11__wrap_iterIP11qdagResultsEENS_4lessIS2_EEEEvT_S7_T0_, symObjAddr: 0x48E14, symBinAddr: 0x100049758, symSize: 0x40 }
  - { offsetInCU: 0x3CB06, offset: 0x3CB06, size: 0x8, addend: 0x0, symName: __ZNSt3__119__allocate_at_leastB8ue170006INS_9allocatorI11qdagResultsEEEENS_19__allocation_resultINS_16allocator_traitsIT_E7pointerEEERS6_m, symObjAddr: 0x4959C, symBinAddr: 0x100049EE0, symSize: 0x40 }
  - { offsetInCU: 0x3CB49, offset: 0x3CB49, size: 0x8, addend: 0x0, symName: __ZNSt3__142__uninitialized_allocator_move_if_noexceptB8ue170006INS_9allocatorI11qdagResultsEENS_16reverse_iteratorIPS2_EES6_S2_vEET1_RT_T0_SA_S7_, symObjAddr: 0x4976C, symBinAddr: 0x10004A0B0, symSize: 0x78 }
  - { offsetInCU: 0x3CBC8, offset: 0x3CBC8, size: 0x8, addend: 0x0, symName: __ZNSt3__14swapB8ue170006IP11qdagResultsEENS_9enable_ifIXaasr21is_move_constructibleIT_EE5valuesr18is_move_assignableIS4_EE5valueEvE4typeERS4_S7_, symObjAddr: 0x49830, symBinAddr: 0x10004A174, symSize: 0x3C }
  - { offsetInCU: 0x3CC19, offset: 0x3CC19, size: 0x8, addend: 0x0, symName: __ZNSt3__14moveB8ue170006INS_16reverse_iteratorIP11qdagResultsEES4_EET0_T_S6_S5_, symObjAddr: 0x49918, symBinAddr: 0x10004A25C, symSize: 0x78 }
  - { offsetInCU: 0x3CC73, offset: 0x3CC73, size: 0x8, addend: 0x0, symName: __ZNSt3__16__moveB8ue170006INS_17_ClassicAlgPolicyENS_16reverse_iteratorIP11qdagResultsEES5_S5_EENS_4pairIT0_T2_EES7_T1_S8_, symObjAddr: 0x49990, symBinAddr: 0x10004A2D4, symSize: 0x64 }
  - { offsetInCU: 0x3CCDF, offset: 0x3CCDF, size: 0x8, addend: 0x0, symName: __ZNSt3__123__dispatch_copy_or_moveB8ue170006INS_17_ClassicAlgPolicyENS_11__move_loopIS1_EENS_14__move_trivialENS_16reverse_iteratorIP11qdagResultsEES8_S8_EENS_4pairIT2_T4_EESA_T3_SB_, symObjAddr: 0x499F4, symBinAddr: 0x10004A338, symSize: 0x64 }
  - { offsetInCU: 0x3CD5D, offset: 0x3CD5D, size: 0x8, addend: 0x0, symName: __ZNSt3__121__unwrap_and_dispatchB8ue170006INS_10__overloadINS_11__move_loopINS_17_ClassicAlgPolicyEEENS_14__move_trivialEEENS_16reverse_iteratorIP11qdagResultsEESA_SA_Li0EEENS_4pairIT0_T2_EESC_T1_SD_, symObjAddr: 0x49A58, symBinAddr: 0x10004A39C, symSize: 0x12C }
  - { offsetInCU: 0x3CDED, offset: 0x3CDED, size: 0x8, addend: 0x0, symName: __ZNSt3__114__unwrap_rangeB8ue170006INS_16reverse_iteratorIP11qdagResultsEES4_EENS_4pairIT0_S6_EET_S8_, symObjAddr: 0x49B84, symBinAddr: 0x10004A4C8, symSize: 0x84 }
  - { offsetInCU: 0x3CF0D, offset: 0x3CF0D, size: 0x8, addend: 0x0, symName: __ZNSt3__113__unwrap_iterB8ue170006INS_16reverse_iteratorIP11qdagResultsEENS_18__unwrap_iter_implIS4_Lb0EEELi0EEEDTclsrT0_8__unwrapclsr3stdE7declvalIT_EEEES8_, symObjAddr: 0x49CA8, symBinAddr: 0x10004A5EC, symSize: 0x44 }
  - { offsetInCU: 0x3CF51, offset: 0x3CF51, size: 0x8, addend: 0x0, symName: __ZNSt3__19make_pairB8ue170006INS_16reverse_iteratorIP11qdagResultsEES4_EENS_4pairINS_18__unwrap_ref_decayIT_E4typeENS6_IT0_E4typeEEEOS7_OSA_, symObjAddr: 0x49CEC, symBinAddr: 0x10004A630, symSize: 0x38 }
  - { offsetInCU: 0x3CFA0, offset: 0x3CFA0, size: 0x8, addend: 0x0, symName: __ZNSt3__114__rewrap_rangeB8ue170006INS_16reverse_iteratorIP11qdagResultsEES4_EET_S5_T0_, symObjAddr: 0x49D24, symBinAddr: 0x10004A668, symSize: 0x5C }
  - { offsetInCU: 0x3CFEC, offset: 0x3CFEC, size: 0x8, addend: 0x0, symName: __ZNSt3__113__rewrap_iterB8ue170006INS_16reverse_iteratorIP11qdagResultsEES4_NS_18__unwrap_iter_implIS4_Lb0EEEEET_S7_T0_, symObjAddr: 0x49D80, symBinAddr: 0x10004A6C4, symSize: 0x74 }
  - { offsetInCU: 0x3D041, offset: 0x3D041, size: 0x8, addend: 0x0, symName: __ZNSt3__1neB8ue170006IP11qdagResultsS2_EEbRKNS_16reverse_iteratorIT_EERKNS3_IT0_EE, symObjAddr: 0x49DF4, symBinAddr: 0x10004A738, symSize: 0x48 }
  - { offsetInCU: 0x3D0D5, offset: 0x3D0D5, size: 0x8, addend: 0x0, symName: __ZNSt3__111__push_heapB8ue170006INS_17_ClassicAlgPolicyENS_11__wrap_iterIP11qdagResultsEENS_4lessIS3_EEEEvT0_S8_RT1_, symObjAddr: 0x4A184, symBinAddr: 0x10004AAC8, symSize: 0x5C }
  - { offsetInCU: 0x3D143, offset: 0x3D143, size: 0x8, addend: 0x0, symName: __ZNSt3__112__to_addressB8ue170006INS_6vectorIyNS_9allocatorIyEEEEEEPT_S6_, symObjAddr: 0x4A72C, symBinAddr: 0x10004B070, symSize: 0x14 }
  - { offsetInCU: 0x3D178, offset: 0x3D178, size: 0x8, addend: 0x0, symName: __ZNSt3__119__allocate_at_leastB8ue170006INS_9allocatorINS_6vectorIyNS1_IyEEEEEEEENS_19__allocation_resultINS_16allocator_traitsIT_E7pointerEEERS8_m, symObjAddr: 0x4AD48, symBinAddr: 0x10004B68C, symSize: 0x40 }
  - { offsetInCU: 0x3D1BB, offset: 0x3D1BB, size: 0x8, addend: 0x0, symName: __ZNSt3__142__uninitialized_allocator_move_if_noexceptB8ue170006INS_9allocatorINS_6vectorIyNS1_IyEEEEEENS_16reverse_iteratorIPS4_EES8_S8_EET2_RT_T0_T1_S9_, symObjAddr: 0x4AFD4, symBinAddr: 0x10004B918, symSize: 0x12C }
  - { offsetInCU: 0x3D25C, offset: 0x3D25C, size: 0x8, addend: 0x0, symName: __ZNSt3__14swapB8ue170006IPNS_6vectorIyNS_9allocatorIyEEEEEENS_9enable_ifIXaasr21is_move_constructibleIT_EE5valuesr18is_move_assignableIS7_EE5valueEvE4typeERS7_SA_, symObjAddr: 0x4B14C, symBinAddr: 0x10004BA90, symSize: 0x3C }
  - { offsetInCU: 0x3D2AD, offset: 0x3D2AD, size: 0x8, addend: 0x0, symName: __ZNSt3__122__make_exception_guardB8ue170006INS_29_AllocatorDestroyRangeReverseINS_9allocatorINS_6vectorIyNS2_IyEEEEEENS_16reverse_iteratorIPS5_EEEEEENS_28__exception_guard_exceptionsIT_EESC_, symObjAddr: 0x4B298, symBinAddr: 0x10004BBDC, symSize: 0x4C }
  - { offsetInCU: 0x3D2E3, offset: 0x3D2E3, size: 0x8, addend: 0x0, symName: __ZNSt3__1neB8ue170006IPNS_6vectorIyNS_9allocatorIyEEEES5_EEbRKNS_16reverse_iteratorIT_EERKNS6_IT0_EE, symObjAddr: 0x4B328, symBinAddr: 0x10004BC6C, symSize: 0x48 }
  - { offsetInCU: 0x3D32F, offset: 0x3D32F, size: 0x8, addend: 0x0, symName: __ZNSt3__112__to_addressB8ue170006INS_16reverse_iteratorIPNS_6vectorIyNS_9allocatorIyEEEEEEvEEu7__decayIDTclsr19__to_address_helperIT_EE6__callclsr3stdE7declvalIRKS8_EEEEESA_, symObjAddr: 0x4B3A4, symBinAddr: 0x10004BCE8, symSize: 0x24 }
  - { offsetInCU: 0x3D38E, offset: 0x3D38E, size: 0x8, addend: 0x0, symName: __ZNSt3__119__allocator_destroyB8ue170006INS_9allocatorINS_6vectorIyNS1_IyEEEEEENS_16reverse_iteratorINS6_IPS4_EEEES9_EEvRT_T0_T1_, symObjAddr: 0x4B77C, symBinAddr: 0x10004C0C0, symSize: 0x70 }
  - { offsetInCU: 0x3D3F3, offset: 0x3D3F3, size: 0x8, addend: 0x0, symName: __ZNSt3__1neB8ue170006INS_16reverse_iteratorIPNS_6vectorIyNS_9allocatorIyEEEEEES7_EEbRKNS1_IT_EERKNS1_IT0_EE, symObjAddr: 0x4B828, symBinAddr: 0x10004C16C, symSize: 0x60 }
  - { offsetInCU: 0x3D43F, offset: 0x3D43F, size: 0x8, addend: 0x0, symName: __ZNSt3__112__to_addressB8ue170006INS_16reverse_iteratorINS1_IPNS_6vectorIyNS_9allocatorIyEEEEEEEEvEEu7__decayIDTclsr19__to_address_helperIT_EE6__callclsr3stdE7declvalIRKS9_EEEEESB_, symObjAddr: 0x4B8B4, symBinAddr: 0x10004C1F8, symSize: 0x24 }
  - { offsetInCU: 0x3D49E, offset: 0x3D49E, size: 0x8, addend: 0x0, symName: __ZNSt3__122__make_exception_guardB8ue170006INS_6vectorI4qdagNS_9allocatorIS2_EEE16__destroy_vectorEEENS_28__exception_guard_exceptionsIT_EES8_, symObjAddr: 0x4BDCC, symBinAddr: 0x10004C710, symSize: 0x40 }
  - { offsetInCU: 0x3D4D3, offset: 0x3D4D3, size: 0x8, addend: 0x0, symName: __ZNSt3__119__allocate_at_leastB8ue170006INS_9allocatorI4qdagEEEENS_19__allocation_resultINS_16allocator_traitsIT_E7pointerEEERS6_m, symObjAddr: 0x4C1C0, symBinAddr: 0x10004CB04, symSize: 0x40 }
  - { offsetInCU: 0x3D517, offset: 0x3D517, size: 0x8, addend: 0x0, symName: __ZNSt3__112__to_addressB8ue170006I4qdagEEPT_S3_, symObjAddr: 0x4C508, symBinAddr: 0x10004CE4C, symSize: 0x14 }
  - { offsetInCU: 0x3D54C, offset: 0x3D54C, size: 0x8, addend: 0x0, symName: __ZNSt3__122__make_exception_guardB8ue170006INS_6vectorI10qdag_dfudsNS_9allocatorIS2_EEE16__destroy_vectorEEENS_28__exception_guard_exceptionsIT_EES8_, symObjAddr: 0x4CB38, symBinAddr: 0x10004D47C, symSize: 0x40 }
  - { offsetInCU: 0x3D581, offset: 0x3D581, size: 0x8, addend: 0x0, symName: __ZNSt3__119__allocate_at_leastB8ue170006INS_9allocatorI10qdag_dfudsEEEENS_19__allocation_resultINS_16allocator_traitsIT_E7pointerEEERS6_m, symObjAddr: 0x4CF2C, symBinAddr: 0x10004D870, symSize: 0x40 }
  - { offsetInCU: 0x3D5C5, offset: 0x3D5C5, size: 0x8, addend: 0x0, symName: __ZNSt3__112__to_addressB8ue170006I10qdag_dfudsEEPT_S3_, symObjAddr: 0x4D274, symBinAddr: 0x10004DBB8, symSize: 0x14 }
  - { offsetInCU: 0x3D5FA, offset: 0x3D5FA, size: 0x8, addend: 0x0, symName: __ZNSt3__17getlineB8ue170006IcNS_11char_traitsIcEENS_9allocatorIcEEEERNS_13basic_istreamIT_T0_EES9_RNS_12basic_stringIS6_S7_T1_EES6_, symObjAddr: 0x4D7B8, symBinAddr: 0x10004E0FC, symSize: 0x238 }
  - { offsetInCU: 0x3D6B9, offset: 0x3D6B9, size: 0x8, addend: 0x0, symName: __ZNSt3__112__to_addressB8ue170006IN4sdsl10int_vectorILh0EEEEEPT_S5_, symObjAddr: 0x4E110, symBinAddr: 0x10004EA54, symSize: 0x14 }
  - { offsetInCU: 0x3D6EE, offset: 0x3D6EE, size: 0x8, addend: 0x0, symName: __ZNSt3__119__allocate_at_leastB8ue170006INS_9allocatorIN4sdsl10int_vectorILh0EEEEEEENS_19__allocation_resultINS_16allocator_traitsIT_E7pointerEEERS8_m, symObjAddr: 0x4EB34, symBinAddr: 0x10004F478, symSize: 0x40 }
  - { offsetInCU: 0x3D731, offset: 0x3D731, size: 0x8, addend: 0x0, symName: __ZNSt3__142__uninitialized_allocator_move_if_noexceptB8ue170006INS_9allocatorIN4sdsl10int_vectorILh0EEEEENS_16reverse_iteratorIPS4_EES8_S8_EET2_RT_T0_T1_S9_, symObjAddr: 0x4ECE8, symBinAddr: 0x10004F62C, symSize: 0x12C }
  - { offsetInCU: 0x3D7D1, offset: 0x3D7D1, size: 0x8, addend: 0x0, symName: __ZNSt3__122__make_exception_guardB8ue170006INS_29_AllocatorDestroyRangeReverseINS_9allocatorIN4sdsl10int_vectorILh0EEEEENS_16reverse_iteratorIPS5_EEEEEENS_28__exception_guard_exceptionsIT_EESC_, symObjAddr: 0x4EF0C, symBinAddr: 0x10004F850, symSize: 0x4C }
  - { offsetInCU: 0x3D807, offset: 0x3D807, size: 0x8, addend: 0x0, symName: __ZNSt3__1neB8ue170006IPN4sdsl10int_vectorILh0EEES4_EEbRKNS_16reverse_iteratorIT_EERKNS5_IT0_EE, symObjAddr: 0x4EF9C, symBinAddr: 0x10004F8E0, symSize: 0x48 }
  - { offsetInCU: 0x3D853, offset: 0x3D853, size: 0x8, addend: 0x0, symName: __ZNSt3__112__to_addressB8ue170006INS_16reverse_iteratorIPN4sdsl10int_vectorILh0EEEEEvEEu7__decayIDTclsr19__to_address_helperIT_EE6__callclsr3stdE7declvalIRKS7_EEEEES9_, symObjAddr: 0x4EFE4, symBinAddr: 0x10004F928, symSize: 0x24 }
  - { offsetInCU: 0x3D8B2, offset: 0x3D8B2, size: 0x8, addend: 0x0, symName: __ZNSt3__119__allocator_destroyB8ue170006INS_9allocatorIN4sdsl10int_vectorILh0EEEEENS_16reverse_iteratorINS6_IPS4_EEEES9_EEvRT_T0_T1_, symObjAddr: 0x4F294, symBinAddr: 0x10004FBD8, symSize: 0x70 }
  - { offsetInCU: 0x3D917, offset: 0x3D917, size: 0x8, addend: 0x0, symName: __ZNSt3__1neB8ue170006INS_16reverse_iteratorIPN4sdsl10int_vectorILh0EEEEES6_EEbRKNS1_IT_EERKNS1_IT0_EE, symObjAddr: 0x4F340, symBinAddr: 0x10004FC84, symSize: 0x60 }
  - { offsetInCU: 0x3D963, offset: 0x3D963, size: 0x8, addend: 0x0, symName: __ZNSt3__112__to_addressB8ue170006INS_16reverse_iteratorINS1_IPN4sdsl10int_vectorILh0EEEEEEEvEEu7__decayIDTclsr19__to_address_helperIT_EE6__callclsr3stdE7declvalIRKS8_EEEEESA_, symObjAddr: 0x4F3A0, symBinAddr: 0x10004FCE4, symSize: 0x24 }
  - { offsetInCU: 0x3D9C3, offset: 0x3D9C3, size: 0x8, addend: 0x0, symName: __ZNSt3__112__to_addressB8ue170006IN4sdsl16rmq_succinct_sctILb0ENS1_15bp_support_sadaILj256ELj32ENS1_15rank_support_v5ILh1ELh1EEENS1_18select_support_mclILh1ELh1EEEEEEEEEPT_SB_, symObjAddr: 0x4FBD0, symBinAddr: 0x100050514, symSize: 0x14 }
  - { offsetInCU: 0x3D9F8, offset: 0x3D9F8, size: 0x8, addend: 0x0, symName: __ZNSt3__119__allocate_at_leastB8ue170006INS_9allocatorIN4sdsl16rmq_succinct_sctILb0ENS2_15bp_support_sadaILj256ELj32ENS2_15rank_support_v5ILh1ELh1EEENS2_18select_support_mclILh1ELh1EEEEEEEEEEENS_19__allocation_resultINS_16allocator_traitsIT_E7pointerEEERSE_m, symObjAddr: 0x51C8C, symBinAddr: 0x1000525D0, symSize: 0x40 }
  - { offsetInCU: 0x3DA3B, offset: 0x3DA3B, size: 0x8, addend: 0x0, symName: __ZNSt3__142__uninitialized_allocator_move_if_noexceptB8ue170006INS_9allocatorIN4sdsl16rmq_succinct_sctILb0ENS2_15bp_support_sadaILj256ELj32ENS2_15rank_support_v5ILh1ELh1EEENS2_18select_support_mclILh1ELh1EEEEEEEEENS_16reverse_iteratorIPSA_EESE_SE_EET2_RT_T0_T1_SF_, symObjAddr: 0x51E44, symBinAddr: 0x100052788, symSize: 0x12C }
  - { offsetInCU: 0x3DADC, offset: 0x3DADC, size: 0x8, addend: 0x0, symName: __ZNSt3__14swapB8ue170006IPN4sdsl16rmq_succinct_sctILb0ENS1_15bp_support_sadaILj256ELj32ENS1_15rank_support_v5ILh1ELh1EEENS1_18select_support_mclILh1ELh1EEEEEEEEENS_9enable_ifIXaasr21is_move_constructibleIT_EE5valuesr18is_move_assignableISC_EE5valueEvE4typeERSC_SF_, symObjAddr: 0x51FBC, symBinAddr: 0x100052900, symSize: 0x3C }
  - { offsetInCU: 0x3DB2D, offset: 0x3DB2D, size: 0x8, addend: 0x0, symName: __ZNSt3__122__make_exception_guardB8ue170006INS_29_AllocatorDestroyRangeReverseINS_9allocatorIN4sdsl16rmq_succinct_sctILb0ENS3_15bp_support_sadaILj256ELj32ENS3_15rank_support_v5ILh1ELh1EEENS3_18select_support_mclILh1ELh1EEEEEEEEENS_16reverse_iteratorIPSB_EEEEEENS_28__exception_guard_exceptionsIT_EESI_, symObjAddr: 0x520C0, symBinAddr: 0x100052A04, symSize: 0x4C }
  - { offsetInCU: 0x3DB63, offset: 0x3DB63, size: 0x8, addend: 0x0, symName: __ZNSt3__1neB8ue170006IPN4sdsl16rmq_succinct_sctILb0ENS1_15bp_support_sadaILj256ELj32ENS1_15rank_support_v5ILh1ELh1EEENS1_18select_support_mclILh1ELh1EEEEEEESA_EEbRKNS_16reverse_iteratorIT_EERKNSB_IT0_EE, symObjAddr: 0x52150, symBinAddr: 0x100052A94, symSize: 0x48 }
  - { offsetInCU: 0x3DBAF, offset: 0x3DBAF, size: 0x8, addend: 0x0, symName: __ZNSt3__112__to_addressB8ue170006INS_16reverse_iteratorIPN4sdsl16rmq_succinct_sctILb0ENS2_15bp_support_sadaILj256ELj32ENS2_15rank_support_v5ILh1ELh1EEENS2_18select_support_mclILh1ELh1EEEEEEEEEvEEu7__decayIDTclsr19__to_address_helperIT_EE6__callclsr3stdE7declvalIRKSD_EEEEESF_, symObjAddr: 0x521CC, symBinAddr: 0x100052B10, symSize: 0x24 }
  - { offsetInCU: 0x3DC0E, offset: 0x3DC0E, size: 0x8, addend: 0x0, symName: __ZNSt3__119__allocator_destroyB8ue170006INS_9allocatorIN4sdsl16rmq_succinct_sctILb0ENS2_15bp_support_sadaILj256ELj32ENS2_15rank_support_v5ILh1ELh1EEENS2_18select_support_mclILh1ELh1EEEEEEEEENS_16reverse_iteratorINSC_IPSA_EEEESF_EEvRT_T0_T1_, symObjAddr: 0x52FB0, symBinAddr: 0x1000538F4, symSize: 0x70 }
  - { offsetInCU: 0x3DC73, offset: 0x3DC73, size: 0x8, addend: 0x0, symName: __ZNSt3__1neB8ue170006INS_16reverse_iteratorIPN4sdsl16rmq_succinct_sctILb0ENS2_15bp_support_sadaILj256ELj32ENS2_15rank_support_v5ILh1ELh1EEENS2_18select_support_mclILh1ELh1EEEEEEEEESC_EEbRKNS1_IT_EERKNS1_IT0_EE, symObjAddr: 0x5305C, symBinAddr: 0x1000539A0, symSize: 0x60 }
  - { offsetInCU: 0x3DCBF, offset: 0x3DCBF, size: 0x8, addend: 0x0, symName: __ZNSt3__112__to_addressB8ue170006INS_16reverse_iteratorINS1_IPN4sdsl16rmq_succinct_sctILb0ENS2_15bp_support_sadaILj256ELj32ENS2_15rank_support_v5ILh1ELh1EEENS2_18select_support_mclILh1ELh1EEEEEEEEEEEvEEu7__decayIDTclsr19__to_address_helperIT_EE6__callclsr3stdE7declvalIRKSE_EEEEESG_, symObjAddr: 0x530BC, symBinAddr: 0x100053A00, symSize: 0x24 }
  - { offsetInCU: 0x3EAD5, offset: 0x3EAD5, size: 0x8, addend: 0x0, symName: __ZSt28__throw_bad_array_new_lengthB8ue170006v, symObjAddr: 0x12658, symBinAddr: 0x100012F9C, symSize: 0x34 }
  - { offsetInCU: 0x3ED20, offset: 0x3ED20, size: 0x8, addend: 0x0, symName: _stop_select, symObjAddr: 0x209F58, symBinAddr: 0x10006C0E0, symSize: 0x0 }
  - { offsetInCU: 0x3ED35, offset: 0x3ED35, size: 0x8, addend: 0x0, symName: _total_time_select, symObjAddr: 0x209F60, symBinAddr: 0x10006C0E8, symSize: 0x0 }
  - { offsetInCU: 0x3ED51, offset: 0x3ED51, size: 0x8, addend: 0x0, symName: _time_span_select, symObjAddr: 0x209F68, symBinAddr: 0x10006C0F0, symSize: 0x0 }
  - { offsetInCU: 0x3F0A7, offset: 0x3F0A7, size: 0x8, addend: 0x0, symName: __ZN4sdsl14memory_manager11the_managerEv, symObjAddr: 0x14ED8, symBinAddr: 0x10001581C, symSize: 0xC }
  - { offsetInCU: 0x3F0C8, offset: 0x3F0C8, size: 0x8, addend: 0x0, symName: __ZZN4sdsl14memory_manager11the_managerEvE1m, symObjAddr: 0x55728, symBinAddr: 0x10006C000, symSize: 0x0 }
  - { offsetInCU: 0x3F3FC, offset: 0x3F3FC, size: 0x8, addend: 0x0, symName: __ZN4sdsl18hugepage_allocator13the_allocatorEv, symObjAddr: 0x14EE4, symBinAddr: 0x100015828, symSize: 0x90 }
  - { offsetInCU: 0x3F41D, offset: 0x3F41D, size: 0x8, addend: 0x0, symName: __ZZN4sdsl18hugepage_allocator13the_allocatorEvE1a, symObjAddr: 0x55730, symBinAddr: 0x10006C008, symSize: 0x0 }
  - { offsetInCU: 0x3F9CA, offset: 0x3F9CA, size: 0x8, addend: 0x0, symName: __ZN4sdsl14memory_monitor11the_monitorEv, symObjAddr: 0x157E0, symBinAddr: 0x100016124, symSize: 0xB8 }
  - { offsetInCU: 0x3F9E9, offset: 0x3F9E9, size: 0x8, addend: 0x0, symName: __ZZN4sdsl14memory_monitor11the_monitorEvE1m, symObjAddr: 0x55770, symBinAddr: 0x10006C048, symSize: 0x0 }
  - { offsetInCU: 0x40769, offset: 0x40769, size: 0x8, addend: 0x0, symName: __ZNK4sdsl15bp_support_sadaILj256ELj32ENS_15rank_support_v5ILh1ELh1EEENS_18select_support_mclILh1ELh1EEEE3rmqEyy, symObjAddr: 0x4751C, symBinAddr: 0x100047E60, symSize: 0x608 }
  - { offsetInCU: 0x4090A, offset: 0x4090A, size: 0x8, addend: 0x0, symName: __Z3powB8ue170006IhtENSt3__19enable_ifIXaasr3std13is_arithmeticIT_EE5valuesr3std13is_arithmeticIT0_EE5valueENS0_9__promoteIS2_S3_vEEE4type4typeES2_S3_, symObjAddr: 0x10E48, symBinAddr: 0x10001178C, symSize: 0x34 }
  - { offsetInCU: 0x40D98, offset: 0x40D98, size: 0x8, addend: 0x0, symName: __ZNSt3__16vectorIyNS_9allocatorIyEEE26__swap_out_circular_bufferERNS_14__split_bufferIyRS2_EE, symObjAddr: 0x13474, symBinAddr: 0x100013DB8, symSize: 0x110 }
  - { offsetInCU: 0x4103C, offset: 0x4103C, size: 0x8, addend: 0x0, symName: __ZNSt3__16vectorIN4sdsl14memory_monitor8mm_eventENS_9allocatorIS3_EEE26__swap_out_circular_bufferERNS_14__split_bufferIS3_RS5_EE, symObjAddr: 0x188A8, symBinAddr: 0x1000191EC, symSize: 0x110 }
  - { offsetInCU: 0x410DE, offset: 0x410DE, size: 0x8, addend: 0x0, symName: __ZNKSt3__16chrono15__duration_castINS0_8durationIxNS_5ratioILl1ELl1000EEEEENS2_IxNS3_ILl1ELl1000000000EEEEENS3_ILl1000000ELl1EEELb0ELb1EEclB8ue170006ERKS5_, symObjAddr: 0x19FA0, symBinAddr: 0x10001A8E4, symSize: 0x4C }
  - { offsetInCU: 0x4111D, offset: 0x4111D, size: 0x8, addend: 0x0, symName: __ZNSt3__16vectorIN4sdsl14memory_monitor8mm_allocENS_9allocatorIS3_EEE26__swap_out_circular_bufferERNS_14__split_bufferIS3_RS5_EE, symObjAddr: 0x1A4E8, symBinAddr: 0x10001AE2C, symSize: 0x110 }
  - { offsetInCU: 0x41195, offset: 0x41195, size: 0x8, addend: 0x0, symName: __Z3powB8ue170006IhhENSt3__19enable_ifIXaasr3std13is_arithmeticIT_EE5valuesr3std13is_arithmeticIT0_EE5valueENS0_9__promoteIS2_S3_vEEE4type4typeES2_S3_, symObjAddr: 0x12ED4, symBinAddr: 0x100013818, symSize: 0x34 }
  - { offsetInCU: 0x41778, offset: 0x41778, size: 0x8, addend: 0x0, symName: __Z3powB8ue170006IhiENSt3__19enable_ifIXaasr3std13is_arithmeticIT_EE5valuesr3std13is_arithmeticIT0_EE5valueENS0_9__promoteIS2_S3_vEEE4type4typeES2_S3_, symObjAddr: 0x238DC, symBinAddr: 0x100024220, symSize: 0x3C }
  - { offsetInCU: 0x421E1, offset: 0x421E1, size: 0x8, addend: 0x0, symName: __ZNKSt3__16chrono15__duration_castINS0_8durationIxNS_5ratioILl1ELl1000000000EEEEENS2_IxNS3_ILl1ELl1000000EEEEENS3_ILl1ELl1000EEELb1ELb0EEclB8ue170006ERKS5_, symObjAddr: 0x38E44, symBinAddr: 0x100039788, symSize: 0x48 }
  - { offsetInCU: 0x4222A, offset: 0x4222A, size: 0x8, addend: 0x0, symName: __ZNKSt3__16chrono15__duration_castINS0_8durationIxNS_5ratioILl1ELl1000000EEEEENS2_IdNS3_ILl1ELl1EEEEES4_Lb1ELb0EEclB8ue170006ERKS5_, symObjAddr: 0x38F68, symBinAddr: 0x1000398AC, symSize: 0x50 }
  - { offsetInCU: 0x4244D, offset: 0x4244D, size: 0x8, addend: 0x0, symName: __ZNSt3__16vectorIP16quadtree_formulaNS_9allocatorIS2_EEE26__swap_out_circular_bufferERNS_14__split_bufferIS2_RS4_EE, symObjAddr: 0x3C800, symBinAddr: 0x10003D144, symSize: 0x110 }
  - { offsetInCU: 0x43671, offset: 0x43671, size: 0x8, addend: 0x0, symName: __ZNSt3__16vectorIPtNS_9allocatorIS1_EEE26__swap_out_circular_bufferERNS_14__split_bufferIS1_RS3_EE, symObjAddr: 0x4238C, symBinAddr: 0x100042CD0, symSize: 0x110 }
  - { offsetInCU: 0x436C9, offset: 0x436C9, size: 0x8, addend: 0x0, symName: __ZNSt3__16vectorI10qdagWeightNS_9allocatorIS1_EEE26__swap_out_circular_bufferERNS_14__split_bufferIS1_RS3_EE, symObjAddr: 0x439C4, symBinAddr: 0x100044308, symSize: 0x110 }
  - { offsetInCU: 0x43721, offset: 0x43721, size: 0x8, addend: 0x0, symName: __ZNSt3__16vectorI13orderJoinQdagNS_9allocatorIS1_EEE26__swap_out_circular_bufferERNS_14__split_bufferIS1_RS3_EE, symObjAddr: 0x453E0, symBinAddr: 0x100045D24, symSize: 0x110 }
  - { offsetInCU: 0x43779, offset: 0x43779, size: 0x8, addend: 0x0, symName: __ZNSt3__16vectorI11qdagResultsNS_9allocatorIS1_EEE26__swap_out_circular_bufferERNS_14__split_bufferIS1_RS3_EE, symObjAddr: 0x4923C, symBinAddr: 0x100049B80, symSize: 0x110 }
  - { offsetInCU: 0x440C4, offset: 0x440C4, size: 0x8, addend: 0x0, symName: __ZNSt3__16vectorINS0_IyNS_9allocatorIyEEEENS1_IS3_EEE26__swap_out_circular_bufferERNS_14__split_bufferIS3_RS4_EE, symObjAddr: 0x4A938, symBinAddr: 0x10004B27C, symSize: 0x110 }
  - { offsetInCU: 0x44318, offset: 0x44318, size: 0x8, addend: 0x0, symName: __ZNSt3__16vectorIN4sdsl10int_vectorILh0EEENS_9allocatorIS3_EEE26__swap_out_circular_bufferERNS_14__split_bufferIS3_RS5_EE, symObjAddr: 0x4E7D4, symBinAddr: 0x10004F118, symSize: 0x110 }
  - { offsetInCU: 0x4452F, offset: 0x4452F, size: 0x8, addend: 0x0, symName: __ZNSt3__16vectorIN4sdsl16rmq_succinct_sctILb0ENS1_15bp_support_sadaILj256ELj32ENS1_15rank_support_v5ILh1ELh1EEENS1_18select_support_mclILh1ELh1EEEEEEENS_9allocatorIS9_EEE26__swap_out_circular_bufferERNS_14__split_bufferIS9_RSB_EE, symObjAddr: 0x51914, symBinAddr: 0x100052258, symSize: 0x110 }
  - { offsetInCU: 0x46A12, offset: 0x46A12, size: 0x8, addend: 0x0, symName: __ZN4sdsl10int_vectorILh1EE4swapERS1_, symObjAddr: 0x40, symBinAddr: 0x100000984, symSize: 0xA4 }
  - { offsetInCU: 0x46A84, offset: 0x46A84, size: 0x8, addend: 0x0, symName: __Z13compare_pairsRKNSt3__14pairIyyEES3_, symObjAddr: 0xE4, symBinAddr: 0x100000A28, symSize: 0x30 }
  - { offsetInCU: 0x46ABF, offset: 0x46ABF, size: 0x8, addend: 0x0, symName: __Z19compare_pairs_dfudsRKNSt3__14pairIyyEES3_, symObjAddr: 0x114, symBinAddr: 0x100000A58, symSize: 0x30 }
  - { offsetInCU: 0x46AF9, offset: 0x46AF9, size: 0x8, addend: 0x0, symName: __Z8ANDCountPP4qdagPytttRyy, symObjAddr: 0x144, symBinAddr: 0x100000A88, symSize: 0x534 }
  - { offsetInCU: 0x46C55, offset: 0x46C55, size: 0x8, addend: 0x0, symName: __ZN4qdag9nChildrenEv, symObjAddr: 0x678, symBinAddr: 0x100000FBC, symSize: 0x18 }
  - { offsetInCU: 0x46C7B, offset: 0x46C7B, size: 0x8, addend: 0x0, symName: __ZN4qdag28materialize_node_3_lastlevelEyy, symObjAddr: 0x690, symBinAddr: 0x100000FD4, symSize: 0x54 }
  - { offsetInCU: 0x46CBF, offset: 0x46CBF, size: 0x8, addend: 0x0, symName: __ZN4qdag28materialize_node_4_lastlevelEyy, symObjAddr: 0x6E4, symBinAddr: 0x100001028, symSize: 0x54 }
  - { offsetInCU: 0x46D03, offset: 0x46D03, size: 0x8, addend: 0x0, symName: __ZN4qdag28materialize_node_5_lastlevelEyy, symObjAddr: 0x738, symBinAddr: 0x10000107C, symSize: 0x54 }
  - { offsetInCU: 0x46D47, offset: 0x46D47, size: 0x8, addend: 0x0, symName: __ZN4sdsl4bits3cntEy, symObjAddr: 0x78C, symBinAddr: 0x1000010D0, symSize: 0x68 }
  - { offsetInCU: 0x46D6B, offset: 0x46D6B, size: 0x8, addend: 0x0, symName: __ZN4qdag5getKDEv, symObjAddr: 0x7F4, symBinAddr: 0x100001138, symSize: 0x28 }
  - { offsetInCU: 0x46D91, offset: 0x46D91, size: 0x8, addend: 0x0, symName: __ZN4qdag18materialize_node_3EyyPy, symObjAddr: 0x81C, symBinAddr: 0x100001160, symSize: 0x80 }
  - { offsetInCU: 0x46DF3, offset: 0x46DF3, size: 0x8, addend: 0x0, symName: __ZN4qdag18materialize_node_4EyyPy, symObjAddr: 0x89C, symBinAddr: 0x1000011E0, symSize: 0x80 }
  - { offsetInCU: 0x46E55, offset: 0x46E55, size: 0x8, addend: 0x0, symName: __ZN4qdag18materialize_node_5EyyPy, symObjAddr: 0x91C, symBinAddr: 0x100001260, symSize: 0x80 }
  - { offsetInCU: 0x46EB7, offset: 0x46EB7, size: 0x8, addend: 0x0, symName: __ZN4qdag4getMEt, symObjAddr: 0x99C, symBinAddr: 0x1000012E0, symSize: 0x24 }
  - { offsetInCU: 0x46EEB, offset: 0x46EEB, size: 0x8, addend: 0x0, symName: __Z11parANDCounttttPP4qdagPytttRyyS2_, symObjAddr: 0x9C0, symBinAddr: 0x100001304, symSize: 0x6CC }
  - { offsetInCU: 0x470DD, offset: 0x470DD, size: 0x8, addend: 0x0, symName: __Z3ANDPP4qdagPytttPNSt3__16vectorIyNS3_9allocatorIyEEEES2_yby, symObjAddr: 0x108C, symBinAddr: 0x1000019D0, symSize: 0x9B4 }
  - { offsetInCU: 0x4731B, offset: 0x4731B, size: 0x8, addend: 0x0, symName: __ZNKSt3__16vectorIyNS_9allocatorIyEEE4sizeB8ue170006Ev, symObjAddr: 0x1A40, symBinAddr: 0x100002384, symSize: 0x28 }
  - { offsetInCU: 0x47341, offset: 0x47341, size: 0x8, addend: 0x0, symName: __ZNSt3__16vectorIyNS_9allocatorIyEEE9push_backB8ue170006EOy, symObjAddr: 0x1A68, symBinAddr: 0x1000023AC, symSize: 0x6C }
  - { offsetInCU: 0x47378, offset: 0x47378, size: 0x8, addend: 0x0, symName: __ZN4qdag14get_num_leavesEty, symObjAddr: 0x1AD4, symBinAddr: 0x100002418, symSize: 0x38 }
  - { offsetInCU: 0x473F1, offset: 0x473F1, size: 0x8, addend: 0x0, symName: __ZNSt3__16bitsetILm64EEC1B8ue170006Ey, symObjAddr: 0x1B0C, symBinAddr: 0x100002450, symSize: 0x34 }
  - { offsetInCU: 0x47429, offset: 0x47429, size: 0x8, addend: 0x0, symName: __Z6parANDtttRNSt3__15mutexEPP4qdagPytttPNS_6vectorIyNS_9allocatorIyEEEES5_S5_yby, symObjAddr: 0x1B40, symBinAddr: 0x100002484, symSize: 0xAB0 }
  - { offsetInCU: 0x476CE, offset: 0x476CE, size: 0x8, addend: 0x0, symName: __Z14multiJoinCountRNSt3__16vectorI4qdagNS_9allocatorIS1_EEEE, symObjAddr: 0x25F0, symBinAddr: 0x100002F34, symSize: 0x540 }
  - { offsetInCU: 0x4780E, offset: 0x4780E, size: 0x8, addend: 0x0, symName: __ZNSt3__16vectorIyNS_9allocatorIyEEEC1B8ue170006Ev, symObjAddr: 0x2B30, symBinAddr: 0x100003474, symSize: 0x2C }
  - { offsetInCU: 0x47838, offset: 0x47838, size: 0x8, addend: 0x0, symName: __ZNSt3__13mapIyhNS_4lessIyEENS_9allocatorINS_4pairIKyhEEEEEC1B8ue170006Ev, symObjAddr: 0x2B5C, symBinAddr: 0x1000034A0, symSize: 0x2C }
  - { offsetInCU: 0x47862, offset: 0x47862, size: 0x8, addend: 0x0, symName: __ZNKSt3__16vectorI4qdagNS_9allocatorIS1_EEE4sizeB8ue170006Ev, symObjAddr: 0x2B88, symBinAddr: 0x1000034CC, symSize: 0x28 }
  - { offsetInCU: 0x47888, offset: 0x47888, size: 0x8, addend: 0x0, symName: __ZNSt3__16vectorI4qdagNS_9allocatorIS1_EEEixB8ue170006Em, symObjAddr: 0x2BB0, symBinAddr: 0x1000034F4, symSize: 0x2C }
  - { offsetInCU: 0x478BF, offset: 0x478BF, size: 0x8, addend: 0x0, symName: __ZN4qdag5nAttrEv, symObjAddr: 0x2BDC, symBinAddr: 0x100003520, symSize: 0x28 }
  - { offsetInCU: 0x478E5, offset: 0x478E5, size: 0x8, addend: 0x0, symName: __ZNSt3__13mapIyhNS_4lessIyEENS_9allocatorINS_4pairIKyhEEEEEixEOy, symObjAddr: 0x2C04, symBinAddr: 0x100003548, symSize: 0x80 }
  - { offsetInCU: 0x4791C, offset: 0x4791C, size: 0x8, addend: 0x0, symName: __ZN4qdag7getAttrEy, symObjAddr: 0x2C84, symBinAddr: 0x1000035C8, symSize: 0x34 }
  - { offsetInCU: 0x47950, offset: 0x47950, size: 0x8, addend: 0x0, symName: __ZNSt3__13mapIyhNS_4lessIyEENS_9allocatorINS_4pairIKyhEEEEE5beginB8ue170006Ev, symObjAddr: 0x2CB8, symBinAddr: 0x1000035FC, symSize: 0x38 }
  - { offsetInCU: 0x47976, offset: 0x47976, size: 0x8, addend: 0x0, symName: __ZNSt3__13mapIyhNS_4lessIyEENS_9allocatorINS_4pairIKyhEEEEE3endB8ue170006Ev, symObjAddr: 0x2D20, symBinAddr: 0x100003664, symSize: 0x38 }
  - { offsetInCU: 0x4799C, offset: 0x4799C, size: 0x8, addend: 0x0, symName: __ZNSt3__16vectorIyNS_9allocatorIyEEE9push_backB8ue170006ERKy, symObjAddr: 0x2D58, symBinAddr: 0x10000369C, symSize: 0x6C }
  - { offsetInCU: 0x479D3, offset: 0x479D3, size: 0x8, addend: 0x0, symName: __ZNKSt3__114__map_iteratorINS_15__tree_iteratorINS_12__value_typeIyhEEPNS_11__tree_nodeIS3_PvEElEEEptB8ue170006Ev, symObjAddr: 0x2DC4, symBinAddr: 0x100003708, symSize: 0x2C }
  - { offsetInCU: 0x479F9, offset: 0x479F9, size: 0x8, addend: 0x0, symName: __ZNSt3__114__map_iteratorINS_15__tree_iteratorINS_12__value_typeIyhEEPNS_11__tree_nodeIS3_PvEElEEEppB8ue170006Ei, symObjAddr: 0x2DF0, symBinAddr: 0x100003734, symSize: 0x34 }
  - { offsetInCU: 0x47A3A, offset: 0x47A3A, size: 0x8, addend: 0x0, symName: __ZN4qdag6extendERNSt3__16vectorIyNS0_9allocatorIyEEEE, symObjAddr: 0x2E24, symBinAddr: 0x100003768, symSize: 0x220 }
  - { offsetInCU: 0x47AFB, offset: 0x47AFB, size: 0x8, addend: 0x0, symName: __ZN4qdag18createTableExtend3Ev, symObjAddr: 0x3044, symBinAddr: 0x100003988, symSize: 0xF8 }
  - { offsetInCU: 0x47B5D, offset: 0x47B5D, size: 0x8, addend: 0x0, symName: __ZN4qdag18createTableExtend4Ev, symObjAddr: 0x313C, symBinAddr: 0x100003A80, symSize: 0x12C }
  - { offsetInCU: 0x47BBF, offset: 0x47BBF, size: 0x8, addend: 0x0, symName: __ZN4qdag18createTableExtend5Ev, symObjAddr: 0x3268, symBinAddr: 0x100003BAC, symSize: 0x128 }
  - { offsetInCU: 0x47C21, offset: 0x47C21, size: 0x8, addend: 0x0, symName: __ZNSt3__113basic_ostreamIcNS_11char_traitsIcEEElsB8ue170006EPFRS3_S4_E, symObjAddr: 0x33D8, symBinAddr: 0x100003D1C, symSize: 0x2C }
  - { offsetInCU: 0x47C55, offset: 0x47C55, size: 0x8, addend: 0x0, symName: __ZN4qdag9getHeightEv, symObjAddr: 0x345C, symBinAddr: 0x100003DA0, symSize: 0x30 }
  - { offsetInCU: 0x47C7B, offset: 0x47C7B, size: 0x8, addend: 0x0, symName: __ZN4qdagD1Ev, symObjAddr: 0x348C, symBinAddr: 0x100003DD0, symSize: 0x2C }
  - { offsetInCU: 0x47CA5, offset: 0x47CA5, size: 0x8, addend: 0x0, symName: __ZNSt3__13mapIyhNS_4lessIyEENS_9allocatorINS_4pairIKyhEEEEED1B8ue170006Ev, symObjAddr: 0x34B8, symBinAddr: 0x100003DFC, symSize: 0x2C }
  - { offsetInCU: 0x47CCF, offset: 0x47CCF, size: 0x8, addend: 0x0, symName: __ZNSt3__16vectorIyNS_9allocatorIyEEED1B8ue170006Ev, symObjAddr: 0x34E4, symBinAddr: 0x100003E28, symSize: 0x2C }
  - { offsetInCU: 0x47CF8, offset: 0x47CF8, size: 0x8, addend: 0x0, symName: __Z9multiJoinRNSt3__16vectorI4qdagNS_9allocatorIS1_EEEEby, symObjAddr: 0x3510, symBinAddr: 0x100003E54, symSize: 0x938 }
  - { offsetInCU: 0x47EA5, offset: 0x47EA5, size: 0x8, addend: 0x0, symName: __ZN4qdag11getGridSideEv, symObjAddr: 0x3E48, symBinAddr: 0x10000478C, symSize: 0x18 }
  - { offsetInCU: 0x47ECB, offset: 0x47ECB, size: 0x8, addend: 0x0, symName: __ZN4qdag4getKEv, symObjAddr: 0x3E60, symBinAddr: 0x1000047A4, symSize: 0x2C }
  - { offsetInCU: 0x47EF1, offset: 0x47EF1, size: 0x8, addend: 0x0, symName: __ZN4qdagC1EPNSt3__16vectorIyNS0_9allocatorIyEEEERS4_yhh, symObjAddr: 0x3E8C, symBinAddr: 0x1000047D0, symSize: 0x54 }
  - { offsetInCU: 0x47F60, offset: 0x47F60, size: 0x8, addend: 0x0, symName: __Z14getCoordinatesytyPt, symObjAddr: 0x3EE0, symBinAddr: 0x100004824, symSize: 0xF8 }
  - { offsetInCU: 0x47FF8, offset: 0x47FF8, size: 0x8, addend: 0x0, symName: __Z20transformCoordinatesPttyt, symObjAddr: 0x3FD8, symBinAddr: 0x10000491C, symSize: 0xE4 }
  - { offsetInCU: 0x48082, offset: 0x48082, size: 0x8, addend: 0x0, symName: __Z11AND_partialPP4qdagtybyyyhRNSt3__114priority_queueI10qdagWeightNS2_6vectorIS4_NS2_9allocatorIS4_EEEENS2_4lessIS4_EEEERNS5_IPtNS6_ISD_EEEE, symObjAddr: 0x40BC, symBinAddr: 0x100004A00, symSize: 0x874 }
  - { offsetInCU: 0x4831A, offset: 0x4831A, size: 0x8, addend: 0x0, symName: __Z4log2B8ue170006IyENSt3__19enable_ifIXsr3std11is_integralIT_EE5valueEdE4typeES2_, symObjAddr: 0x4930, symBinAddr: 0x100005274, symSize: 0x28 }
  - { offsetInCU: 0x483AA, offset: 0x483AA, size: 0x8, addend: 0x0, symName: __ZNKSt3__114priority_queueI10qdagWeightNS_6vectorIS1_NS_9allocatorIS1_EEEENS_4lessIS1_EEE5emptyB8ue170006Ev, symObjAddr: 0x4958, symBinAddr: 0x10000529C, symSize: 0x28 }
  - { offsetInCU: 0x483D0, offset: 0x483D0, size: 0x8, addend: 0x0, symName: __ZNKSt3__114priority_queueI10qdagWeightNS_6vectorIS1_NS_9allocatorIS1_EEEENS_4lessIS1_EEE3topB8ue170006Ev, symObjAddr: 0x4980, symBinAddr: 0x1000052C4, symSize: 0x24 }
  - { offsetInCU: 0x483F6, offset: 0x483F6, size: 0x8, addend: 0x0, symName: __ZNSt3__114priority_queueI10qdagWeightNS_6vectorIS1_NS_9allocatorIS1_EEEENS_4lessIS1_EEE3popEv, symObjAddr: 0x49A4, symBinAddr: 0x1000052E8, symSize: 0x50 }
  - { offsetInCU: 0x4841E, offset: 0x4841E, size: 0x8, addend: 0x0, symName: __ZNSt3__16vectorIPtNS_9allocatorIS1_EEE9push_backB8ue170006ERKS1_, symObjAddr: 0x49F4, symBinAddr: 0x100005338, symSize: 0x6C }
  - { offsetInCU: 0x48455, offset: 0x48455, size: 0x8, addend: 0x0, symName: __ZNSt3__114priority_queueI10qdagWeightNS_6vectorIS1_NS_9allocatorIS1_EEEENS_4lessIS1_EEE4pushERKS1_, symObjAddr: 0x4A60, symBinAddr: 0x1000053A4, symSize: 0x58 }
  - { offsetInCU: 0x4848B, offset: 0x4848B, size: 0x8, addend: 0x0, symName: __Z23multiJoinPartialResultsRNSt3__16vectorI4qdagNS_9allocatorIS1_EEEEbyyhRNS0_IPtNS2_IS6_EEEE, symObjAddr: 0x4AB8, symBinAddr: 0x1000053FC, symSize: 0x624 }
  - { offsetInCU: 0x48660, offset: 0x48660, size: 0x8, addend: 0x0, symName: __ZNSt3__114priority_queueI10qdagWeightNS_6vectorIS1_NS_9allocatorIS1_EEEENS_4lessIS1_EEEC1B8ue170006Ev, symObjAddr: 0x50DC, symBinAddr: 0x100005A20, symSize: 0x2C }
  - { offsetInCU: 0x4868A, offset: 0x4868A, size: 0x8, addend: 0x0, symName: __ZNSt3__114priority_queueI10qdagWeightNS_6vectorIS1_NS_9allocatorIS1_EEEENS_4lessIS1_EEE4pushEOS1_, symObjAddr: 0x5108, symBinAddr: 0x100005A4C, symSize: 0x58 }
  - { offsetInCU: 0x486C1, offset: 0x486C1, size: 0x8, addend: 0x0, symName: __ZNKSt3__16vectorIPtNS_9allocatorIS1_EEE4sizeB8ue170006Ev, symObjAddr: 0x5160, symBinAddr: 0x100005AA4, symSize: 0x28 }
  - { offsetInCU: 0x486E7, offset: 0x486E7, size: 0x8, addend: 0x0, symName: __ZNSt3__114priority_queueI10qdagWeightNS_6vectorIS1_NS_9allocatorIS1_EEEENS_4lessIS1_EEED1Ev, symObjAddr: 0x5188, symBinAddr: 0x100005ACC, symSize: 0x2C }
  - { offsetInCU: 0x48713, offset: 0x48713, size: 0x8, addend: 0x0, symName: __Z24AND_partial_backtrackingPP4qdagtyPyttyhPtyRNSt3__16vectorIS3_NS4_9allocatorIS3_EEEE, symObjAddr: 0x51B4, symBinAddr: 0x100005AF8, symSize: 0xAD8 }
  - { offsetInCU: 0x48A93, offset: 0x48A93, size: 0x8, addend: 0x0, symName: __ZNSt3__114priority_queueI13orderJoinQdagNS_6vectorIS1_NS_9allocatorIS1_EEEENS_4lessIS1_EEEC1B8ue170006Ev, symObjAddr: 0x5C8C, symBinAddr: 0x1000065D0, symSize: 0x2C }
  - { offsetInCU: 0x48ABD, offset: 0x48ABD, size: 0x8, addend: 0x0, symName: __ZNSt3__114priority_queueI13orderJoinQdagNS_6vectorIS1_NS_9allocatorIS1_EEEENS_4lessIS1_EEE4pushERKS1_, symObjAddr: 0x5CB8, symBinAddr: 0x1000065FC, symSize: 0x58 }
  - { offsetInCU: 0x48AF4, offset: 0x48AF4, size: 0x8, addend: 0x0, symName: __ZNKSt3__114priority_queueI13orderJoinQdagNS_6vectorIS1_NS_9allocatorIS1_EEEENS_4lessIS1_EEE3topB8ue170006Ev, symObjAddr: 0x5D10, symBinAddr: 0x100006654, symSize: 0x24 }
  - { offsetInCU: 0x48B1A, offset: 0x48B1A, size: 0x8, addend: 0x0, symName: __ZNSt3__114priority_queueI13orderJoinQdagNS_6vectorIS1_NS_9allocatorIS1_EEEENS_4lessIS1_EEE3popEv, symObjAddr: 0x5D34, symBinAddr: 0x100006678, symSize: 0x50 }
  - { offsetInCU: 0x48B42, offset: 0x48B42, size: 0x8, addend: 0x0, symName: __ZNSt3__114priority_queueI13orderJoinQdagNS_6vectorIS1_NS_9allocatorIS1_EEEENS_4lessIS1_EEED1Ev, symObjAddr: 0x5D84, symBinAddr: 0x1000066C8, symSize: 0x2C }
  - { offsetInCU: 0x48B6E, offset: 0x48B6E, size: 0x8, addend: 0x0, symName: __Z35multiJoinPartialResultsBacktrackingRNSt3__16vectorI4qdagNS_9allocatorIS1_EEEEyhxRNS0_IPtNS2_IS6_EEEE, symObjAddr: 0x5DB0, symBinAddr: 0x1000066F4, symSize: 0x694 }
  - { offsetInCU: 0x48D27, offset: 0x48D27, size: 0x8, addend: 0x0, symName: __Z10AND_rankedPP4qdagtyybyRNSt3__114priority_queueI10qdagWeightNS2_6vectorIS4_NS2_9allocatorIS4_EEEENS2_4lessIS4_EEEEhRNS5_IN4sdsl10int_vectorILh0EEENS6_ISF_EEEERNS5_INSD_16rmq_succinct_sctILb0ENSD_15bp_support_sadaILj256ELj32ENSD_15rank_support_v5ILh1ELh1EEENSD_18select_support_mclILh1ELh1EEEEEEENS6_ISQ_EEEERNS5_IPtNS6_ISU_EEEE, symObjAddr: 0x6444, symBinAddr: 0x100006D88, symSize: 0x938 }
  - { offsetInCU: 0x49019, offset: 0x49019, size: 0x8, addend: 0x0, symName: __ZNSt3__16vectorIN4sdsl10int_vectorILh0EEENS_9allocatorIS3_EEEixB8ue170006Em, symObjAddr: 0x6D7C, symBinAddr: 0x1000076C0, symSize: 0x24 }
  - { offsetInCU: 0x49050, offset: 0x49050, size: 0x8, addend: 0x0, symName: __ZNK4sdsl10int_vectorILh0EE4sizeEv, symObjAddr: 0x6DA0, symBinAddr: 0x1000076E4, symSize: 0x20 }
  - { offsetInCU: 0x49076, offset: 0x49076, size: 0x8, addend: 0x0, symName: __ZN4qdag16get_range_leavesEsyRyS0_, symObjAddr: 0x6DC0, symBinAddr: 0x100007704, symSize: 0x4C }
  - { offsetInCU: 0x490D8, offset: 0x490D8, size: 0x8, addend: 0x0, symName: __ZNSt3__16vectorIN4sdsl16rmq_succinct_sctILb0ENS1_15bp_support_sadaILj256ELj32ENS1_15rank_support_v5ILh1ELh1EEENS1_18select_support_mclILh1ELh1EEEEEEENS_9allocatorIS9_EEEixB8ue170006Em, symObjAddr: 0x6E0C, symBinAddr: 0x100007750, symSize: 0x2C }
  - { offsetInCU: 0x4910F, offset: 0x4910F, size: 0x8, addend: 0x0, symName: __ZNK4sdsl16rmq_succinct_sctILb0ENS_15bp_support_sadaILj256ELj32ENS_15rank_support_v5ILh1ELh1EEENS_18select_support_mclILh1ELh1EEEEEEclEyy, symObjAddr: 0x6E38, symBinAddr: 0x10000777C, symSize: 0x124 }
  - { offsetInCU: 0x49197, offset: 0x49197, size: 0x8, addend: 0x0, symName: __ZN4sdsl10int_vectorILh0EEixERKy, symObjAddr: 0x6F5C, symBinAddr: 0x1000078A0, symSize: 0x68 }
  - { offsetInCU: 0x491DD, offset: 0x491DD, size: 0x8, addend: 0x0, symName: __ZNK4sdsl20int_vector_referenceINS_10int_vectorILh0EEEEcvyEv, symObjAddr: 0x6FC4, symBinAddr: 0x100007908, symSize: 0x30 }
  - { offsetInCU: 0x49202, offset: 0x49202, size: 0x8, addend: 0x0, symName: __Z22multiJoinRankedResultsRNSt3__16vectorI4qdagNS_9allocatorIS1_EEEEbyhRNS0_IN4sdsl10int_vectorILh0EEENS2_IS8_EEEERNS0_INS6_16rmq_succinct_sctILb0ENS6_15bp_support_sadaILj256ELj32ENS6_15rank_support_v5ILh1ELh1EEENS6_18select_support_mclILh1ELh1EEEEEEENS2_ISJ_EEEENS0_IPtNS2_ISN_EEEE, symObjAddr: 0x6FF4, symBinAddr: 0x100007938, symSize: 0x63C }
  - { offsetInCU: 0x493E6, offset: 0x493E6, size: 0x8, addend: 0x0, symName: __Z23AND_ranked_backtrackingPP4qdagtyPytthPtyRNSt3__16vectorIN4sdsl10int_vectorILh0EEENS4_9allocatorIS8_EEEERNS5_INS6_16rmq_succinct_sctILb0ENS6_15bp_support_sadaILj256ELj32ENS6_15rank_support_v5ILh1ELh1EEENS6_18select_support_mclILh1ELh1EEEEEEENS9_ISK_EEEERNS4_14priority_queueI11qdagResultsNS5_ISP_NS9_ISP_EEEENS4_4lessISP_EEEE, symObjAddr: 0x7630, symBinAddr: 0x100007F74, symSize: 0xD2C }
  - { offsetInCU: 0x49854, offset: 0x49854, size: 0x8, addend: 0x0, symName: __ZNKSt3__114priority_queueI11qdagResultsNS_6vectorIS1_NS_9allocatorIS1_EEEENS_4lessIS1_EEE4sizeB8ue170006Ev, symObjAddr: 0x835C, symBinAddr: 0x100008CA0, symSize: 0x24 }
  - { offsetInCU: 0x4987A, offset: 0x4987A, size: 0x8, addend: 0x0, symName: __ZNKSt3__114priority_queueI11qdagResultsNS_6vectorIS1_NS_9allocatorIS1_EEEENS_4lessIS1_EEE3topB8ue170006Ev, symObjAddr: 0x8380, symBinAddr: 0x100008CC4, symSize: 0x24 }
  - { offsetInCU: 0x498A0, offset: 0x498A0, size: 0x8, addend: 0x0, symName: __ZNSt3__114priority_queueI11qdagResultsNS_6vectorIS1_NS_9allocatorIS1_EEEENS_4lessIS1_EEE3popEv, symObjAddr: 0x83A4, symBinAddr: 0x100008CE8, symSize: 0x50 }
  - { offsetInCU: 0x498C8, offset: 0x498C8, size: 0x8, addend: 0x0, symName: __ZNSt3__114priority_queueI11qdagResultsNS_6vectorIS1_NS_9allocatorIS1_EEEENS_4lessIS1_EEE4pushEOS1_, symObjAddr: 0x83F4, symBinAddr: 0x100008D38, symSize: 0x58 }
  - { offsetInCU: 0x498FE, offset: 0x498FE, size: 0x8, addend: 0x0, symName: __Z34multiJoinRankedResultsBacktrackingRNSt3__16vectorI4qdagNS_9allocatorIS1_EEEEhxRNS0_IN4sdsl10int_vectorILh0EEENS2_IS8_EEEERNS0_INS6_16rmq_succinct_sctILb0ENS6_15bp_support_sadaILj256ELj32ENS6_15rank_support_v5ILh1ELh1EEENS6_18select_support_mclILh1ELh1EEEEEEENS2_ISJ_EEEERNS_14priority_queueI11qdagResultsNS0_ISO_NS2_ISO_EEEENS_4lessISO_EEEE, symObjAddr: 0x844C, symBinAddr: 0x100008D90, symSize: 0x6EC }
  - { offsetInCU: 0x49AD7, offset: 0x49AD7, size: 0x8, addend: 0x0, symName: __Z17AND_partial_dfudsPP10qdag_dfudstybyyyhRNSt3__114priority_queueI10qdagWeightNS2_6vectorIS4_NS2_9allocatorIS4_EEEENS2_4lessIS4_EEEERNS5_IPtNS6_ISD_EEEE, symObjAddr: 0x8B38, symBinAddr: 0x10000947C, symSize: 0x800 }
  - { offsetInCU: 0x49D70, offset: 0x49D70, size: 0x8, addend: 0x0, symName: __ZN10qdag_dfuds9nChildrenEv, symObjAddr: 0x9338, symBinAddr: 0x100009C7C, symSize: 0x18 }
  - { offsetInCU: 0x49D96, offset: 0x49D96, size: 0x8, addend: 0x0, symName: __ZN10qdag_dfuds5getKDEv, symObjAddr: 0x9350, symBinAddr: 0x100009C94, symSize: 0x28 }
  - { offsetInCU: 0x49DBC, offset: 0x49DBC, size: 0x8, addend: 0x0, symName: __ZN10qdag_dfuds28materialize_node_3_lastlevelEy, symObjAddr: 0x9378, symBinAddr: 0x100009CBC, symSize: 0x48 }
  - { offsetInCU: 0x49DF1, offset: 0x49DF1, size: 0x8, addend: 0x0, symName: __ZN10qdag_dfuds18materialize_node_3EyPy, symObjAddr: 0x93C0, symBinAddr: 0x100009D04, symSize: 0x50 }
  - { offsetInCU: 0x49E35, offset: 0x49E35, size: 0x8, addend: 0x0, symName: __ZN10qdag_dfuds28materialize_node_4_lastlevelEy, symObjAddr: 0x9410, symBinAddr: 0x100009D54, symSize: 0x48 }
  - { offsetInCU: 0x49E6A, offset: 0x49E6A, size: 0x8, addend: 0x0, symName: __ZN10qdag_dfuds18materialize_node_4EyPy, symObjAddr: 0x9458, symBinAddr: 0x100009D9C, symSize: 0x50 }
  - { offsetInCU: 0x49EAE, offset: 0x49EAE, size: 0x8, addend: 0x0, symName: __ZN10qdag_dfuds28materialize_node_5_lastlevelEy, symObjAddr: 0x94A8, symBinAddr: 0x100009DEC, symSize: 0x48 }
  - { offsetInCU: 0x49EE3, offset: 0x49EE3, size: 0x8, addend: 0x0, symName: __ZN10qdag_dfuds18materialize_node_5EyPy, symObjAddr: 0x94F0, symBinAddr: 0x100009E34, symSize: 0x50 }
  - { offsetInCU: 0x49F27, offset: 0x49F27, size: 0x8, addend: 0x0, symName: __ZN10qdag_dfuds4getMEt, symObjAddr: 0x9540, symBinAddr: 0x100009E84, symSize: 0x24 }
  - { offsetInCU: 0x49F5B, offset: 0x49F5B, size: 0x8, addend: 0x0, symName: __ZN10qdag_dfuds14get_num_leavesEy, symObjAddr: 0x9564, symBinAddr: 0x100009EA8, symSize: 0x30 }
  - { offsetInCU: 0x49F8F, offset: 0x49F8F, size: 0x8, addend: 0x0, symName: __Z28multiJoinPartialResultsDfudsRNSt3__16vectorI10qdag_dfudsNS_9allocatorIS1_EEEEbyyhRNS0_IPtNS2_IS6_EEEE, symObjAddr: 0x9594, symBinAddr: 0x100009ED8, symSize: 0x624 }
  - { offsetInCU: 0x4A164, offset: 0x4A164, size: 0x8, addend: 0x0, symName: __ZNKSt3__16vectorI10qdag_dfudsNS_9allocatorIS1_EEE4sizeB8ue170006Ev, symObjAddr: 0x9BB8, symBinAddr: 0x10000A4FC, symSize: 0x28 }
  - { offsetInCU: 0x4A18A, offset: 0x4A18A, size: 0x8, addend: 0x0, symName: __ZNSt3__16vectorI10qdag_dfudsNS_9allocatorIS1_EEEixB8ue170006Em, symObjAddr: 0x9BE0, symBinAddr: 0x10000A524, symSize: 0x2C }
  - { offsetInCU: 0x4A1C1, offset: 0x4A1C1, size: 0x8, addend: 0x0, symName: __ZN10qdag_dfuds5nAttrEv, symObjAddr: 0x9C0C, symBinAddr: 0x10000A550, symSize: 0x28 }
  - { offsetInCU: 0x4A1E7, offset: 0x4A1E7, size: 0x8, addend: 0x0, symName: __ZN10qdag_dfuds7getAttrEy, symObjAddr: 0x9C34, symBinAddr: 0x10000A578, symSize: 0x34 }
  - { offsetInCU: 0x4A21B, offset: 0x4A21B, size: 0x8, addend: 0x0, symName: __ZN10qdag_dfuds6extendERNSt3__16vectorIyNS0_9allocatorIyEEEE, symObjAddr: 0x9C68, symBinAddr: 0x10000A5AC, symSize: 0x220 }
  - { offsetInCU: 0x4A2DC, offset: 0x4A2DC, size: 0x8, addend: 0x0, symName: __ZN10qdag_dfuds18createTableExtend3Ev, symObjAddr: 0x9E88, symBinAddr: 0x10000A7CC, symSize: 0xF8 }
  - { offsetInCU: 0x4A33E, offset: 0x4A33E, size: 0x8, addend: 0x0, symName: __ZN10qdag_dfuds18createTableExtend4Ev, symObjAddr: 0x9F80, symBinAddr: 0x10000A8C4, symSize: 0x12C }
  - { offsetInCU: 0x4A39C, offset: 0x4A39C, size: 0x8, addend: 0x0, symName: __ZN10qdag_dfuds18createTableExtend5Ev, symObjAddr: 0xA0AC, symBinAddr: 0x10000A9F0, symSize: 0x128 }
  - { offsetInCU: 0x4A3FA, offset: 0x4A3FA, size: 0x8, addend: 0x0, symName: __ZN10qdag_dfuds9getHeightEv, symObjAddr: 0xA1D4, symBinAddr: 0x10000AB18, symSize: 0x28 }
  - { offsetInCU: 0x4A420, offset: 0x4A420, size: 0x8, addend: 0x0, symName: __ZN10qdag_dfudsD1Ev, symObjAddr: 0xA1FC, symBinAddr: 0x10000AB40, symSize: 0x2C }
  - { offsetInCU: 0x4A449, offset: 0x4A449, size: 0x8, addend: 0x0, symName: __Z30AND_partial_dfuds_backtrackingPP10qdag_dfudstyPyttyhPtyRNSt3__16vectorIS3_NS4_9allocatorIS3_EEEE, symObjAddr: 0xA228, symBinAddr: 0x10000AB6C, symSize: 0xA64 }
  - { offsetInCU: 0x4A770, offset: 0x4A770, size: 0x8, addend: 0x0, symName: __Z40multiJoinPartialResultsDfudsBacktrackingRNSt3__16vectorI10qdag_dfudsNS_9allocatorIS1_EEEEyhxRNS0_IPtNS2_IS6_EEEE, symObjAddr: 0xAC8C, symBinAddr: 0x10000B5D0, symSize: 0x694 }
  - { offsetInCU: 0x4A929, offset: 0x4A929, size: 0x8, addend: 0x0, symName: __Z16AND_ranked_dfudsPP10qdag_dfudstyybyRNSt3__114priority_queueI10qdagWeightNS2_6vectorIS4_NS2_9allocatorIS4_EEEENS2_4lessIS4_EEEEhRNS5_IN4sdsl10int_vectorILh0EEENS6_ISF_EEEERNS5_INSD_16rmq_succinct_sctILb0ENSD_15bp_support_sadaILj256ELj32ENSD_15rank_support_v5ILh1ELh1EEENSD_18select_support_mclILh1ELh1EEEEEEENS6_ISQ_EEEERNS5_IPtNS6_ISU_EEEE, symObjAddr: 0xB320, symBinAddr: 0x10000BC64, symSize: 0x8AC }
  - { offsetInCU: 0x4AC1A, offset: 0x4AC1A, size: 0x8, addend: 0x0, symName: __Z27multiJoinRankedResultsDfudsRNSt3__16vectorI10qdag_dfudsNS_9allocatorIS1_EEEEbyhRNS0_IN4sdsl10int_vectorILh0EEENS2_IS8_EEEERNS0_INS6_16rmq_succinct_sctILb0ENS6_15bp_support_sadaILj256ELj32ENS6_15rank_support_v5ILh1ELh1EEENS6_18select_support_mclILh1ELh1EEEEEEENS2_ISJ_EEEENS0_IPtNS2_ISN_EEEE, symObjAddr: 0xBBCC, symBinAddr: 0x10000C510, symSize: 0x63C }
  - { offsetInCU: 0x4ADFE, offset: 0x4ADFE, size: 0x8, addend: 0x0, symName: __Z29AND_ranked_dfuds_backtrackingPP10qdag_dfudstyPytthPtyRNSt3__16vectorIN4sdsl10int_vectorILh0EEENS4_9allocatorIS8_EEEERNS5_INS6_16rmq_succinct_sctILb0ENS6_15bp_support_sadaILj256ELj32ENS6_15rank_support_v5ILh1ELh1EEENS6_18select_support_mclILh1ELh1EEEEEEENS9_ISK_EEEERNS4_14priority_queueI11qdagResultsNS5_ISP_NS9_ISP_EEEENS4_4lessISP_EEEE, symObjAddr: 0xC208, symBinAddr: 0x10000CB4C, symSize: 0xC7C }
  - { offsetInCU: 0x4B213, offset: 0x4B213, size: 0x8, addend: 0x0, symName: __Z39multiJoinRankedResultsDfudsBacktrackingRNSt3__16vectorI10qdag_dfudsNS_9allocatorIS1_EEEEhxRNS0_IN4sdsl10int_vectorILh0EEENS2_IS8_EEEERNS0_INS6_16rmq_succinct_sctILb0ENS6_15bp_support_sadaILj256ELj32ENS6_15rank_support_v5ILh1ELh1EEENS6_18select_support_mclILh1ELh1EEEEEEENS2_ISJ_EEEERNS_14priority_queueI11qdagResultsNS0_ISO_NS2_ISO_EEEENS_4lessISO_EEEE, symObjAddr: 0xCE84, symBinAddr: 0x10000D7C8, symSize: 0x6EC }
  - { offsetInCU: 0x4B3ED, offset: 0x4B3ED, size: 0x8, addend: 0x0, symName: __ZNSt3__16chrono10time_pointINS0_12steady_clockENS0_8durationIxNS_5ratioILl1ELl1000000000EEEEEEC1B8ue170006Ev, symObjAddr: 0xD570, symBinAddr: 0x10000DEB4, symSize: 0x2C }
  - { offsetInCU: 0x4B416, offset: 0x4B416, size: 0x8, addend: 0x0, symName: __Z13read_relationNSt3__112basic_stringIcNS_11char_traitsIcEENS_9allocatorIcEEEEt, symObjAddr: 0xD59C, symBinAddr: 0x10000DEE0, symSize: 0x194 }
  - { offsetInCU: 0x4B550, offset: 0x4B550, size: 0x8, addend: 0x0, symName: __ZNSt3__114basic_ifstreamIcNS_11char_traitsIcEEEC1ERKNS_12basic_stringIcS2_NS_9allocatorIcEEEEj, symObjAddr: 0xD730, symBinAddr: 0x10000E074, symSize: 0x16C }
  - { offsetInCU: 0x4B59A, offset: 0x4B59A, size: 0x8, addend: 0x0, symName: __ZNSt3__16vectorINS0_IyNS_9allocatorIyEEEENS1_IS3_EEEC1B8ue170006Ev, symObjAddr: 0xD89C, symBinAddr: 0x10000E1E0, symSize: 0x2C }
  - { offsetInCU: 0x4B5C4, offset: 0x4B5C4, size: 0x8, addend: 0x0, symName: __ZNKSt3__19basic_iosIcNS_11char_traitsIcEEE3eofB8ue170006Ev, symObjAddr: 0xD8C8, symBinAddr: 0x10000E20C, symSize: 0x28 }
  - { offsetInCU: 0x4B5EA, offset: 0x4B5EA, size: 0x8, addend: 0x0, symName: __ZNSt3__16vectorIyNS_9allocatorIyEEE5clearB8ue170006Ev, symObjAddr: 0xD8F0, symBinAddr: 0x10000E234, symSize: 0x44 }
  - { offsetInCU: 0x4B61F, offset: 0x4B61F, size: 0x8, addend: 0x0, symName: __ZNSt3__16vectorINS0_IyNS_9allocatorIyEEEENS1_IS3_EEE9push_backB8ue170006ERKS3_, symObjAddr: 0xD934, symBinAddr: 0x10000E278, symSize: 0x6C }
  - { offsetInCU: 0x4B65B, offset: 0x4B65B, size: 0x8, addend: 0x0, symName: __ZNSt3__114basic_ifstreamIcNS_11char_traitsIcEEED1Ev, symObjAddr: 0xD9A0, symBinAddr: 0x10000E2E4, symSize: 0x40 }
  - { offsetInCU: 0x4B687, offset: 0x4B687, size: 0x8, addend: 0x0, symName: __Z16maximum_in_tableRNSt3__16vectorINS0_IyNS_9allocatorIyEEEENS1_IS3_EEEEty, symObjAddr: 0xD9E0, symBinAddr: 0x10000E324, symSize: 0xE8 }
  - { offsetInCU: 0x4B6EC, offset: 0x4B6EC, size: 0x8, addend: 0x0, symName: __ZNKSt3__16vectorINS0_IyNS_9allocatorIyEEEENS1_IS3_EEE4sizeB8ue170006Ev, symObjAddr: 0xDAC8, symBinAddr: 0x10000E40C, symSize: 0x28 }
  - { offsetInCU: 0x4B712, offset: 0x4B712, size: 0x8, addend: 0x0, symName: __ZNSt3__16vectorINS0_IyNS_9allocatorIyEEEENS1_IS3_EEEixB8ue170006Em, symObjAddr: 0xDAF0, symBinAddr: 0x10000E434, symSize: 0x2C }
  - { offsetInCU: 0x4B749, offset: 0x4B749, size: 0x8, addend: 0x0, symName: __ZNSt3__16vectorIyNS_9allocatorIyEEEixB8ue170006Em, symObjAddr: 0xDB1C, symBinAddr: 0x10000E460, symSize: 0x24 }
  - { offsetInCU: 0x4B780, offset: 0x4B780, size: 0x8, addend: 0x0, symName: _main, symObjAddr: 0xDB40, symBinAddr: 0x10000E484, symSize: 0x1544 }
  - { offsetInCU: 0x4BB52, offset: 0x4BB52, size: 0x8, addend: 0x0, symName: __ZNSt3__112basic_stringIcNS_11char_traitsIcEENS_9allocatorIcEEEC1B8ue170006ILi0EEEPKc, symObjAddr: 0xF084, symBinAddr: 0x10000F9C8, symSize: 0x34 }
  - { offsetInCU: 0x4BB91, offset: 0x4BB91, size: 0x8, addend: 0x0, symName: __ZN4qdagC1ERNSt3__16vectorINS1_IyNS0_9allocatorIyEEEENS2_IS4_EEEERS4_yhh, symObjAddr: 0xF0B8, symBinAddr: 0x10000F9FC, symSize: 0x54 }
  - { offsetInCU: 0x4BC01, offset: 0x4BC01, size: 0x8, addend: 0x0, symName: __ZN10qdag_dfudsC1ERNSt3__16vectorINS1_IyNS0_9allocatorIyEEEENS2_IS4_EEEERS4_yhh, symObjAddr: 0xF10C, symBinAddr: 0x10000FA50, symSize: 0x54 }
  - { offsetInCU: 0x4BC71, offset: 0x4BC71, size: 0x8, addend: 0x0, symName: __ZN4qdag7printBvEv, symObjAddr: 0xF160, symBinAddr: 0x10000FAA4, symSize: 0x28 }
  - { offsetInCU: 0x4BC97, offset: 0x4BC97, size: 0x8, addend: 0x0, symName: __ZNSt3__16vectorI4qdagNS_9allocatorIS1_EEEC1Em, symObjAddr: 0xF188, symBinAddr: 0x10000FACC, symSize: 0x34 }
  - { offsetInCU: 0x4BCD2, offset: 0x4BCD2, size: 0x8, addend: 0x0, symName: __ZNSt3__16vectorI10qdag_dfudsNS_9allocatorIS1_EEEC1Em, symObjAddr: 0xF1BC, symBinAddr: 0x10000FB00, symSize: 0x34 }
  - { offsetInCU: 0x4BD0D, offset: 0x4BD0D, size: 0x8, addend: 0x0, symName: __ZN4qdagaSERKS_, symObjAddr: 0xF1F0, symBinAddr: 0x10000FB34, symSize: 0x88 }
  - { offsetInCU: 0x4BD3E, offset: 0x4BD3E, size: 0x8, addend: 0x0, symName: __ZN10qdag_dfudsaSERKS_, symObjAddr: 0xF278, symBinAddr: 0x10000FBBC, symSize: 0x88 }
  - { offsetInCU: 0x4BD6F, offset: 0x4BD6F, size: 0x8, addend: 0x0, symName: __ZNSt3__114basic_ifstreamIcNS_11char_traitsIcEEEC1EPKcj, symObjAddr: 0xF300, symBinAddr: 0x10000FC44, symSize: 0x16C }
  - { offsetInCU: 0x4BDB9, offset: 0x4BDB9, size: 0x8, addend: 0x0, symName: __ZNKSt3__114basic_ifstreamIcNS_11char_traitsIcEEE7is_openEv, symObjAddr: 0xF46C, symBinAddr: 0x10000FDB0, symSize: 0x2C }
  - { offsetInCU: 0x4BDE1, offset: 0x4BDE1, size: 0x8, addend: 0x0, symName: __ZNSt3__112basic_stringIcNS_11char_traitsIcEENS_9allocatorIcEEEC1B8ue170006Ev, symObjAddr: 0xF498, symBinAddr: 0x10000FDDC, symSize: 0x2C }
  - { offsetInCU: 0x4BE0B, offset: 0x4BE0B, size: 0x8, addend: 0x0, symName: __ZNKSt3__19basic_iosIcNS_11char_traitsIcEEEcvbB8ue170006Ev, symObjAddr: 0xF520, symBinAddr: 0x10000FE64, symSize: 0x2C }
  - { offsetInCU: 0x4BE31, offset: 0x4BE31, size: 0x8, addend: 0x0, symName: __ZN4sdsl10int_vectorILh0EEC1Eyyh, symObjAddr: 0xF54C, symBinAddr: 0x10000FE90, symSize: 0x44 }
  - { offsetInCU: 0x4BE8A, offset: 0x4BE8A, size: 0x8, addend: 0x0, symName: __ZN4sdsl20int_vector_referenceINS_10int_vectorILh0EEEEaSEy, symObjAddr: 0xF590, symBinAddr: 0x10000FED4, symSize: 0x40 }
  - { offsetInCU: 0x4BEBF, offset: 0x4BEBF, size: 0x8, addend: 0x0, symName: __ZNSt3__16vectorIN4sdsl10int_vectorILh0EEENS_9allocatorIS3_EEEC1B8ue170006Ev, symObjAddr: 0xF5D0, symBinAddr: 0x10000FF14, symSize: 0x2C }
  - { offsetInCU: 0x4BEE9, offset: 0x4BEE9, size: 0x8, addend: 0x0, symName: __ZNSt3__16vectorIN4sdsl10int_vectorILh0EEENS_9allocatorIS3_EEE9push_backB8ue170006ERKS3_, symObjAddr: 0xF5FC, symBinAddr: 0x10000FF40, symSize: 0x6C }
  - { offsetInCU: 0x4BF20, offset: 0x4BF20, size: 0x8, addend: 0x0, symName: __ZNSt3__16vectorIN4sdsl16rmq_succinct_sctILb0ENS1_15bp_support_sadaILj256ELj32ENS1_15rank_support_v5ILh1ELh1EEENS1_18select_support_mclILh1ELh1EEEEEEENS_9allocatorIS9_EEEC1B8ue170006Ev, symObjAddr: 0xF668, symBinAddr: 0x10000FFAC, symSize: 0x2C }
  - { offsetInCU: 0x4BF4A, offset: 0x4BF4A, size: 0x8, addend: 0x0, symName: __ZNSt3__16vectorIN4sdsl16rmq_succinct_sctILb0ENS1_15bp_support_sadaILj256ELj32ENS1_15rank_support_v5ILh1ELh1EEENS1_18select_support_mclILh1ELh1EEEEEEENS_9allocatorIS9_EEE9push_backB8ue170006EOS9_, symObjAddr: 0xF694, symBinAddr: 0x10000FFD8, symSize: 0x6C }
  - { offsetInCU: 0x4BF81, offset: 0x4BF81, size: 0x8, addend: 0x0, symName: __ZN4sdsl16rmq_succinct_sctILb0ENS_15bp_support_sadaILj256ELj32ENS_15rank_support_v5ILh1ELh1EEENS_18select_support_mclILh1ELh1EEEEEEC1INS_10int_vectorILh0EEEEEPKT_, symObjAddr: 0xF700, symBinAddr: 0x100010044, symSize: 0x34 }
  - { offsetInCU: 0x4BFC2, offset: 0x4BFC2, size: 0x8, addend: 0x0, symName: __ZN4sdsl16rmq_succinct_sctILb0ENS_15bp_support_sadaILj256ELj32ENS_15rank_support_v5ILh1ELh1EEENS_18select_support_mclILh1ELh1EEEEEED1Ev, symObjAddr: 0xF734, symBinAddr: 0x100010078, symSize: 0x2C }
  - { offsetInCU: 0x4BFEE, offset: 0x4BFEE, size: 0x8, addend: 0x0, symName: __ZNSt3__16vectorIPtNS_9allocatorIS1_EEEC1B8ue170006Ev, symObjAddr: 0xF760, symBinAddr: 0x1000100A4, symSize: 0x2C }
  - { offsetInCU: 0x4C018, offset: 0x4C018, size: 0x8, addend: 0x0, symName: __ZNSt3__114priority_queueI11qdagResultsNS_6vectorIS1_NS_9allocatorIS1_EEEENS_4lessIS1_EEEC1B8ue170006Ev, symObjAddr: 0xF78C, symBinAddr: 0x1000100D0, symSize: 0x2C }
  - { offsetInCU: 0x4C047, offset: 0x4C047, size: 0x8, addend: 0x0, symName: __ZNSt3__16chrono8durationIdNS_5ratioILl1ELl1EEEEC1B8ue170006IxNS2_ILl1ELl1000000EEEEERKNS1_IT_T0_EEPNS_9enable_ifIXaasr13__no_overflowIS8_S3_EE5valueooL_ZNS_17integral_constantIbLb1EE5valueEEaaeqsr13__no_overflowIS8_S3_E4typeE3denLi1Entsr23treat_as_floating_pointIS7_EE5valueEvE4typeE, symObjAddr: 0xF840, symBinAddr: 0x100010184, symSize: 0x3C }
  - { offsetInCU: 0x4C09E, offset: 0x4C09E, size: 0x8, addend: 0x0, symName: __ZNKSt3__16chrono8durationIdNS_5ratioILl1ELl1EEEE5countB8ue170006Ev, symObjAddr: 0xF87C, symBinAddr: 0x1000101C0, symSize: 0x18 }
  - { offsetInCU: 0x4C2D7, offset: 0x4C2D7, size: 0x8, addend: 0x0, symName: __ZN5lqdagC1EhP16subQuadtreeChild, symObjAddr: 0xF894, symBinAddr: 0x1000101D8, symSize: 0x3C }
  - { offsetInCU: 0x4C31D, offset: 0x4C31D, size: 0x8, addend: 0x0, symName: __ZN5lqdagC1EhPS_RNSt3__16vectorIyNS1_9allocatorIyEEEE, symObjAddr: 0xF8D0, symBinAddr: 0x100010214, symSize: 0x44 }
  - { offsetInCU: 0x4C371, offset: 0x4C371, size: 0x8, addend: 0x0, symName: __ZN5lqdagC1EhPS_S0_, symObjAddr: 0xF914, symBinAddr: 0x100010258, symSize: 0x44 }
  - { offsetInCU: 0x4C3C5, offset: 0x4C3C5, size: 0x8, addend: 0x0, symName: __ZN5lqdag10completionEhtRytt, symObjAddr: 0xF958, symBinAddr: 0x10001029C, symSize: 0x3E4 }
  - { offsetInCU: 0x4C520, offset: 0x4C520, size: 0x8, addend: 0x0, symName: __ZNSt3__114priority_queueI11qdagResultsNS_6vectorIS1_NS_9allocatorIS1_EEEENS_4lessIS1_EEED1Ev, symObjAddr: 0xFD3C, symBinAddr: 0x100010680, symSize: 0x2C }
  - { offsetInCU: 0x4C54D, offset: 0x4C54D, size: 0x8, addend: 0x0, symName: __ZNSt3__16vectorIPtNS_9allocatorIS1_EEED1B8ue170006Ev, symObjAddr: 0xFD68, symBinAddr: 0x1000106AC, symSize: 0x2C }
  - { offsetInCU: 0x4C577, offset: 0x4C577, size: 0x8, addend: 0x0, symName: __ZNSt3__16vectorIN4sdsl16rmq_succinct_sctILb0ENS1_15bp_support_sadaILj256ELj32ENS1_15rank_support_v5ILh1ELh1EEENS1_18select_support_mclILh1ELh1EEEEEEENS_9allocatorIS9_EEED1B8ue170006Ev, symObjAddr: 0xFD94, symBinAddr: 0x1000106D8, symSize: 0x2C }
  - { offsetInCU: 0x4C5A1, offset: 0x4C5A1, size: 0x8, addend: 0x0, symName: __ZNSt3__16vectorIN4sdsl10int_vectorILh0EEENS_9allocatorIS3_EEED1B8ue170006Ev, symObjAddr: 0xFDC0, symBinAddr: 0x100010704, symSize: 0x2C }
  - { offsetInCU: 0x4C5CB, offset: 0x4C5CB, size: 0x8, addend: 0x0, symName: __ZN4sdsl10int_vectorILh0EED1Ev, symObjAddr: 0xFDEC, symBinAddr: 0x100010730, symSize: 0x2C }
  - { offsetInCU: 0x4C5F7, offset: 0x4C5F7, size: 0x8, addend: 0x0, symName: __ZNSt3__16vectorI10qdag_dfudsNS_9allocatorIS1_EEED1B8ue170006Ev, symObjAddr: 0xFE18, symBinAddr: 0x10001075C, symSize: 0x2C }
  - { offsetInCU: 0x4C621, offset: 0x4C621, size: 0x8, addend: 0x0, symName: __ZNSt3__16vectorI4qdagNS_9allocatorIS1_EEED1B8ue170006Ev, symObjAddr: 0xFE44, symBinAddr: 0x100010788, symSize: 0x2C }
  - { offsetInCU: 0x4C64B, offset: 0x4C64B, size: 0x8, addend: 0x0, symName: __ZN11se_quadtree19get_node_last_levelEty, symObjAddr: 0xFE70, symBinAddr: 0x1000107B4, symSize: 0xC0 }
  - { offsetInCU: 0x4C68F, offset: 0x4C68F, size: 0x8, addend: 0x0, symName: __ZN10rank_bv_6410get_2_bitsEy, symObjAddr: 0xFF30, symBinAddr: 0x100010874, symSize: 0x3C }
  - { offsetInCU: 0x4C6C3, offset: 0x4C6C3, size: 0x8, addend: 0x0, symName: __ZN10rank_bv_6410get_4_bitsEy, symObjAddr: 0xFF6C, symBinAddr: 0x1000108B0, symSize: 0x3C }
  - { offsetInCU: 0x4C6F7, offset: 0x4C6F7, size: 0x8, addend: 0x0, symName: __ZN11se_quadtree5getKDEv, symObjAddr: 0xFFA8, symBinAddr: 0x1000108EC, symSize: 0x18 }
  - { offsetInCU: 0x4C71D, offset: 0x4C71D, size: 0x8, addend: 0x0, symName: __ZN11se_quadtree4rankEty, symObjAddr: 0xFFC0, symBinAddr: 0x100010904, symSize: 0x90 }
  - { offsetInCU: 0x4C761, offset: 0x4C761, size: 0x8, addend: 0x0, symName: __ZN11se_quadtree8get_nodeEtyPyy, symObjAddr: 0x10050, symBinAddr: 0x100010994, symSize: 0x384 }
  - { offsetInCU: 0x4C7D2, offset: 0x4C7D2, size: 0x8, addend: 0x0, symName: __ZN10rank_bv_644sizeEv, symObjAddr: 0x10424, symBinAddr: 0x100010D68, symSize: 0x18 }
  - { offsetInCU: 0x4C7F8, offset: 0x4C7F8, size: 0x8, addend: 0x0, symName: __ZN10rank_bv_646n_onesEv, symObjAddr: 0x1043C, symBinAddr: 0x100010D80, symSize: 0x18 }
  - { offsetInCU: 0x4C81E, offset: 0x4C81E, size: 0x8, addend: 0x0, symName: __ZN10rank_bv_644rankEy, symObjAddr: 0x10454, symBinAddr: 0x100010D98, symSize: 0x68 }
  - { offsetInCU: 0x4C852, offset: 0x4C852, size: 0x8, addend: 0x0, symName: __ZN11se_quadtree14get_num_leavesEty, symObjAddr: 0x104BC, symBinAddr: 0x100010E00, symSize: 0x208 }
  - { offsetInCU: 0x4C8D3, offset: 0x4C8D3, size: 0x8, addend: 0x0, symName: __ZN11se_quadtree16total_ones_levelEt, symObjAddr: 0x106C4, symBinAddr: 0x100011008, symSize: 0x38 }
  - { offsetInCU: 0x4C908, offset: 0x4C908, size: 0x8, addend: 0x0, symName: __ZN11se_quadtree9getHeightEv, symObjAddr: 0x106FC, symBinAddr: 0x100011040, symSize: 0x18 }
  - { offsetInCU: 0x4C92E, offset: 0x4C92E, size: 0x8, addend: 0x0, symName: __ZN11se_quadtree11get_ith_bitEty, symObjAddr: 0x10714, symBinAddr: 0x100011058, symSize: 0x44 }
  - { offsetInCU: 0x4C972, offset: 0x4C972, size: 0x8, addend: 0x0, symName: __ZN11se_quadtree12get_childrenEtyPyRy, symObjAddr: 0x10758, symBinAddr: 0x10001109C, symSize: 0x3A4 }
  - { offsetInCU: 0x4C9D4, offset: 0x4C9D4, size: 0x8, addend: 0x0, symName: __ZN11se_quadtree18get_num_leaves_auxEtyy, symObjAddr: 0x10B4C, symBinAddr: 0x100011490, symSize: 0x10C }
  - { offsetInCU: 0x4CA27, offset: 0x4CA27, size: 0x8, addend: 0x0, symName: __ZN10rank_bv_6411get_ith_bitEyy, symObjAddr: 0x10C58, symBinAddr: 0x10001159C, symSize: 0x124 }
  - { offsetInCU: 0x4CA77, offset: 0x4CA77, size: 0x8, addend: 0x0, symName: __ZN10rank_bv_6410get_8_bitsEy, symObjAddr: 0x10D7C, symBinAddr: 0x1000116C0, symSize: 0x3C }
  - { offsetInCU: 0x4CAAB, offset: 0x4CAAB, size: 0x8, addend: 0x0, symName: __ZN10rank_bv_6411get_16_bitsEy, symObjAddr: 0x10DB8, symBinAddr: 0x1000116FC, symSize: 0x3C }
  - { offsetInCU: 0x4CADF, offset: 0x4CADF, size: 0x8, addend: 0x0, symName: __ZNSt3__16bitsetILm64EEC2B8ue170006Ey, symObjAddr: 0x10DF4, symBinAddr: 0x100011738, symSize: 0x34 }
  - { offsetInCU: 0x4CB18, offset: 0x4CB18, size: 0x8, addend: 0x0, symName: __ZNSt3__18__bitsetILm1ELm64EEC2Ey, symObjAddr: 0x10E28, symBinAddr: 0x10001176C, symSize: 0x20 }
  - { offsetInCU: 0x4CB53, offset: 0x4CB53, size: 0x8, addend: 0x0, symName: __ZN11se_quadtree4getKEv, symObjAddr: 0x10E7C, symBinAddr: 0x1000117C0, symSize: 0x18 }
  - { offsetInCU: 0x4CB79, offset: 0x4CB79, size: 0x8, addend: 0x0, symName: __ZN4qdagC1Ev, symObjAddr: 0x10E94, symBinAddr: 0x1000117D8, symSize: 0x2C }
  - { offsetInCU: 0x4CBA3, offset: 0x4CBA3, size: 0x8, addend: 0x0, symName: __ZNSt3__16vectorIyNS_9allocatorIyEEEaSB8ue170006ERKS3_, symObjAddr: 0x10EC0, symBinAddr: 0x100011804, symSize: 0x68 }
  - { offsetInCU: 0x4CBDA, offset: 0x4CBDA, size: 0x8, addend: 0x0, symName: __ZN4qdagC2Ev, symObjAddr: 0x10F28, symBinAddr: 0x10001186C, symSize: 0x3C }
  - { offsetInCU: 0x4CC04, offset: 0x4CC04, size: 0x8, addend: 0x0, symName: __ZNSt3__16vectorIPNS0_IhNS_9allocatorIhEEEENS1_IS4_EEEC1B8ue170006Ev, symObjAddr: 0x10F64, symBinAddr: 0x1000118A8, symSize: 0x2C }
  - { offsetInCU: 0x4CC2E, offset: 0x4CC2E, size: 0x8, addend: 0x0, symName: __ZNSt3__16vectorIPNS0_IhNS_9allocatorIhEEEENS1_IS4_EEEC2B8ue170006Ev, symObjAddr: 0x10F90, symBinAddr: 0x1000118D4, symSize: 0x4C }
  - { offsetInCU: 0x4CC64, offset: 0x4CC64, size: 0x8, addend: 0x0, symName: __ZNSt3__117__compressed_pairIPPNS_6vectorIhNS_9allocatorIhEEEENS2_IS5_EEEC1B8ue170006IDnNS_18__default_init_tagEEEOT_OT0_, symObjAddr: 0x10FDC, symBinAddr: 0x100011920, symSize: 0x3C }
  - { offsetInCU: 0x4CCBC, offset: 0x4CCBC, size: 0x8, addend: 0x0, symName: __ZNSt3__117__compressed_pairIPPNS_6vectorIhNS_9allocatorIhEEEENS2_IS5_EEEC2B8ue170006IDnNS_18__default_init_tagEEEOT_OT0_, symObjAddr: 0x11024, symBinAddr: 0x100011968, symSize: 0x40 }
  - { offsetInCU: 0x4CD14, offset: 0x4CD14, size: 0x8, addend: 0x0, symName: __ZNSt3__122__compressed_pair_elemIPPNS_6vectorIhNS_9allocatorIhEEEELi0ELb0EEC2B8ue170006IDnvEEOT_, symObjAddr: 0x11064, symBinAddr: 0x1000119A8, symSize: 0x1C }
  - { offsetInCU: 0x4CD56, offset: 0x4CD56, size: 0x8, addend: 0x0, symName: __ZNSt3__122__compressed_pair_elemINS_9allocatorIPNS_6vectorIhNS1_IhEEEEEELi1ELb1EEC2B8ue170006ENS_18__default_init_tagE, symObjAddr: 0x11080, symBinAddr: 0x1000119C4, symSize: 0x2C }
  - { offsetInCU: 0x4CD8B, offset: 0x4CD8B, size: 0x8, addend: 0x0, symName: __ZNSt3__19allocatorIPNS_6vectorIhNS0_IhEEEEEC2B8ue170006Ev, symObjAddr: 0x110AC, symBinAddr: 0x1000119F0, symSize: 0x2C }
  - { offsetInCU: 0x4CDB5, offset: 0x4CDB5, size: 0x8, addend: 0x0, symName: __ZNSt3__116__non_trivial_ifILb1ENS_9allocatorIPNS_6vectorIhNS1_IhEEEEEEEC2B8ue170006Ev, symObjAddr: 0x110D8, symBinAddr: 0x100011A1C, symSize: 0x14 }
  - { offsetInCU: 0x4CDDF, offset: 0x4CDDF, size: 0x8, addend: 0x0, symName: __ZNSt3__16vectorIyNS_9allocatorIyEEE19__copy_assign_allocB8ue170006ERKS3_, symObjAddr: 0x110EC, symBinAddr: 0x100011A30, symSize: 0x2C }
  - { offsetInCU: 0x4CE14, offset: 0x4CE14, size: 0x8, addend: 0x0, symName: __ZNSt3__16vectorIyNS_9allocatorIyEEE6assignIPyLi0EEEvT_S6_, symObjAddr: 0x11118, symBinAddr: 0x100011A5C, symSize: 0x5C }
  - { offsetInCU: 0x4CE69, offset: 0x4CE69, size: 0x8, addend: 0x0, symName: __ZNSt3__16vectorIyNS_9allocatorIyEEE19__copy_assign_allocB8ue170006ERKS3_NS_17integral_constantIbLb0EEE, symObjAddr: 0x11174, symBinAddr: 0x100011AB8, symSize: 0x14 }
  - { offsetInCU: 0x4CEA7, offset: 0x4CEA7, size: 0x8, addend: 0x0, symName: __ZNSt3__16vectorIyNS_9allocatorIyEEE18__assign_with_sizeB8ue170006IPyS5_EEvT_T0_l, symObjAddr: 0x11188, symBinAddr: 0x100011ACC, symSize: 0x164 }
  - { offsetInCU: 0x4CF57, offset: 0x4CF57, size: 0x8, addend: 0x0, symName: __ZNKSt3__16vectorIyNS_9allocatorIyEEE8capacityB8ue170006Ev, symObjAddr: 0x11318, symBinAddr: 0x100011C5C, symSize: 0x40 }
  - { offsetInCU: 0x4CF7D, offset: 0x4CF7D, size: 0x8, addend: 0x0, symName: __ZNSt3__16vectorIyNS_9allocatorIyEEE18__construct_at_endIPyS5_EEvT_T0_m, symObjAddr: 0x113CC, symBinAddr: 0x100011D10, symSize: 0x8C }
  - { offsetInCU: 0x4CFF3, offset: 0x4CFF3, size: 0x8, addend: 0x0, symName: __ZNSt3__16vectorIyNS_9allocatorIyEEE17__destruct_at_endB8ue170006EPy, symObjAddr: 0x1149C, symBinAddr: 0x100011DE0, symSize: 0x4C }
  - { offsetInCU: 0x4D037, offset: 0x4D037, size: 0x8, addend: 0x0, symName: __ZNSt3__16vectorIyNS_9allocatorIyEEE13__vdeallocateEv, symObjAddr: 0x114E8, symBinAddr: 0x100011E2C, symSize: 0x94 }
  - { offsetInCU: 0x4D05F, offset: 0x4D05F, size: 0x8, addend: 0x0, symName: __ZNSt3__16vectorIyNS_9allocatorIyEEE11__vallocateB8ue170006Em, symObjAddr: 0x1157C, symBinAddr: 0x100011EC0, symSize: 0xAC }
  - { offsetInCU: 0x4D0A3, offset: 0x4D0A3, size: 0x8, addend: 0x0, symName: __ZNKSt3__16vectorIyNS_9allocatorIyEEE11__recommendB8ue170006Em, symObjAddr: 0x11628, symBinAddr: 0x100011F6C, symSize: 0xB4 }
  - { offsetInCU: 0x4D0F8, offset: 0x4D0F8, size: 0x8, addend: 0x0, symName: __ZNKSt3__16vectorIyNS_9allocatorIyEEE9__end_capB8ue170006Ev, symObjAddr: 0x116DC, symBinAddr: 0x100012020, symSize: 0x28 }
  - { offsetInCU: 0x4D11E, offset: 0x4D11E, size: 0x8, addend: 0x0, symName: __ZNKSt3__117__compressed_pairIPyNS_9allocatorIyEEE5firstB8ue170006Ev, symObjAddr: 0x11704, symBinAddr: 0x100012048, symSize: 0x24 }
  - { offsetInCU: 0x4D144, offset: 0x4D144, size: 0x8, addend: 0x0, symName: __ZNKSt3__122__compressed_pair_elemIPyLi0ELb0EE5__getB8ue170006Ev, symObjAddr: 0x11728, symBinAddr: 0x10001206C, symSize: 0x14 }
  - { offsetInCU: 0x4D185, offset: 0x4D185, size: 0x8, addend: 0x0, symName: __ZNSt3__16vectorIyNS_9allocatorIyEEE21_ConstructTransactionC1B8ue170006ERS3_m, symObjAddr: 0x117B0, symBinAddr: 0x1000120F4, symSize: 0x3C }
  - { offsetInCU: 0x4D1CD, offset: 0x4D1CD, size: 0x8, addend: 0x0, symName: __ZNSt3__16vectorIyNS_9allocatorIyEEE7__allocB8ue170006Ev, symObjAddr: 0x1186C, symBinAddr: 0x1000121B0, symSize: 0x28 }
  - { offsetInCU: 0x4D1F3, offset: 0x4D1F3, size: 0x8, addend: 0x0, symName: __ZNSt3__16vectorIyNS_9allocatorIyEEE21_ConstructTransactionD1B8ue170006Ev, symObjAddr: 0x11894, symBinAddr: 0x1000121D8, symSize: 0x2C }
  - { offsetInCU: 0x4D21D, offset: 0x4D21D, size: 0x8, addend: 0x0, symName: __ZNSt3__16vectorIyNS_9allocatorIyEEE21_ConstructTransactionC2B8ue170006ERS3_m, symObjAddr: 0x118C0, symBinAddr: 0x100012204, symSize: 0x44 }
  - { offsetInCU: 0x4D287, offset: 0x4D287, size: 0x8, addend: 0x0, symName: __ZNSt3__14pairIPyS1_EC1B8ue170006IS1_S1_LPv0EEEOT_OT0_, symObjAddr: 0x11A34, symBinAddr: 0x100012378, symSize: 0x3C }
  - { offsetInCU: 0x4D2E5, offset: 0x4D2E5, size: 0x8, addend: 0x0, symName: __ZNSt3__14pairIPyS1_EC2B8ue170006IS1_S1_LPv0EEEOT_OT0_, symObjAddr: 0x11A70, symBinAddr: 0x1000123B4, symSize: 0x34 }
  - { offsetInCU: 0x4D343, offset: 0x4D343, size: 0x8, addend: 0x0, symName: __ZNSt3__118__unwrap_iter_implIPyLb1EE8__unwrapB8ue170006ES1_, symObjAddr: 0x11AA4, symBinAddr: 0x1000123E8, symSize: 0x24 }
  - { offsetInCU: 0x4D366, offset: 0x4D366, size: 0x8, addend: 0x0, symName: __ZNSt3__118__unwrap_iter_implIPyLb1EE8__rewrapB8ue170006ES1_S1_, symObjAddr: 0x11ADC, symBinAddr: 0x100012420, symSize: 0x50 }
  - { offsetInCU: 0x4D397, offset: 0x4D397, size: 0x8, addend: 0x0, symName: __ZNSt3__117__compressed_pairIPyNS_9allocatorIyEEE6secondB8ue170006Ev, symObjAddr: 0x11B2C, symBinAddr: 0x100012470, symSize: 0x24 }
  - { offsetInCU: 0x4D3BD, offset: 0x4D3BD, size: 0x8, addend: 0x0, symName: __ZNSt3__122__compressed_pair_elemINS_9allocatorIyEELi1ELb1EE5__getB8ue170006Ev, symObjAddr: 0x11B50, symBinAddr: 0x100012494, symSize: 0x14 }
  - { offsetInCU: 0x4D3E3, offset: 0x4D3E3, size: 0x8, addend: 0x0, symName: __ZNSt3__16vectorIyNS_9allocatorIyEEE21_ConstructTransactionD2B8ue170006Ev, symObjAddr: 0x11B64, symBinAddr: 0x1000124A8, symSize: 0x20 }
  - { offsetInCU: 0x4D417, offset: 0x4D417, size: 0x8, addend: 0x0, symName: __ZNKSt3__114__copy_trivialclB8ue170006IyyLi0EEENS_4pairIPT_PT0_EES4_S4_S6_, symObjAddr: 0x11C7C, symBinAddr: 0x1000125C0, symSize: 0x48 }
  - { offsetInCU: 0x4D47F, offset: 0x4D47F, size: 0x8, addend: 0x0, symName: __ZNSt3__14pairIPyS1_EC1B8ue170006IRS1_S1_LPv0EEEOT_OT0_, symObjAddr: 0x11E0C, symBinAddr: 0x100012750, symSize: 0x3C }
  - { offsetInCU: 0x4D4DD, offset: 0x4D4DD, size: 0x8, addend: 0x0, symName: __ZNSt3__14pairIPyS1_EC2B8ue170006IRS1_S1_LPv0EEEOT_OT0_, symObjAddr: 0x11E48, symBinAddr: 0x10001278C, symSize: 0x34 }
  - { offsetInCU: 0x4D53B, offset: 0x4D53B, size: 0x8, addend: 0x0, symName: __ZNSt3__16vectorIyNS_9allocatorIyEEE22__base_destruct_at_endB8ue170006EPy, symObjAddr: 0x11E7C, symBinAddr: 0x1000127C0, symSize: 0x8C }
  - { offsetInCU: 0x4D57F, offset: 0x4D57F, size: 0x8, addend: 0x0, symName: __ZNKSt3__16vectorIyNS_9allocatorIyEEE17__annotate_shrinkB8ue170006Em, symObjAddr: 0x11F08, symBinAddr: 0x10001284C, symSize: 0xB4 }
  - { offsetInCU: 0x4D5B4, offset: 0x4D5B4, size: 0x8, addend: 0x0, symName: __ZNSt3__116allocator_traitsINS_9allocatorIyEEE7destroyB8ue170006IyvEEvRS2_PT_, symObjAddr: 0x11FBC, symBinAddr: 0x100012900, symSize: 0x2C }
  - { offsetInCU: 0x4D5F1, offset: 0x4D5F1, size: 0x8, addend: 0x0, symName: __ZNSt3__19allocatorIyE7destroyB8ue170006EPy, symObjAddr: 0x11FE8, symBinAddr: 0x10001292C, symSize: 0x14 }
  - { offsetInCU: 0x4D625, offset: 0x4D625, size: 0x8, addend: 0x0, symName: __ZNKSt3__16vectorIyNS_9allocatorIyEEE31__annotate_contiguous_containerB8ue170006EPKvS5_S5_S5_, symObjAddr: 0x11FFC, symBinAddr: 0x100012940, symSize: 0x20 }
  - { offsetInCU: 0x4D67B, offset: 0x4D67B, size: 0x8, addend: 0x0, symName: __ZNKSt3__16vectorIyNS_9allocatorIyEEE4dataB8ue170006Ev, symObjAddr: 0x1201C, symBinAddr: 0x100012960, symSize: 0x28 }
  - { offsetInCU: 0x4D6A1, offset: 0x4D6A1, size: 0x8, addend: 0x0, symName: __ZNKSt3__16vectorIyNS_9allocatorIyEEE17__annotate_deleteB8ue170006Ev, symObjAddr: 0x12044, symBinAddr: 0x100012988, symSize: 0xB8 }
  - { offsetInCU: 0x4D6C7, offset: 0x4D6C7, size: 0x8, addend: 0x0, symName: __ZNSt3__116allocator_traitsINS_9allocatorIyEEE10deallocateB8ue170006ERS2_Pym, symObjAddr: 0x120FC, symBinAddr: 0x100012A40, symSize: 0x34 }
  - { offsetInCU: 0x4D709, offset: 0x4D709, size: 0x8, addend: 0x0, symName: __ZNSt3__16vectorIyNS_9allocatorIyEEE9__end_capB8ue170006Ev, symObjAddr: 0x12130, symBinAddr: 0x100012A74, symSize: 0x28 }
  - { offsetInCU: 0x4D72F, offset: 0x4D72F, size: 0x8, addend: 0x0, symName: __ZNSt3__19allocatorIyE10deallocateB8ue170006EPym, symObjAddr: 0x12158, symBinAddr: 0x100012A9C, symSize: 0x40 }
  - { offsetInCU: 0x4D771, offset: 0x4D771, size: 0x8, addend: 0x0, symName: __ZNSt3__117__compressed_pairIPyNS_9allocatorIyEEE5firstB8ue170006Ev, symObjAddr: 0x12214, symBinAddr: 0x100012B58, symSize: 0x24 }
  - { offsetInCU: 0x4D797, offset: 0x4D797, size: 0x8, addend: 0x0, symName: __ZNSt3__122__compressed_pair_elemIPyLi0ELb0EE5__getB8ue170006Ev, symObjAddr: 0x12238, symBinAddr: 0x100012B7C, symSize: 0x14 }
  - { offsetInCU: 0x4D7BD, offset: 0x4D7BD, size: 0x8, addend: 0x0, symName: __ZNKSt3__16vectorIyNS_9allocatorIyEEE8max_sizeEv, symObjAddr: 0x1224C, symBinAddr: 0x100012B90, symSize: 0x60 }
  - { offsetInCU: 0x4D7E5, offset: 0x4D7E5, size: 0x8, addend: 0x0, symName: __ZNKSt3__16vectorIyNS_9allocatorIyEEE20__throw_length_errorB8ue170006Ev, symObjAddr: 0x122AC, symBinAddr: 0x100012BF0, symSize: 0x1C }
  - { offsetInCU: 0x4D80B, offset: 0x4D80B, size: 0x8, addend: 0x0, symName: __ZNKSt3__16vectorIyNS_9allocatorIyEEE14__annotate_newB8ue170006Em, symObjAddr: 0x12308, symBinAddr: 0x100012C4C, symSize: 0xAC }
  - { offsetInCU: 0x4D84B, offset: 0x4D84B, size: 0x8, addend: 0x0, symName: __ZNSt3__116allocator_traitsINS_9allocatorIyEEE8max_sizeB8ue170006IS2_vEEmRKS2_, symObjAddr: 0x123E0, symBinAddr: 0x100012D24, symSize: 0x24 }
  - { offsetInCU: 0x4D879, offset: 0x4D879, size: 0x8, addend: 0x0, symName: __ZNKSt3__16vectorIyNS_9allocatorIyEEE7__allocB8ue170006Ev, symObjAddr: 0x12404, symBinAddr: 0x100012D48, symSize: 0x28 }
  - { offsetInCU: 0x4D89F, offset: 0x4D89F, size: 0x8, addend: 0x0, symName: __ZNSt3__114numeric_limitsIlE3maxB8ue170006Ev, symObjAddr: 0x1242C, symBinAddr: 0x100012D70, symSize: 0x14 }
  - { offsetInCU: 0x4D8BD, offset: 0x4D8BD, size: 0x8, addend: 0x0, symName: __ZNKSt3__16__lessIvvEclB8ue170006ImmEEbRKT_RKT0_, symObjAddr: 0x12494, symBinAddr: 0x100012DD8, symSize: 0x34 }
  - { offsetInCU: 0x4D911, offset: 0x4D911, size: 0x8, addend: 0x0, symName: __ZNKSt3__19allocatorIyE8max_sizeB8ue170006Ev, symObjAddr: 0x124C8, symBinAddr: 0x100012E0C, symSize: 0x14 }
  - { offsetInCU: 0x4D937, offset: 0x4D937, size: 0x8, addend: 0x0, symName: __ZNKSt3__117__compressed_pairIPyNS_9allocatorIyEEE6secondB8ue170006Ev, symObjAddr: 0x124DC, symBinAddr: 0x100012E20, symSize: 0x24 }
  - { offsetInCU: 0x4D95D, offset: 0x4D95D, size: 0x8, addend: 0x0, symName: __ZNKSt3__122__compressed_pair_elemINS_9allocatorIyEELi1ELb1EE5__getB8ue170006Ev, symObjAddr: 0x12500, symBinAddr: 0x100012E44, symSize: 0x14 }
  - { offsetInCU: 0x4D983, offset: 0x4D983, size: 0x8, addend: 0x0, symName: __ZNSt3__123__libcpp_numeric_limitsIlLb1EE3maxB8ue170006Ev, symObjAddr: 0x12514, symBinAddr: 0x100012E58, symSize: 0x8 }
  - { offsetInCU: 0x4D997, offset: 0x4D997, size: 0x8, addend: 0x0, symName: __ZNSt12length_errorC1B8ue170006EPKc, symObjAddr: 0x12580, symBinAddr: 0x100012EC4, symSize: 0x34 }
  - { offsetInCU: 0x4D9CF, offset: 0x4D9CF, size: 0x8, addend: 0x0, symName: __ZNSt12length_errorC2B8ue170006EPKc, symObjAddr: 0x125B4, symBinAddr: 0x100012EF8, symSize: 0x4C }
  - { offsetInCU: 0x4DA07, offset: 0x4DA07, size: 0x8, addend: 0x0, symName: __ZNSt3__19allocatorIyE8allocateB8ue170006Em, symObjAddr: 0x12600, symBinAddr: 0x100012F44, symSize: 0x58 }
  - { offsetInCU: 0x4DA3B, offset: 0x4DA3B, size: 0x8, addend: 0x0, symName: __ZN4qdagD2Ev, symObjAddr: 0x12780, symBinAddr: 0x1000130C4, symSize: 0x80 }
  - { offsetInCU: 0x4DA65, offset: 0x4DA65, size: 0x8, addend: 0x0, symName: __ZNSt3__16vectorIPNS0_IhNS_9allocatorIhEEEENS1_IS4_EEED1B8ue170006Ev, symObjAddr: 0x12800, symBinAddr: 0x100013144, symSize: 0x2C }
  - { offsetInCU: 0x4DA8F, offset: 0x4DA8F, size: 0x8, addend: 0x0, symName: __ZNSt3__16vectorIPNS0_IhNS_9allocatorIhEEEENS1_IS4_EEED2B8ue170006Ev, symObjAddr: 0x1282C, symBinAddr: 0x100013170, symSize: 0x44 }
  - { offsetInCU: 0x4DAB9, offset: 0x4DAB9, size: 0x8, addend: 0x0, symName: __ZNSt3__16vectorIPNS0_IhNS_9allocatorIhEEEENS1_IS4_EEE16__destroy_vectorC1B8ue170006ERS6_, symObjAddr: 0x12870, symBinAddr: 0x1000131B4, symSize: 0x34 }
  - { offsetInCU: 0x4DAF2, offset: 0x4DAF2, size: 0x8, addend: 0x0, symName: __ZNSt3__16vectorIPNS0_IhNS_9allocatorIhEEEENS1_IS4_EEE16__destroy_vectorclB8ue170006Ev, symObjAddr: 0x128A4, symBinAddr: 0x1000131E8, symSize: 0x90 }
  - { offsetInCU: 0x4DB18, offset: 0x4DB18, size: 0x8, addend: 0x0, symName: __ZNSt3__16vectorIPNS0_IhNS_9allocatorIhEEEENS1_IS4_EEE16__destroy_vectorC2B8ue170006ERS6_, symObjAddr: 0x12934, symBinAddr: 0x100013278, symSize: 0x20 }
  - { offsetInCU: 0x4DB51, offset: 0x4DB51, size: 0x8, addend: 0x0, symName: __ZNSt3__16vectorIPNS0_IhNS_9allocatorIhEEEENS1_IS4_EEE7__clearB8ue170006Ev, symObjAddr: 0x12954, symBinAddr: 0x100013298, symSize: 0x28 }
  - { offsetInCU: 0x4DB77, offset: 0x4DB77, size: 0x8, addend: 0x0, symName: __ZNKSt3__16vectorIPNS0_IhNS_9allocatorIhEEEENS1_IS4_EEE17__annotate_deleteB8ue170006Ev, symObjAddr: 0x1297C, symBinAddr: 0x1000132C0, symSize: 0xB8 }
  - { offsetInCU: 0x4DB9D, offset: 0x4DB9D, size: 0x8, addend: 0x0, symName: __ZNSt3__116allocator_traitsINS_9allocatorIPNS_6vectorIhNS1_IhEEEEEEE10deallocateB8ue170006ERS6_PS5_m, symObjAddr: 0x12A34, symBinAddr: 0x100013378, symSize: 0x34 }
  - { offsetInCU: 0x4DBDF, offset: 0x4DBDF, size: 0x8, addend: 0x0, symName: __ZNSt3__16vectorIPNS0_IhNS_9allocatorIhEEEENS1_IS4_EEE7__allocB8ue170006Ev, symObjAddr: 0x12A68, symBinAddr: 0x1000133AC, symSize: 0x28 }
  - { offsetInCU: 0x4DC05, offset: 0x4DC05, size: 0x8, addend: 0x0, symName: __ZNKSt3__16vectorIPNS0_IhNS_9allocatorIhEEEENS1_IS4_EEE8capacityB8ue170006Ev, symObjAddr: 0x12A90, symBinAddr: 0x1000133D4, symSize: 0x40 }
  - { offsetInCU: 0x4DC2B, offset: 0x4DC2B, size: 0x8, addend: 0x0, symName: __ZNSt3__16vectorIPNS0_IhNS_9allocatorIhEEEENS1_IS4_EEE22__base_destruct_at_endB8ue170006EPS4_, symObjAddr: 0x12AD0, symBinAddr: 0x100013414, symSize: 0x8C }
  - { offsetInCU: 0x4DC6F, offset: 0x4DC6F, size: 0x8, addend: 0x0, symName: __ZNSt3__116allocator_traitsINS_9allocatorIPNS_6vectorIhNS1_IhEEEEEEE7destroyB8ue170006IS5_vEEvRS6_PT_, symObjAddr: 0x12B5C, symBinAddr: 0x1000134A0, symSize: 0x2C }
  - { offsetInCU: 0x4DCAC, offset: 0x4DCAC, size: 0x8, addend: 0x0, symName: __ZNSt3__19allocatorIPNS_6vectorIhNS0_IhEEEEE7destroyB8ue170006EPS4_, symObjAddr: 0x12B9C, symBinAddr: 0x1000134E0, symSize: 0x14 }
  - { offsetInCU: 0x4DCE0, offset: 0x4DCE0, size: 0x8, addend: 0x0, symName: __ZNKSt3__16vectorIPNS0_IhNS_9allocatorIhEEEENS1_IS4_EEE31__annotate_contiguous_containerB8ue170006EPKvS8_S8_S8_, symObjAddr: 0x12BB0, symBinAddr: 0x1000134F4, symSize: 0x20 }
  - { offsetInCU: 0x4DD36, offset: 0x4DD36, size: 0x8, addend: 0x0, symName: __ZNKSt3__16vectorIPNS0_IhNS_9allocatorIhEEEENS1_IS4_EEE4dataB8ue170006Ev, symObjAddr: 0x12BD0, symBinAddr: 0x100013514, symSize: 0x28 }
  - { offsetInCU: 0x4DD5C, offset: 0x4DD5C, size: 0x8, addend: 0x0, symName: __ZNKSt3__16vectorIPNS0_IhNS_9allocatorIhEEEENS1_IS4_EEE4sizeB8ue170006Ev, symObjAddr: 0x12BF8, symBinAddr: 0x10001353C, symSize: 0x28 }
  - { offsetInCU: 0x4DD82, offset: 0x4DD82, size: 0x8, addend: 0x0, symName: __ZNSt3__19allocatorIPNS_6vectorIhNS0_IhEEEEE10deallocateB8ue170006EPS4_m, symObjAddr: 0x12C20, symBinAddr: 0x100013564, symSize: 0x40 }
  - { offsetInCU: 0x4DDC4, offset: 0x4DDC4, size: 0x8, addend: 0x0, symName: __ZNSt3__117__compressed_pairIPPNS_6vectorIhNS_9allocatorIhEEEENS2_IS5_EEE6secondB8ue170006Ev, symObjAddr: 0x12C60, symBinAddr: 0x1000135A4, symSize: 0x24 }
  - { offsetInCU: 0x4DDEA, offset: 0x4DDEA, size: 0x8, addend: 0x0, symName: __ZNSt3__122__compressed_pair_elemINS_9allocatorIPNS_6vectorIhNS1_IhEEEEEELi1ELb1EE5__getB8ue170006Ev, symObjAddr: 0x12C84, symBinAddr: 0x1000135C8, symSize: 0x14 }
  - { offsetInCU: 0x4DE10, offset: 0x4DE10, size: 0x8, addend: 0x0, symName: __ZNKSt3__16vectorIPNS0_IhNS_9allocatorIhEEEENS1_IS4_EEE9__end_capB8ue170006Ev, symObjAddr: 0x12C98, symBinAddr: 0x1000135DC, symSize: 0x28 }
  - { offsetInCU: 0x4DE36, offset: 0x4DE36, size: 0x8, addend: 0x0, symName: __ZNKSt3__117__compressed_pairIPPNS_6vectorIhNS_9allocatorIhEEEENS2_IS5_EEE5firstB8ue170006Ev, symObjAddr: 0x12CC0, symBinAddr: 0x100013604, symSize: 0x24 }
  - { offsetInCU: 0x4DE5C, offset: 0x4DE5C, size: 0x8, addend: 0x0, symName: __ZNKSt3__122__compressed_pair_elemIPPNS_6vectorIhNS_9allocatorIhEEEELi0ELb0EE5__getB8ue170006Ev, symObjAddr: 0x12CE4, symBinAddr: 0x100013628, symSize: 0x14 }
  - { offsetInCU: 0x4DE82, offset: 0x4DE82, size: 0x8, addend: 0x0, symName: __ZN4qdagC2EPNSt3__16vectorIyNS0_9allocatorIyEEEERS4_yhh, symObjAddr: 0x12CF8, symBinAddr: 0x10001363C, symSize: 0x190 }
  - { offsetInCU: 0x4DF0E, offset: 0x4DF0E, size: 0x8, addend: 0x0, symName: __ZN11se_quadtreeC1EPNSt3__16vectorIyNS0_9allocatorIyEEEEyhh, symObjAddr: 0x12E88, symBinAddr: 0x1000137CC, symSize: 0x4C }
  - { offsetInCU: 0x4DF74, offset: 0x4DF74, size: 0x8, addend: 0x0, symName: __ZN11se_quadtreeC2EPNSt3__16vectorIyNS0_9allocatorIyEEEEyhh, symObjAddr: 0x12F08, symBinAddr: 0x10001384C, symSize: 0x278 }
  - { offsetInCU: 0x4E004, offset: 0x4E004, size: 0x8, addend: 0x0, symName: __Z3logB8ue170006IyENSt3__19enable_ifIXsr3std11is_integralIT_EE5valueEdE4typeES2_, symObjAddr: 0x13180, symBinAddr: 0x100013AC4, symSize: 0x28 }
  - { offsetInCU: 0x4E03B, offset: 0x4E03B, size: 0x8, addend: 0x0, symName: __Z3logB8ue170006IhENSt3__19enable_ifIXsr3std11is_integralIT_EE5valueEdE4typeES2_, symObjAddr: 0x131A8, symBinAddr: 0x100013AEC, symSize: 0x28 }
  - { offsetInCU: 0x4E073, offset: 0x4E073, size: 0x8, addend: 0x0, symName: __ZNSt3__16vectorIyNS_9allocatorIyEEE7reserveEm, symObjAddr: 0x131D0, symBinAddr: 0x100013B14, symSize: 0xE8 }
  - { offsetInCU: 0x4E0CF, offset: 0x4E0CF, size: 0x8, addend: 0x0, symName: __ZN11se_quadtree20modify_to_bit_vectorENSt3__16vectorIyNS0_9allocatorIyEEEEty, symObjAddr: 0x132B8, symBinAddr: 0x100013BFC, symSize: 0x144 }
  - { offsetInCU: 0x4E180, offset: 0x4E180, size: 0x8, addend: 0x0, symName: __ZNSt3__16vectorIyNS_9allocatorIyEEEC1ERKS3_, symObjAddr: 0x133FC, symBinAddr: 0x100013D40, symSize: 0x34 }
  - { offsetInCU: 0x4E1BB, offset: 0x4E1BB, size: 0x8, addend: 0x0, symName: __ZNSt3__114__split_bufferIyRNS_9allocatorIyEEEC1EmmS3_, symObjAddr: 0x13430, symBinAddr: 0x100013D74, symSize: 0x44 }
  - { offsetInCU: 0x4E211, offset: 0x4E211, size: 0x8, addend: 0x0, symName: __ZNSt3__114__split_bufferIyRNS_9allocatorIyEEED1Ev, symObjAddr: 0x13584, symBinAddr: 0x100013EC8, symSize: 0x2C }
  - { offsetInCU: 0x4E23D, offset: 0x4E23D, size: 0x8, addend: 0x0, symName: __ZNSt3__114__split_bufferIyRNS_9allocatorIyEEEC2EmmS3_, symObjAddr: 0x135B0, symBinAddr: 0x100013EF4, symSize: 0xD4 }
  - { offsetInCU: 0x4E2B0, offset: 0x4E2B0, size: 0x8, addend: 0x0, symName: __ZNSt3__117__compressed_pairIPyRNS_9allocatorIyEEEC1B8ue170006IDnS4_EEOT_OT0_, symObjAddr: 0x13684, symBinAddr: 0x100013FC8, symSize: 0x3C }
  - { offsetInCU: 0x4E308, offset: 0x4E308, size: 0x8, addend: 0x0, symName: __ZNSt3__114__split_bufferIyRNS_9allocatorIyEEE7__allocB8ue170006Ev, symObjAddr: 0x136C0, symBinAddr: 0x100014004, symSize: 0x28 }
  - { offsetInCU: 0x4E32E, offset: 0x4E32E, size: 0x8, addend: 0x0, symName: __ZNSt3__114__split_bufferIyRNS_9allocatorIyEEE9__end_capB8ue170006Ev, symObjAddr: 0x136E8, symBinAddr: 0x10001402C, symSize: 0x28 }
  - { offsetInCU: 0x4E354, offset: 0x4E354, size: 0x8, addend: 0x0, symName: __ZNSt3__117__compressed_pairIPyRNS_9allocatorIyEEEC2B8ue170006IDnS4_EEOT_OT0_, symObjAddr: 0x13710, symBinAddr: 0x100014054, symSize: 0x48 }
  - { offsetInCU: 0x4E3AC, offset: 0x4E3AC, size: 0x8, addend: 0x0, symName: __ZNSt3__122__compressed_pair_elemIPyLi0ELb0EEC2B8ue170006IDnvEEOT_, symObjAddr: 0x13758, symBinAddr: 0x10001409C, symSize: 0x1C }
  - { offsetInCU: 0x4E3EE, offset: 0x4E3EE, size: 0x8, addend: 0x0, symName: __ZNSt3__122__compressed_pair_elemIRNS_9allocatorIyEELi1ELb0EEC2B8ue170006IS3_vEEOT_, symObjAddr: 0x13774, symBinAddr: 0x1000140B8, symSize: 0x20 }
  - { offsetInCU: 0x4E430, offset: 0x4E430, size: 0x8, addend: 0x0, symName: __ZNSt3__117__compressed_pairIPyRNS_9allocatorIyEEE6secondB8ue170006Ev, symObjAddr: 0x13794, symBinAddr: 0x1000140D8, symSize: 0x28 }
  - { offsetInCU: 0x4E456, offset: 0x4E456, size: 0x8, addend: 0x0, symName: __ZNSt3__122__compressed_pair_elemIRNS_9allocatorIyEELi1ELb0EE5__getB8ue170006Ev, symObjAddr: 0x137BC, symBinAddr: 0x100014100, symSize: 0x18 }
  - { offsetInCU: 0x4E47C, offset: 0x4E47C, size: 0x8, addend: 0x0, symName: __ZNSt3__117__compressed_pairIPyRNS_9allocatorIyEEE5firstB8ue170006Ev, symObjAddr: 0x137D4, symBinAddr: 0x100014118, symSize: 0x24 }
  - { offsetInCU: 0x4E4A2, offset: 0x4E4A2, size: 0x8, addend: 0x0, symName: __ZNSt3__116reverse_iteratorIPyEC1B8ue170006ES1_, symObjAddr: 0x13870, symBinAddr: 0x1000141B4, symSize: 0x34 }
  - { offsetInCU: 0x4E4DA, offset: 0x4E4DA, size: 0x8, addend: 0x0, symName: __ZNKSt3__116reverse_iteratorIPyE4baseB8ue170006Ev, symObjAddr: 0x138A4, symBinAddr: 0x1000141E8, symSize: 0x18 }
  - { offsetInCU: 0x4E526, offset: 0x4E526, size: 0x8, addend: 0x0, symName: __ZNKSt3__111__move_loopINS_17_ClassicAlgPolicyEEclB8ue170006INS_16reverse_iteratorIPyEES6_S6_EENS_4pairIT_T1_EES8_T0_S9_, symObjAddr: 0x13BE8, symBinAddr: 0x10001452C, symSize: 0xA0 }
  - { offsetInCU: 0x4E591, offset: 0x4E591, size: 0x8, addend: 0x0, symName: __ZNSt3__18_IterOpsINS_17_ClassicAlgPolicyEE11__iter_moveB8ue170006IRNS_16reverse_iteratorIPyEEEENS_9enable_ifIXsr12is_referenceIDTdeclsr3stdE7declvalIRT_EEEEE5valueEDTclsr3stdE4movedeclsr3stdE7declvalISA_EEEEE4typeEOS9_, symObjAddr: 0x13E1C, symBinAddr: 0x100014760, symSize: 0x28 }
  - { offsetInCU: 0x4E5BD, offset: 0x4E5BD, size: 0x8, addend: 0x0, symName: __ZNKSt3__116reverse_iteratorIPyEdeB8ue170006Ev, symObjAddr: 0x13E44, symBinAddr: 0x100014788, symSize: 0x28 }
  - { offsetInCU: 0x4E5F1, offset: 0x4E5F1, size: 0x8, addend: 0x0, symName: __ZNSt3__116reverse_iteratorIPyEppB8ue170006Ev, symObjAddr: 0x13E6C, symBinAddr: 0x1000147B0, symSize: 0x20 }
  - { offsetInCU: 0x4E617, offset: 0x4E617, size: 0x8, addend: 0x0, symName: __ZNSt3__18_IterOpsINS_17_ClassicAlgPolicyEE25__validate_iter_referenceB8ue170006IRNS_16reverse_iteratorIPyEEEEvv, symObjAddr: 0x13E8C, symBinAddr: 0x1000147D0, symSize: 0x4 }
  - { offsetInCU: 0x4E635, offset: 0x4E635, size: 0x8, addend: 0x0, symName: __ZNSt3__118__unwrap_iter_implINS_16reverse_iteratorIPyEELb0EE8__unwrapB8ue170006ES3_, symObjAddr: 0x13E90, symBinAddr: 0x1000147D4, symSize: 0x24 }
  - { offsetInCU: 0x4E65E, offset: 0x4E65E, size: 0x8, addend: 0x0, symName: __ZNSt3__14pairINS_16reverse_iteratorIPyEES3_EC1B8ue170006IS3_S3_LPv0EEEOT_OT0_, symObjAddr: 0x13EB4, symBinAddr: 0x1000147F8, symSize: 0x3C }
  - { offsetInCU: 0x4E6BC, offset: 0x4E6BC, size: 0x8, addend: 0x0, symName: __ZNSt3__14pairINS_16reverse_iteratorIPyEES3_EC2B8ue170006IS3_S3_LPv0EEEOT_OT0_, symObjAddr: 0x13EF0, symBinAddr: 0x100014834, symSize: 0x34 }
  - { offsetInCU: 0x4E71A, offset: 0x4E71A, size: 0x8, addend: 0x0, symName: __ZNSt3__118__unwrap_iter_implINS_16reverse_iteratorIPyEELb0EE8__rewrapB8ue170006ES3_S3_, symObjAddr: 0x13F24, symBinAddr: 0x100014868, symSize: 0x2C }
  - { offsetInCU: 0x4E748, offset: 0x4E748, size: 0x8, addend: 0x0, symName: __ZNSt3__116reverse_iteratorIPyEC2B8ue170006ES1_, symObjAddr: 0x13F50, symBinAddr: 0x100014894, symSize: 0x28 }
  - { offsetInCU: 0x4E780, offset: 0x4E780, size: 0x8, addend: 0x0, symName: __ZNSt3__114__split_bufferIyRNS_9allocatorIyEEED2Ev, symObjAddr: 0x13F78, symBinAddr: 0x1000148BC, symSize: 0x8C }
  - { offsetInCU: 0x4E7AC, offset: 0x4E7AC, size: 0x8, addend: 0x0, symName: __ZNSt3__114__split_bufferIyRNS_9allocatorIyEEE5clearB8ue170006Ev, symObjAddr: 0x14004, symBinAddr: 0x100014948, symSize: 0x28 }
  - { offsetInCU: 0x4E7D2, offset: 0x4E7D2, size: 0x8, addend: 0x0, symName: __ZNKSt3__114__split_bufferIyRNS_9allocatorIyEEE8capacityB8ue170006Ev, symObjAddr: 0x1402C, symBinAddr: 0x100014970, symSize: 0x40 }
  - { offsetInCU: 0x4E7F8, offset: 0x4E7F8, size: 0x8, addend: 0x0, symName: __ZNSt3__114__split_bufferIyRNS_9allocatorIyEEE17__destruct_at_endB8ue170006EPy, symObjAddr: 0x1406C, symBinAddr: 0x1000149B0, symSize: 0x2C }
  - { offsetInCU: 0x4E82C, offset: 0x4E82C, size: 0x8, addend: 0x0, symName: __ZNSt3__114__split_bufferIyRNS_9allocatorIyEEE17__destruct_at_endB8ue170006EPyNS_17integral_constantIbLb0EEE, symObjAddr: 0x14098, symBinAddr: 0x1000149DC, symSize: 0x80 }
  - { offsetInCU: 0x4E86D, offset: 0x4E86D, size: 0x8, addend: 0x0, symName: __ZNKSt3__114__split_bufferIyRNS_9allocatorIyEEE9__end_capB8ue170006Ev, symObjAddr: 0x14118, symBinAddr: 0x100014A5C, symSize: 0x28 }
  - { offsetInCU: 0x4E893, offset: 0x4E893, size: 0x8, addend: 0x0, symName: __ZNKSt3__117__compressed_pairIPyRNS_9allocatorIyEEE5firstB8ue170006Ev, symObjAddr: 0x14140, symBinAddr: 0x100014A84, symSize: 0x24 }
  - { offsetInCU: 0x4E8B9, offset: 0x4E8B9, size: 0x8, addend: 0x0, symName: __ZN4sdsl10int_vectorILh1EEC1Ey, symObjAddr: 0x14164, symBinAddr: 0x100014AA8, symSize: 0x3C }
  - { offsetInCU: 0x4E8F2, offset: 0x4E8F2, size: 0x8, addend: 0x0, symName: __ZNSt3__16vectorIyNS_9allocatorIyEEE5beginB8ue170006Ev, symObjAddr: 0x141A0, symBinAddr: 0x100014AE4, symSize: 0x30 }
  - { offsetInCU: 0x4E91A, offset: 0x4E91A, size: 0x8, addend: 0x0, symName: __ZNSt3__16vectorIyNS_9allocatorIyEEE3endB8ue170006Ev, symObjAddr: 0x141D0, symBinAddr: 0x100014B14, symSize: 0x30 }
  - { offsetInCU: 0x4E942, offset: 0x4E942, size: 0x8, addend: 0x0, symName: __ZNKSt3__111__wrap_iterIPyEdeB8ue170006Ev, symObjAddr: 0x14234, symBinAddr: 0x100014B78, symSize: 0x18 }
  - { offsetInCU: 0x4E968, offset: 0x4E968, size: 0x8, addend: 0x0, symName: __ZN4sdsl10int_vectorILh1EEixERKy, symObjAddr: 0x1424C, symBinAddr: 0x100014B90, symSize: 0x68 }
  - { offsetInCU: 0x4E9AE, offset: 0x4E9AE, size: 0x8, addend: 0x0, symName: __ZN4sdsl20int_vector_referenceINS_10int_vectorILh1EEEEaSEb, symObjAddr: 0x142B4, symBinAddr: 0x100014BF8, symSize: 0x6C }
  - { offsetInCU: 0x4E9E3, offset: 0x4E9E3, size: 0x8, addend: 0x0, symName: __ZNSt3__111__wrap_iterIPyEppB8ue170006Ev, symObjAddr: 0x14320, symBinAddr: 0x100014C64, symSize: 0x20 }
  - { offsetInCU: 0x4EA09, offset: 0x4EA09, size: 0x8, addend: 0x0, symName: __ZN10rank_bv_64C1ERN4sdsl10int_vectorILh1EEE, symObjAddr: 0x14340, symBinAddr: 0x100014C84, symSize: 0x34 }
  - { offsetInCU: 0x4EA41, offset: 0x4EA41, size: 0x8, addend: 0x0, symName: __ZN4sdsl10int_vectorILh1EED1Ev, symObjAddr: 0x14374, symBinAddr: 0x100014CB8, symSize: 0x2C }
  - { offsetInCU: 0x4EA6D, offset: 0x4EA6D, size: 0x8, addend: 0x0, symName: __ZN4sdsl10int_vectorILh1EEC1Eyyh, symObjAddr: 0x143A0, symBinAddr: 0x100014CE4, symSize: 0x44 }
  - { offsetInCU: 0x4EAC6, offset: 0x4EAC6, size: 0x8, addend: 0x0, symName: __ZN4sdsl10int_vectorILh1EEC2Eyyh, symObjAddr: 0x143E4, symBinAddr: 0x100014D28, symSize: 0x70 }
  - { offsetInCU: 0x4EB1F, offset: 0x4EB1F, size: 0x8, addend: 0x0, symName: __ZN4sdsl10int_vectorILh1EE11raw_wrapperC1ERKS1_, symObjAddr: 0x14454, symBinAddr: 0x100014D98, symSize: 0x34 }
  - { offsetInCU: 0x4EB58, offset: 0x4EB58, size: 0x8, addend: 0x0, symName: __ZN4sdsl10int_vectorILh1EE5widthEh, symObjAddr: 0x14488, symBinAddr: 0x100014DCC, symSize: 0x30 }
  - { offsetInCU: 0x4EB8D, offset: 0x4EB8D, size: 0x8, addend: 0x0, symName: __ZN4sdsl10int_vectorILh1EE6resizeEy, symObjAddr: 0x144B8, symBinAddr: 0x100014DFC, symSize: 0x50 }
  - { offsetInCU: 0x4EBC2, offset: 0x4EBC2, size: 0x8, addend: 0x0, symName: __ZN4sdsl10int_vectorILh1EE11raw_wrapperC2ERKS1_, symObjAddr: 0x1480C, symBinAddr: 0x100015150, symSize: 0x20 }
  - { offsetInCU: 0x4EBFB, offset: 0x4EBFB, size: 0x8, addend: 0x0, symName: __ZN4sdsl16int_vector_traitILh1EE9set_widthEhRh, symObjAddr: 0x1482C, symBinAddr: 0x100015170, symSize: 0x14 }
  - { offsetInCU: 0x4EC2C, offset: 0x4EC2C, size: 0x8, addend: 0x0, symName: __ZN4sdsl10int_vectorILh1EE10bit_resizeEy, symObjAddr: 0x14840, symBinAddr: 0x100015184, symSize: 0x2C }
  - { offsetInCU: 0x4EC63, offset: 0x4EC63, size: 0x8, addend: 0x0, symName: __ZNK4sdsl10int_vectorILh1EE5widthEv, symObjAddr: 0x1486C, symBinAddr: 0x1000151B0, symSize: 0x18 }
  - { offsetInCU: 0x4EC8E, offset: 0x4EC8E, size: 0x8, addend: 0x0, symName: __ZN4sdsl14memory_manager6resizeINS_10int_vectorILh1EEEEEvRT_NS4_9size_typeE, symObjAddr: 0x14884, symBinAddr: 0x1000151C8, symSize: 0x21C }
  - { offsetInCU: 0x4ED40, offset: 0x4ED40, size: 0x8, addend: 0x0, symName: __ZN4sdsl14memory_manager11realloc_memEPym, symObjAddr: 0x14AA0, symBinAddr: 0x1000153E4, symSize: 0xC0 }
  - { offsetInCU: 0x4ED91, offset: 0x4ED91, size: 0x8, addend: 0x0, symName: __ZNK4sdsl10int_vectorILh1EE8bit_sizeEv, symObjAddr: 0x14B60, symBinAddr: 0x1000154A4, symSize: 0x18 }
  - { offsetInCU: 0x4EDB7, offset: 0x4EDB7, size: 0x8, addend: 0x0, symName: __ZNK4sdsl10int_vectorILh1EE8capacityEv, symObjAddr: 0x14B78, symBinAddr: 0x1000154BC, symSize: 0x24 }
  - { offsetInCU: 0x4EDDD, offset: 0x4EDDD, size: 0x8, addend: 0x0, symName: __ZN4sdsl4bits9write_intEPyyhh, symObjAddr: 0x14B9C, symBinAddr: 0x1000154E0, symSize: 0x150 }
  - { offsetInCU: 0x4EE30, offset: 0x4EE30, size: 0x8, addend: 0x0, symName: __ZN4sdsl14memory_monitor6recordEx, symObjAddr: 0x14CEC, symBinAddr: 0x100015630, symSize: 0x1EC }
  - { offsetInCU: 0x4EE83, offset: 0x4EE83, size: 0x8, addend: 0x0, symName: __ZN4sdsl18hugepage_allocator16in_address_spaceEPv, symObjAddr: 0x14F74, symBinAddr: 0x1000158B8, symSize: 0xAC }
  - { offsetInCU: 0x4EEB8, offset: 0x4EEB8, size: 0x8, addend: 0x0, symName: __ZN4sdsl18hugepage_allocatorC1Ev, symObjAddr: 0x15020, symBinAddr: 0x100015964, symSize: 0x2C }
  - { offsetInCU: 0x4EEE4, offset: 0x4EEE4, size: 0x8, addend: 0x0, symName: __ZN4sdsl18hugepage_allocatorD1Ev, symObjAddr: 0x1504C, symBinAddr: 0x100015990, symSize: 0x2C }
  - { offsetInCU: 0x4EF10, offset: 0x4EF10, size: 0x8, addend: 0x0, symName: __ZN4sdsl18hugepage_allocatorC2Ev, symObjAddr: 0x15078, symBinAddr: 0x1000159BC, symSize: 0x40 }
  - { offsetInCU: 0x4EF3C, offset: 0x4EF3C, size: 0x8, addend: 0x0, symName: __ZNSt3__18multimapImPN4sdsl8mm_blockENS_4lessImEENS_9allocatorINS_4pairIKmS3_EEEEEC1B8ue170006Ev, symObjAddr: 0x150B8, symBinAddr: 0x1000159FC, symSize: 0x2C }
  - { offsetInCU: 0x4EF66, offset: 0x4EF66, size: 0x8, addend: 0x0, symName: __ZNSt3__18multimapImPN4sdsl8mm_blockENS_4lessImEENS_9allocatorINS_4pairIKmS3_EEEEEC2B8ue170006Ev, symObjAddr: 0x150E4, symBinAddr: 0x100015A28, symSize: 0x40 }
  - { offsetInCU: 0x4EF90, offset: 0x4EF90, size: 0x8, addend: 0x0, symName: __ZNSt3__119__map_value_compareImNS_12__value_typeImPN4sdsl8mm_blockEEENS_4lessImEELb1EEC1B8ue170006ES7_, symObjAddr: 0x15124, symBinAddr: 0x100015A68, symSize: 0x2C }
  - { offsetInCU: 0x4EFC9, offset: 0x4EFC9, size: 0x8, addend: 0x0, symName: __ZNSt3__16__treeINS_12__value_typeImPN4sdsl8mm_blockEEENS_19__map_value_compareImS5_NS_4lessImEELb1EEENS_9allocatorIS5_EEEC1ERKS9_, symObjAddr: 0x15150, symBinAddr: 0x100015A94, symSize: 0x34 }
  - { offsetInCU: 0x4F004, offset: 0x4F004, size: 0x8, addend: 0x0, symName: __ZNSt3__119__map_value_compareImNS_12__value_typeImPN4sdsl8mm_blockEEENS_4lessImEELb1EEC2B8ue170006ES7_, symObjAddr: 0x15184, symBinAddr: 0x100015AC8, symSize: 0x14 }
  - { offsetInCU: 0x4F03D, offset: 0x4F03D, size: 0x8, addend: 0x0, symName: __ZNSt3__16__treeINS_12__value_typeImPN4sdsl8mm_blockEEENS_19__map_value_compareImS5_NS_4lessImEELb1EEENS_9allocatorIS5_EEEC2ERKS9_, symObjAddr: 0x15198, symBinAddr: 0x100015ADC, symSize: 0x7C }
  - { offsetInCU: 0x4F078, offset: 0x4F078, size: 0x8, addend: 0x0, symName: __ZNSt3__117__compressed_pairINS_15__tree_end_nodeIPNS_16__tree_node_baseIPvEEEENS_9allocatorINS_11__tree_nodeINS_12__value_typeImPN4sdsl8mm_blockEEES3_EEEEEC1B8ue170006ILb1EvEEv, symObjAddr: 0x15214, symBinAddr: 0x100015B58, symSize: 0x2C }
  - { offsetInCU: 0x4F0B3, offset: 0x4F0B3, size: 0x8, addend: 0x0, symName: __ZNSt3__117__compressed_pairImNS_19__map_value_compareImNS_12__value_typeImPN4sdsl8mm_blockEEENS_4lessImEELb1EEEEC1B8ue170006IiRKS9_EEOT_OT0_, symObjAddr: 0x15240, symBinAddr: 0x100015B84, symSize: 0x3C }
  - { offsetInCU: 0x4F10B, offset: 0x4F10B, size: 0x8, addend: 0x0, symName: __ZNSt3__16__treeINS_12__value_typeImPN4sdsl8mm_blockEEENS_19__map_value_compareImS5_NS_4lessImEELb1EEENS_9allocatorIS5_EEE10__end_nodeB8ue170006Ev, symObjAddr: 0x1527C, symBinAddr: 0x100015BC0, symSize: 0x2C }
  - { offsetInCU: 0x4F131, offset: 0x4F131, size: 0x8, addend: 0x0, symName: __ZNSt3__16__treeINS_12__value_typeImPN4sdsl8mm_blockEEENS_19__map_value_compareImS5_NS_4lessImEELb1EEENS_9allocatorIS5_EEE12__begin_nodeB8ue170006Ev, symObjAddr: 0x152A8, symBinAddr: 0x100015BEC, symSize: 0x14 }
  - { offsetInCU: 0x4F157, offset: 0x4F157, size: 0x8, addend: 0x0, symName: __ZNSt3__117__compressed_pairINS_15__tree_end_nodeIPNS_16__tree_node_baseIPvEEEENS_9allocatorINS_11__tree_nodeINS_12__value_typeImPN4sdsl8mm_blockEEES3_EEEEEC2B8ue170006ILb1EvEEv, symObjAddr: 0x152BC, symBinAddr: 0x100015C00, symSize: 0x34 }
  - { offsetInCU: 0x4F18C, offset: 0x4F18C, size: 0x8, addend: 0x0, symName: __ZNSt3__122__compressed_pair_elemINS_15__tree_end_nodeIPNS_16__tree_node_baseIPvEEEELi0ELb0EEC2B8ue170006ENS_16__value_init_tagE, symObjAddr: 0x152F0, symBinAddr: 0x100015C34, symSize: 0x2C }
  - { offsetInCU: 0x4F1C1, offset: 0x4F1C1, size: 0x8, addend: 0x0, symName: __ZNSt3__122__compressed_pair_elemINS_9allocatorINS_11__tree_nodeINS_12__value_typeImPN4sdsl8mm_blockEEEPvEEEELi1ELb1EEC2B8ue170006ENS_16__value_init_tagE, symObjAddr: 0x1531C, symBinAddr: 0x100015C60, symSize: 0x2C }
  - { offsetInCU: 0x4F1F6, offset: 0x4F1F6, size: 0x8, addend: 0x0, symName: __ZNSt3__115__tree_end_nodeIPNS_16__tree_node_baseIPvEEEC1B8ue170006Ev, symObjAddr: 0x15348, symBinAddr: 0x100015C8C, symSize: 0x2C }
  - { offsetInCU: 0x4F220, offset: 0x4F220, size: 0x8, addend: 0x0, symName: __ZNSt3__115__tree_end_nodeIPNS_16__tree_node_baseIPvEEEC2B8ue170006Ev, symObjAddr: 0x15374, symBinAddr: 0x100015CB8, symSize: 0x18 }
  - { offsetInCU: 0x4F24A, offset: 0x4F24A, size: 0x8, addend: 0x0, symName: __ZNSt3__19allocatorINS_11__tree_nodeINS_12__value_typeImPN4sdsl8mm_blockEEEPvEEEC2B8ue170006Ev, symObjAddr: 0x1538C, symBinAddr: 0x100015CD0, symSize: 0x2C }
  - { offsetInCU: 0x4F274, offset: 0x4F274, size: 0x8, addend: 0x0, symName: __ZNSt3__116__non_trivial_ifILb1ENS_9allocatorINS_11__tree_nodeINS_12__value_typeImPN4sdsl8mm_blockEEEPvEEEEEC2B8ue170006Ev, symObjAddr: 0x153B8, symBinAddr: 0x100015CFC, symSize: 0x14 }
  - { offsetInCU: 0x4F29E, offset: 0x4F29E, size: 0x8, addend: 0x0, symName: __ZNSt3__117__compressed_pairImNS_19__map_value_compareImNS_12__value_typeImPN4sdsl8mm_blockEEENS_4lessImEELb1EEEEC2B8ue170006IiRKS9_EEOT_OT0_, symObjAddr: 0x153CC, symBinAddr: 0x100015D10, symSize: 0x44 }
  - { offsetInCU: 0x4F2F6, offset: 0x4F2F6, size: 0x8, addend: 0x0, symName: __ZNSt3__122__compressed_pair_elemImLi0ELb0EEC2B8ue170006IivEEOT_, symObjAddr: 0x15410, symBinAddr: 0x100015D54, symSize: 0x24 }
  - { offsetInCU: 0x4F338, offset: 0x4F338, size: 0x8, addend: 0x0, symName: __ZNSt3__122__compressed_pair_elemINS_19__map_value_compareImNS_12__value_typeImPN4sdsl8mm_blockEEENS_4lessImEELb1EEELi1ELb1EEC2B8ue170006IRKS9_vEEOT_, symObjAddr: 0x15434, symBinAddr: 0x100015D78, symSize: 0x18 }
  - { offsetInCU: 0x4F37A, offset: 0x4F37A, size: 0x8, addend: 0x0, symName: __ZNSt3__114pointer_traitsIPNS_15__tree_end_nodeIPNS_16__tree_node_baseIPvEEEEE10pointer_toB8ue170006ERS6_, symObjAddr: 0x1544C, symBinAddr: 0x100015D90, symSize: 0x14 }
  - { offsetInCU: 0x4F39D, offset: 0x4F39D, size: 0x8, addend: 0x0, symName: __ZNSt3__117__compressed_pairINS_15__tree_end_nodeIPNS_16__tree_node_baseIPvEEEENS_9allocatorINS_11__tree_nodeINS_12__value_typeImPN4sdsl8mm_blockEEES3_EEEEE5firstB8ue170006Ev, symObjAddr: 0x15460, symBinAddr: 0x100015DA4, symSize: 0x24 }
  - { offsetInCU: 0x4F3C3, offset: 0x4F3C3, size: 0x8, addend: 0x0, symName: __ZNSt3__122__compressed_pair_elemINS_15__tree_end_nodeIPNS_16__tree_node_baseIPvEEEELi0ELb0EE5__getB8ue170006Ev, symObjAddr: 0x15484, symBinAddr: 0x100015DC8, symSize: 0x14 }
  - { offsetInCU: 0x4F3E9, offset: 0x4F3E9, size: 0x8, addend: 0x0, symName: __ZN4sdsl18hugepage_allocatorD2Ev, symObjAddr: 0x15498, symBinAddr: 0x100015DDC, symSize: 0x30 }
  - { offsetInCU: 0x4F415, offset: 0x4F415, size: 0x8, addend: 0x0, symName: __ZNSt3__18multimapImPN4sdsl8mm_blockENS_4lessImEENS_9allocatorINS_4pairIKmS3_EEEEED1B8ue170006Ev, symObjAddr: 0x154C8, symBinAddr: 0x100015E0C, symSize: 0x2C }
  - { offsetInCU: 0x4F43F, offset: 0x4F43F, size: 0x8, addend: 0x0, symName: __ZNSt3__18multimapImPN4sdsl8mm_blockENS_4lessImEENS_9allocatorINS_4pairIKmS3_EEEEED2B8ue170006Ev, symObjAddr: 0x154F4, symBinAddr: 0x100015E38, symSize: 0x2C }
  - { offsetInCU: 0x4F469, offset: 0x4F469, size: 0x8, addend: 0x0, symName: __ZNSt3__16__treeINS_12__value_typeImPN4sdsl8mm_blockEEENS_19__map_value_compareImS5_NS_4lessImEELb1EEENS_9allocatorIS5_EEED1Ev, symObjAddr: 0x15520, symBinAddr: 0x100015E64, symSize: 0x2C }
  - { offsetInCU: 0x4F495, offset: 0x4F495, size: 0x8, addend: 0x0, symName: __ZNSt3__16__treeINS_12__value_typeImPN4sdsl8mm_blockEEENS_19__map_value_compareImS5_NS_4lessImEELb1EEENS_9allocatorIS5_EEED2Ev, symObjAddr: 0x1554C, symBinAddr: 0x100015E90, symSize: 0x38 }
  - { offsetInCU: 0x4F4C1, offset: 0x4F4C1, size: 0x8, addend: 0x0, symName: __ZNSt3__16__treeINS_12__value_typeImPN4sdsl8mm_blockEEENS_19__map_value_compareImS5_NS_4lessImEELb1EEENS_9allocatorIS5_EEE7destroyEPNS_11__tree_nodeIS5_PvEE, symObjAddr: 0x15584, symBinAddr: 0x100015EC8, symSize: 0xAC }
  - { offsetInCU: 0x4F50D, offset: 0x4F50D, size: 0x8, addend: 0x0, symName: __ZNKSt3__16__treeINS_12__value_typeImPN4sdsl8mm_blockEEENS_19__map_value_compareImS5_NS_4lessImEELb1EEENS_9allocatorIS5_EEE6__rootB8ue170006Ev, symObjAddr: 0x15630, symBinAddr: 0x100015F74, symSize: 0x28 }
  - { offsetInCU: 0x4F533, offset: 0x4F533, size: 0x8, addend: 0x0, symName: __ZNSt3__16__treeINS_12__value_typeImPN4sdsl8mm_blockEEENS_19__map_value_compareImS5_NS_4lessImEELb1EEENS_9allocatorIS5_EEE12__node_allocB8ue170006Ev, symObjAddr: 0x15658, symBinAddr: 0x100015F9C, symSize: 0x28 }
  - { offsetInCU: 0x4F55F, offset: 0x4F55F, size: 0x8, addend: 0x0, symName: __ZNSt3__116allocator_traitsINS_9allocatorINS_11__tree_nodeINS_12__value_typeImPN4sdsl8mm_blockEEEPvEEEEE7destroyB8ue170006INS_4pairIKmS6_EEvvEEvRSA_PT_, symObjAddr: 0x15680, symBinAddr: 0x100015FC4, symSize: 0x14 }
  - { offsetInCU: 0x4F59A, offset: 0x4F59A, size: 0x8, addend: 0x0, symName: __ZNSt3__122__tree_key_value_typesINS_12__value_typeImPN4sdsl8mm_blockEEEE9__get_ptrB8ue170006ERS5_, symObjAddr: 0x15694, symBinAddr: 0x100015FD8, symSize: 0x24 }
  - { offsetInCU: 0x4F5BE, offset: 0x4F5BE, size: 0x8, addend: 0x0, symName: __ZNSt3__116allocator_traitsINS_9allocatorINS_11__tree_nodeINS_12__value_typeImPN4sdsl8mm_blockEEEPvEEEEE10deallocateB8ue170006ERSA_PS9_m, symObjAddr: 0x156B8, symBinAddr: 0x100015FFC, symSize: 0x34 }
  - { offsetInCU: 0x4F600, offset: 0x4F600, size: 0x8, addend: 0x0, symName: __ZNSt3__117__compressed_pairINS_15__tree_end_nodeIPNS_16__tree_node_baseIPvEEEENS_9allocatorINS_11__tree_nodeINS_12__value_typeImPN4sdsl8mm_blockEEES3_EEEEE6secondB8ue170006Ev, symObjAddr: 0x156EC, symBinAddr: 0x100016030, symSize: 0x24 }
  - { offsetInCU: 0x4F626, offset: 0x4F626, size: 0x8, addend: 0x0, symName: __ZNSt3__122__compressed_pair_elemINS_9allocatorINS_11__tree_nodeINS_12__value_typeImPN4sdsl8mm_blockEEEPvEEEELi1ELb1EE5__getB8ue170006Ev, symObjAddr: 0x15710, symBinAddr: 0x100016054, symSize: 0x14 }
  - { offsetInCU: 0x4F64C, offset: 0x4F64C, size: 0x8, addend: 0x0, symName: __ZNSt3__112__value_typeImPN4sdsl8mm_blockEE11__get_valueB8ue170006Ev, symObjAddr: 0x15724, symBinAddr: 0x100016068, symSize: 0x14 }
  - { offsetInCU: 0x4F672, offset: 0x4F672, size: 0x8, addend: 0x0, symName: __ZNSt3__19allocatorINS_11__tree_nodeINS_12__value_typeImPN4sdsl8mm_blockEEEPvEEE10deallocateB8ue170006EPS8_m, symObjAddr: 0x15738, symBinAddr: 0x10001607C, symSize: 0x44 }
  - { offsetInCU: 0x4F6B4, offset: 0x4F6B4, size: 0x8, addend: 0x0, symName: __ZNKSt3__16__treeINS_12__value_typeImPN4sdsl8mm_blockEEENS_19__map_value_compareImS5_NS_4lessImEELb1EEENS_9allocatorIS5_EEE10__end_nodeB8ue170006Ev, symObjAddr: 0x1577C, symBinAddr: 0x1000160C0, symSize: 0x2C }
  - { offsetInCU: 0x4F6DA, offset: 0x4F6DA, size: 0x8, addend: 0x0, symName: __ZNKSt3__117__compressed_pairINS_15__tree_end_nodeIPNS_16__tree_node_baseIPvEEEENS_9allocatorINS_11__tree_nodeINS_12__value_typeImPN4sdsl8mm_blockEEES3_EEEEE5firstB8ue170006Ev, symObjAddr: 0x157A8, symBinAddr: 0x1000160EC, symSize: 0x24 }
  - { offsetInCU: 0x4F700, offset: 0x4F700, size: 0x8, addend: 0x0, symName: __ZNKSt3__122__compressed_pair_elemINS_15__tree_end_nodeIPNS_16__tree_node_baseIPvEEEELi0ELb0EE5__getB8ue170006Ev, symObjAddr: 0x157CC, symBinAddr: 0x100016110, symSize: 0x14 }
  - { offsetInCU: 0x4F747, offset: 0x4F747, size: 0x8, addend: 0x0, symName: __ZNSt3__110lock_guardIN4sdsl4util9spin_lockEEC1B8ue170006ERS3_, symObjAddr: 0x15898, symBinAddr: 0x1000161DC, symSize: 0x34 }
  - { offsetInCU: 0x4F77F, offset: 0x4F77F, size: 0x8, addend: 0x0, symName: __ZNSt3__15stackIN4sdsl14memory_monitor8mm_eventENS_5dequeIS3_NS_9allocatorIS3_EEEEE3topB8ue170006Ev, symObjAddr: 0x15970, symBinAddr: 0x1000162B4, symSize: 0x24 }
  - { offsetInCU: 0x4F7A5, offset: 0x4F7A5, size: 0x8, addend: 0x0, symName: __ZNSt3__16vectorIN4sdsl14memory_monitor8mm_allocENS_9allocatorIS3_EEE12emplace_backIJRNS_6chrono10time_pointINS8_12steady_clockENS8_8durationIxNS_5ratioILl1ELl1000000000EEEEEEERxEEEvDpOT_, symObjAddr: 0x15994, symBinAddr: 0x1000162D8, symSize: 0x78 }
  - { offsetInCU: 0x4F7FB, offset: 0x4F7FB, size: 0x8, addend: 0x0, symName: __ZNKSt3__16vectorIN4sdsl14memory_monitor8mm_allocENS_9allocatorIS3_EEE4sizeB8ue170006Ev, symObjAddr: 0x15A0C, symBinAddr: 0x100016350, symSize: 0x28 }
  - { offsetInCU: 0x4F821, offset: 0x4F821, size: 0x8, addend: 0x0, symName: __ZNSt3__16vectorIN4sdsl14memory_monitor8mm_allocENS_9allocatorIS3_EEE4backB8ue170006Ev, symObjAddr: 0x15A34, symBinAddr: 0x100016378, symSize: 0x1C }
  - { offsetInCU: 0x4F847, offset: 0x4F847, size: 0x8, addend: 0x0, symName: __ZNSt3__110lock_guardIN4sdsl4util9spin_lockEED1B8ue170006Ev, symObjAddr: 0x15A50, symBinAddr: 0x100016394, symSize: 0x2C }
  - { offsetInCU: 0x4F871, offset: 0x4F871, size: 0x8, addend: 0x0, symName: __ZN4sdsl14memory_monitorC1Ev, symObjAddr: 0x15A7C, symBinAddr: 0x1000163C0, symSize: 0x2C }
  - { offsetInCU: 0x4F89B, offset: 0x4F89B, size: 0x8, addend: 0x0, symName: __ZN4sdsl14memory_monitorD1Ev, symObjAddr: 0x15AA8, symBinAddr: 0x1000163EC, symSize: 0x2C }
  - { offsetInCU: 0x4F8C5, offset: 0x4F8C5, size: 0x8, addend: 0x0, symName: __ZN4sdsl14memory_monitorC2Ev, symObjAddr: 0x15AD4, symBinAddr: 0x100016418, symSize: 0xC0 }
  - { offsetInCU: 0x4F8EF, offset: 0x4F8EF, size: 0x8, addend: 0x0, symName: __ZNSt3__16chrono8durationIxNS_5ratioILl1ELl1000EEEEC1B8ue170006IyEERKT_PNS_9enable_ifIXaasr14is_convertibleIS8_xEE5valueooL_ZNS_17integral_constantIbLb0EE5valueEEntsr23treat_as_floating_pointIS6_EE5valueEvE4typeE, symObjAddr: 0x15B94, symBinAddr: 0x1000164D8, symSize: 0x3C }
  - { offsetInCU: 0x4F93C, offset: 0x4F93C, size: 0x8, addend: 0x0, symName: __ZNSt3__16vectorIN4sdsl14memory_monitor8mm_eventENS_9allocatorIS3_EEEC1B8ue170006Ev, symObjAddr: 0x15BD0, symBinAddr: 0x100016514, symSize: 0x2C }
  - { offsetInCU: 0x4F966, offset: 0x4F966, size: 0x8, addend: 0x0, symName: __ZNSt3__15stackIN4sdsl14memory_monitor8mm_eventENS_5dequeIS3_NS_9allocatorIS3_EEEEEC1B8ue170006Ev, symObjAddr: 0x15BFC, symBinAddr: 0x100016540, symSize: 0x2C }
  - { offsetInCU: 0x4F990, offset: 0x4F990, size: 0x8, addend: 0x0, symName: __ZN4sdsl4util9spin_lockC1Ev, symObjAddr: 0x15C28, symBinAddr: 0x10001656C, symSize: 0x2C }
  - { offsetInCU: 0x4F9BA, offset: 0x4F9BA, size: 0x8, addend: 0x0, symName: __ZNSt3__15stackIN4sdsl14memory_monitor8mm_eventENS_5dequeIS3_NS_9allocatorIS3_EEEEED1Ev, symObjAddr: 0x15C54, symBinAddr: 0x100016598, symSize: 0x2C }
  - { offsetInCU: 0x4F9E6, offset: 0x4F9E6, size: 0x8, addend: 0x0, symName: __ZNSt3__16vectorIN4sdsl14memory_monitor8mm_eventENS_9allocatorIS3_EEED1B8ue170006Ev, symObjAddr: 0x15C80, symBinAddr: 0x1000165C4, symSize: 0x2C }
  - { offsetInCU: 0x4FA10, offset: 0x4FA10, size: 0x8, addend: 0x0, symName: __ZNSt3__16chrono8durationIxNS_5ratioILl1ELl1000EEEEC2B8ue170006IyEERKT_PNS_9enable_ifIXaasr14is_convertibleIS8_xEE5valueooL_ZNS_17integral_constantIbLb0EE5valueEEntsr23treat_as_floating_pointIS6_EE5valueEvE4typeE, symObjAddr: 0x15CAC, symBinAddr: 0x1000165F0, symSize: 0x28 }
  - { offsetInCU: 0x4FA5D, offset: 0x4FA5D, size: 0x8, addend: 0x0, symName: __ZNSt3__16vectorIN4sdsl14memory_monitor8mm_eventENS_9allocatorIS3_EEEC2B8ue170006Ev, symObjAddr: 0x15CD4, symBinAddr: 0x100016618, symSize: 0x4C }
  - { offsetInCU: 0x4FA87, offset: 0x4FA87, size: 0x8, addend: 0x0, symName: __ZNSt3__117__compressed_pairIPN4sdsl14memory_monitor8mm_eventENS_9allocatorIS3_EEEC1B8ue170006IDnNS_18__default_init_tagEEEOT_OT0_, symObjAddr: 0x15D20, symBinAddr: 0x100016664, symSize: 0x3C }
  - { offsetInCU: 0x4FADF, offset: 0x4FADF, size: 0x8, addend: 0x0, symName: __ZNSt3__117__compressed_pairIPN4sdsl14memory_monitor8mm_eventENS_9allocatorIS3_EEEC2B8ue170006IDnNS_18__default_init_tagEEEOT_OT0_, symObjAddr: 0x15D5C, symBinAddr: 0x1000166A0, symSize: 0x40 }
  - { offsetInCU: 0x4FB37, offset: 0x4FB37, size: 0x8, addend: 0x0, symName: __ZNSt3__122__compressed_pair_elemIPN4sdsl14memory_monitor8mm_eventELi0ELb0EEC2B8ue170006IDnvEEOT_, symObjAddr: 0x15D9C, symBinAddr: 0x1000166E0, symSize: 0x1C }
  - { offsetInCU: 0x4FB79, offset: 0x4FB79, size: 0x8, addend: 0x0, symName: __ZNSt3__122__compressed_pair_elemINS_9allocatorIN4sdsl14memory_monitor8mm_eventEEELi1ELb1EEC2B8ue170006ENS_18__default_init_tagE, symObjAddr: 0x15DB8, symBinAddr: 0x1000166FC, symSize: 0x2C }
  - { offsetInCU: 0x4FBAE, offset: 0x4FBAE, size: 0x8, addend: 0x0, symName: __ZNSt3__19allocatorIN4sdsl14memory_monitor8mm_eventEEC2B8ue170006Ev, symObjAddr: 0x15DE4, symBinAddr: 0x100016728, symSize: 0x2C }
  - { offsetInCU: 0x4FBD8, offset: 0x4FBD8, size: 0x8, addend: 0x0, symName: __ZNSt3__116__non_trivial_ifILb1ENS_9allocatorIN4sdsl14memory_monitor8mm_eventEEEEC2B8ue170006Ev, symObjAddr: 0x15E10, symBinAddr: 0x100016754, symSize: 0x14 }
  - { offsetInCU: 0x4FC02, offset: 0x4FC02, size: 0x8, addend: 0x0, symName: __ZNSt3__15stackIN4sdsl14memory_monitor8mm_eventENS_5dequeIS3_NS_9allocatorIS3_EEEEEC2B8ue170006Ev, symObjAddr: 0x15E24, symBinAddr: 0x100016768, symSize: 0x2C }
  - { offsetInCU: 0x4FC2C, offset: 0x4FC2C, size: 0x8, addend: 0x0, symName: __ZNSt3__15dequeIN4sdsl14memory_monitor8mm_eventENS_9allocatorIS3_EEEC1B8ue170006Ev, symObjAddr: 0x15E50, symBinAddr: 0x100016794, symSize: 0x2C }
  - { offsetInCU: 0x4FC56, offset: 0x4FC56, size: 0x8, addend: 0x0, symName: __ZNSt3__15dequeIN4sdsl14memory_monitor8mm_eventENS_9allocatorIS3_EEEC2B8ue170006Ev, symObjAddr: 0x15E7C, symBinAddr: 0x1000167C0, symSize: 0x5C }
  - { offsetInCU: 0x4FC80, offset: 0x4FC80, size: 0x8, addend: 0x0, symName: __ZNSt3__114__split_bufferIPN4sdsl14memory_monitor8mm_eventENS_9allocatorIS4_EEEC1B8ue170006Ev, symObjAddr: 0x15ED8, symBinAddr: 0x10001681C, symSize: 0x2C }
  - { offsetInCU: 0x4FCAA, offset: 0x4FCAA, size: 0x8, addend: 0x0, symName: __ZNSt3__117__compressed_pairImNS_9allocatorIN4sdsl14memory_monitor8mm_eventEEEEC1B8ue170006IiNS_18__default_init_tagEEEOT_OT0_, symObjAddr: 0x15F04, symBinAddr: 0x100016848, symSize: 0x3C }
  - { offsetInCU: 0x4FD02, offset: 0x4FD02, size: 0x8, addend: 0x0, symName: __ZNKSt3__15dequeIN4sdsl14memory_monitor8mm_eventENS_9allocatorIS3_EEE14__annotate_newB8ue170006Em, symObjAddr: 0x15F40, symBinAddr: 0x100016884, symSize: 0xD0 }
  - { offsetInCU: 0x4FD37, offset: 0x4FD37, size: 0x8, addend: 0x0, symName: __ZNSt3__114__split_bufferIPN4sdsl14memory_monitor8mm_eventENS_9allocatorIS4_EEEC2B8ue170006Ev, symObjAddr: 0x16010, symBinAddr: 0x100016954, symSize: 0x50 }
  - { offsetInCU: 0x4FD61, offset: 0x4FD61, size: 0x8, addend: 0x0, symName: __ZNSt3__117__compressed_pairIPPN4sdsl14memory_monitor8mm_eventENS_9allocatorIS4_EEEC1B8ue170006IDnNS_18__default_init_tagEEEOT_OT0_, symObjAddr: 0x16060, symBinAddr: 0x1000169A4, symSize: 0x3C }
  - { offsetInCU: 0x4FDB9, offset: 0x4FDB9, size: 0x8, addend: 0x0, symName: __ZNSt3__117__compressed_pairIPPN4sdsl14memory_monitor8mm_eventENS_9allocatorIS4_EEEC2B8ue170006IDnNS_18__default_init_tagEEEOT_OT0_, symObjAddr: 0x1609C, symBinAddr: 0x1000169E0, symSize: 0x40 }
  - { offsetInCU: 0x4FE11, offset: 0x4FE11, size: 0x8, addend: 0x0, symName: __ZNSt3__122__compressed_pair_elemIPPN4sdsl14memory_monitor8mm_eventELi0ELb0EEC2B8ue170006IDnvEEOT_, symObjAddr: 0x160DC, symBinAddr: 0x100016A20, symSize: 0x1C }
  - { offsetInCU: 0x4FE53, offset: 0x4FE53, size: 0x8, addend: 0x0, symName: __ZNSt3__122__compressed_pair_elemINS_9allocatorIPN4sdsl14memory_monitor8mm_eventEEELi1ELb1EEC2B8ue170006ENS_18__default_init_tagE, symObjAddr: 0x160F8, symBinAddr: 0x100016A3C, symSize: 0x2C }
  - { offsetInCU: 0x4FE88, offset: 0x4FE88, size: 0x8, addend: 0x0, symName: __ZNSt3__19allocatorIPN4sdsl14memory_monitor8mm_eventEEC2B8ue170006Ev, symObjAddr: 0x16124, symBinAddr: 0x100016A68, symSize: 0x2C }
  - { offsetInCU: 0x4FEB2, offset: 0x4FEB2, size: 0x8, addend: 0x0, symName: __ZNSt3__116__non_trivial_ifILb1ENS_9allocatorIPN4sdsl14memory_monitor8mm_eventEEEEC2B8ue170006Ev, symObjAddr: 0x16150, symBinAddr: 0x100016A94, symSize: 0x14 }
  - { offsetInCU: 0x4FEDC, offset: 0x4FEDC, size: 0x8, addend: 0x0, symName: __ZNSt3__117__compressed_pairImNS_9allocatorIN4sdsl14memory_monitor8mm_eventEEEEC2B8ue170006IiNS_18__default_init_tagEEEOT_OT0_, symObjAddr: 0x16164, symBinAddr: 0x100016AA8, symSize: 0x40 }
  - { offsetInCU: 0x4FF34, offset: 0x4FF34, size: 0x8, addend: 0x0, symName: __ZNKSt3__15dequeIN4sdsl14memory_monitor8mm_eventENS_9allocatorIS3_EEE18__annotate_from_toB8ue170006EmmNS6_22__asan_annotation_typeENS6_23__asan_annotation_placeE, symObjAddr: 0x161A4, symBinAddr: 0x100016AE8, symSize: 0x598 }
  - { offsetInCU: 0x500F0, offset: 0x500F0, size: 0x8, addend: 0x0, symName: __ZNKSt3__114__split_bufferIPN4sdsl14memory_monitor8mm_eventENS_9allocatorIS4_EEE4sizeB8ue170006Ev, symObjAddr: 0x1673C, symBinAddr: 0x100017080, symSize: 0x28 }
  - { offsetInCU: 0x50116, offset: 0x50116, size: 0x8, addend: 0x0, symName: __ZNKSt3__114__split_bufferIPN4sdsl14memory_monitor8mm_eventENS_9allocatorIS4_EEE5beginB8ue170006Ev, symObjAddr: 0x16764, symBinAddr: 0x1000170A8, symSize: 0x18 }
  - { offsetInCU: 0x5013C, offset: 0x5013C, size: 0x8, addend: 0x0, symName: __ZNKSt3__15dequeIN4sdsl14memory_monitor8mm_eventENS_9allocatorIS3_EEE4sizeB8ue170006Ev, symObjAddr: 0x1677C, symBinAddr: 0x1000170C0, symSize: 0x28 }
  - { offsetInCU: 0x50162, offset: 0x50162, size: 0x8, addend: 0x0, symName: __ZNKSt3__15dequeIN4sdsl14memory_monitor8mm_eventENS_9allocatorIS3_EEE5emptyB8ue170006Ev, symObjAddr: 0x167A4, symBinAddr: 0x1000170E8, symSize: 0x30 }
  - { offsetInCU: 0x50188, offset: 0x50188, size: 0x8, addend: 0x0, symName: __ZNKSt3__15dequeIN4sdsl14memory_monitor8mm_eventENS_9allocatorIS3_EEE44__annotate_double_ended_contiguous_containerB8ue170006EPKvS8_S8_S8_S8_S8_, symObjAddr: 0x167E8, symBinAddr: 0x10001712C, symSize: 0x28 }
  - { offsetInCU: 0x501F6, offset: 0x501F6, size: 0x8, addend: 0x0, symName: __ZNKSt3__15dequeIN4sdsl14memory_monitor8mm_eventENS_9allocatorIS3_EEE6__sizeB8ue170006Ev, symObjAddr: 0x16810, symBinAddr: 0x100017154, symSize: 0x28 }
  - { offsetInCU: 0x5021C, offset: 0x5021C, size: 0x8, addend: 0x0, symName: __ZNKSt3__117__compressed_pairImNS_9allocatorIN4sdsl14memory_monitor8mm_eventEEEE5firstB8ue170006Ev, symObjAddr: 0x16838, symBinAddr: 0x10001717C, symSize: 0x24 }
  - { offsetInCU: 0x50242, offset: 0x50242, size: 0x8, addend: 0x0, symName: __ZNKSt3__122__compressed_pair_elemImLi0ELb0EE5__getB8ue170006Ev, symObjAddr: 0x1685C, symBinAddr: 0x1000171A0, symSize: 0x14 }
  - { offsetInCU: 0x50268, offset: 0x50268, size: 0x8, addend: 0x0, symName: __ZN4sdsl4util9spin_lockC2Ev, symObjAddr: 0x16870, symBinAddr: 0x1000171B4, symSize: 0x30 }
  - { offsetInCU: 0x50292, offset: 0x50292, size: 0x8, addend: 0x0, symName: __ZNSt3__111atomic_flag5clearB8ue170006ENS_12memory_orderE, symObjAddr: 0x168A0, symBinAddr: 0x1000171E4, symSize: 0x34 }
  - { offsetInCU: 0x502C6, offset: 0x502C6, size: 0x8, addend: 0x0, symName: __ZNSt3__15stackIN4sdsl14memory_monitor8mm_eventENS_5dequeIS3_NS_9allocatorIS3_EEEEED2Ev, symObjAddr: 0x16964, symBinAddr: 0x1000172A8, symSize: 0x2C }
  - { offsetInCU: 0x502F2, offset: 0x502F2, size: 0x8, addend: 0x0, symName: __ZNSt3__15dequeIN4sdsl14memory_monitor8mm_eventENS_9allocatorIS3_EEED1B8ue170006Ev, symObjAddr: 0x16990, symBinAddr: 0x1000172D4, symSize: 0x2C }
  - { offsetInCU: 0x5031C, offset: 0x5031C, size: 0x8, addend: 0x0, symName: __ZNSt3__15dequeIN4sdsl14memory_monitor8mm_eventENS_9allocatorIS3_EEED2B8ue170006Ev, symObjAddr: 0x169BC, symBinAddr: 0x100017300, symSize: 0xA4 }
  - { offsetInCU: 0x50372, offset: 0x50372, size: 0x8, addend: 0x0, symName: __ZNSt3__15dequeIN4sdsl14memory_monitor8mm_eventENS_9allocatorIS3_EEE5clearEv, symObjAddr: 0x16A60, symBinAddr: 0x1000173A4, symSize: 0x180 }
  - { offsetInCU: 0x503CD, offset: 0x503CD, size: 0x8, addend: 0x0, symName: __ZNKSt3__15dequeIN4sdsl14memory_monitor8mm_eventENS_9allocatorIS3_EEE17__annotate_deleteB8ue170006Ev, symObjAddr: 0x16BE0, symBinAddr: 0x100017524, symSize: 0xEC }
  - { offsetInCU: 0x50410, offset: 0x50410, size: 0x8, addend: 0x0, symName: __ZNSt3__114__split_bufferIPN4sdsl14memory_monitor8mm_eventENS_9allocatorIS4_EEE5beginB8ue170006Ev, symObjAddr: 0x16CCC, symBinAddr: 0x100017610, symSize: 0x18 }
  - { offsetInCU: 0x50436, offset: 0x50436, size: 0x8, addend: 0x0, symName: __ZNSt3__114__split_bufferIPN4sdsl14memory_monitor8mm_eventENS_9allocatorIS4_EEE3endB8ue170006Ev, symObjAddr: 0x16CE4, symBinAddr: 0x100017628, symSize: 0x18 }
  - { offsetInCU: 0x5045C, offset: 0x5045C, size: 0x8, addend: 0x0, symName: __ZNSt3__116allocator_traitsINS_9allocatorIN4sdsl14memory_monitor8mm_eventEEEE10deallocateB8ue170006ERS5_PS4_m, symObjAddr: 0x16CFC, symBinAddr: 0x100017640, symSize: 0x34 }
  - { offsetInCU: 0x5049E, offset: 0x5049E, size: 0x8, addend: 0x0, symName: __ZNSt3__15dequeIN4sdsl14memory_monitor8mm_eventENS_9allocatorIS3_EEE7__allocB8ue170006Ev, symObjAddr: 0x16D30, symBinAddr: 0x100017674, symSize: 0x28 }
  - { offsetInCU: 0x504C4, offset: 0x504C4, size: 0x8, addend: 0x0, symName: __ZNSt3__114__split_bufferIPN4sdsl14memory_monitor8mm_eventENS_9allocatorIS4_EEED1Ev, symObjAddr: 0x16D58, symBinAddr: 0x10001769C, symSize: 0x2C }
  - { offsetInCU: 0x504F0, offset: 0x504F0, size: 0x8, addend: 0x0, symName: __ZNSt3__15dequeIN4sdsl14memory_monitor8mm_eventENS_9allocatorIS3_EEE5beginB8ue170006Ev, symObjAddr: 0x16D84, symBinAddr: 0x1000176C8, symSize: 0xC0 }
  - { offsetInCU: 0x50525, offset: 0x50525, size: 0x8, addend: 0x0, symName: __ZNSt3__15dequeIN4sdsl14memory_monitor8mm_eventENS_9allocatorIS3_EEE3endB8ue170006Ev, symObjAddr: 0x16E44, symBinAddr: 0x100017788, symSize: 0xC4 }
  - { offsetInCU: 0x50569, offset: 0x50569, size: 0x8, addend: 0x0, symName: __ZNSt3__116allocator_traitsINS_9allocatorIN4sdsl14memory_monitor8mm_eventEEEE7destroyB8ue170006IS4_vEEvRS5_PT_, symObjAddr: 0x16F3C, symBinAddr: 0x100017880, symSize: 0x2C }
  - { offsetInCU: 0x505A6, offset: 0x505A6, size: 0x8, addend: 0x0, symName: __ZNKSt3__116__deque_iteratorIN4sdsl14memory_monitor8mm_eventEPS3_RS3_PS4_lLl85EEdeB8ue170006Ev, symObjAddr: 0x16F68, symBinAddr: 0x1000178AC, symSize: 0x18 }
  - { offsetInCU: 0x505CC, offset: 0x505CC, size: 0x8, addend: 0x0, symName: __ZNSt3__116__deque_iteratorIN4sdsl14memory_monitor8mm_eventEPS3_RS3_PS4_lLl85EEppB8ue170006Ev, symObjAddr: 0x16F80, symBinAddr: 0x1000178C4, symSize: 0x70 }
  - { offsetInCU: 0x505F2, offset: 0x505F2, size: 0x8, addend: 0x0, symName: __ZNSt3__15dequeIN4sdsl14memory_monitor8mm_eventENS_9allocatorIS3_EEE6__sizeB8ue170006Ev, symObjAddr: 0x16FF0, symBinAddr: 0x100017934, symSize: 0x28 }
  - { offsetInCU: 0x50618, offset: 0x50618, size: 0x8, addend: 0x0, symName: __ZNSt3__114__split_bufferIPN4sdsl14memory_monitor8mm_eventENS_9allocatorIS4_EEE5frontB8ue170006Ev, symObjAddr: 0x17018, symBinAddr: 0x10001795C, symSize: 0x18 }
  - { offsetInCU: 0x5063E, offset: 0x5063E, size: 0x8, addend: 0x0, symName: __ZNSt3__114__split_bufferIPN4sdsl14memory_monitor8mm_eventENS_9allocatorIS4_EEE9pop_frontB8ue170006Ev, symObjAddr: 0x17030, symBinAddr: 0x100017974, symSize: 0x2C }
  - { offsetInCU: 0x50664, offset: 0x50664, size: 0x8, addend: 0x0, symName: __ZNKSt3__114__split_bufferIPN4sdsl14memory_monitor8mm_eventENS_9allocatorIS4_EEE5emptyB8ue170006Ev, symObjAddr: 0x1705C, symBinAddr: 0x1000179A0, symSize: 0x28 }
  - { offsetInCU: 0x5068A, offset: 0x5068A, size: 0x8, addend: 0x0, symName: __ZNSt3__116__deque_iteratorIN4sdsl14memory_monitor8mm_eventEPS3_RS3_PS4_lLl85EEC1B8ue170006ES6_S4_, symObjAddr: 0x17084, symBinAddr: 0x1000179C8, symSize: 0x3C }
  - { offsetInCU: 0x506D2, offset: 0x506D2, size: 0x8, addend: 0x0, symName: __ZNSt3__116__deque_iteratorIN4sdsl14memory_monitor8mm_eventEPS3_RS3_PS4_lLl85EEC2B8ue170006ES6_S4_, symObjAddr: 0x170C0, symBinAddr: 0x100017A04, symSize: 0x2C }
  - { offsetInCU: 0x5071A, offset: 0x5071A, size: 0x8, addend: 0x0, symName: __ZNSt3__19allocatorIN4sdsl14memory_monitor8mm_eventEE7destroyB8ue170006EPS3_, symObjAddr: 0x1711C, symBinAddr: 0x100017A60, symSize: 0x28 }
  - { offsetInCU: 0x5074E, offset: 0x5074E, size: 0x8, addend: 0x0, symName: __ZN4sdsl14memory_monitor8mm_eventD1Ev, symObjAddr: 0x17144, symBinAddr: 0x100017A88, symSize: 0x2C }
  - { offsetInCU: 0x5077A, offset: 0x5077A, size: 0x8, addend: 0x0, symName: __ZN4sdsl14memory_monitor8mm_eventD2Ev, symObjAddr: 0x17170, symBinAddr: 0x100017AB4, symSize: 0x38 }
  - { offsetInCU: 0x507A6, offset: 0x507A6, size: 0x8, addend: 0x0, symName: __ZNSt3__16vectorIN4sdsl14memory_monitor8mm_allocENS_9allocatorIS3_EEED1B8ue170006Ev, symObjAddr: 0x171A8, symBinAddr: 0x100017AEC, symSize: 0x2C }
  - { offsetInCU: 0x507D0, offset: 0x507D0, size: 0x8, addend: 0x0, symName: __ZNSt3__16vectorIN4sdsl14memory_monitor8mm_allocENS_9allocatorIS3_EEED2B8ue170006Ev, symObjAddr: 0x171D4, symBinAddr: 0x100017B18, symSize: 0x44 }
  - { offsetInCU: 0x507FA, offset: 0x507FA, size: 0x8, addend: 0x0, symName: __ZNSt3__16vectorIN4sdsl14memory_monitor8mm_allocENS_9allocatorIS3_EEE16__destroy_vectorC1B8ue170006ERS6_, symObjAddr: 0x17218, symBinAddr: 0x100017B5C, symSize: 0x34 }
  - { offsetInCU: 0x50833, offset: 0x50833, size: 0x8, addend: 0x0, symName: __ZNSt3__16vectorIN4sdsl14memory_monitor8mm_allocENS_9allocatorIS3_EEE16__destroy_vectorclB8ue170006Ev, symObjAddr: 0x1724C, symBinAddr: 0x100017B90, symSize: 0x90 }
  - { offsetInCU: 0x50859, offset: 0x50859, size: 0x8, addend: 0x0, symName: __ZNSt3__16vectorIN4sdsl14memory_monitor8mm_allocENS_9allocatorIS3_EEE16__destroy_vectorC2B8ue170006ERS6_, symObjAddr: 0x172DC, symBinAddr: 0x100017C20, symSize: 0x20 }
  - { offsetInCU: 0x50892, offset: 0x50892, size: 0x8, addend: 0x0, symName: __ZNSt3__16vectorIN4sdsl14memory_monitor8mm_allocENS_9allocatorIS3_EEE7__clearB8ue170006Ev, symObjAddr: 0x172FC, symBinAddr: 0x100017C40, symSize: 0x28 }
  - { offsetInCU: 0x508B8, offset: 0x508B8, size: 0x8, addend: 0x0, symName: __ZNKSt3__16vectorIN4sdsl14memory_monitor8mm_allocENS_9allocatorIS3_EEE17__annotate_deleteB8ue170006Ev, symObjAddr: 0x17324, symBinAddr: 0x100017C68, symSize: 0xB8 }
  - { offsetInCU: 0x508DE, offset: 0x508DE, size: 0x8, addend: 0x0, symName: __ZNSt3__116allocator_traitsINS_9allocatorIN4sdsl14memory_monitor8mm_allocEEEE10deallocateB8ue170006ERS5_PS4_m, symObjAddr: 0x173DC, symBinAddr: 0x100017D20, symSize: 0x34 }
  - { offsetInCU: 0x50920, offset: 0x50920, size: 0x8, addend: 0x0, symName: __ZNSt3__16vectorIN4sdsl14memory_monitor8mm_allocENS_9allocatorIS3_EEE7__allocB8ue170006Ev, symObjAddr: 0x17410, symBinAddr: 0x100017D54, symSize: 0x28 }
  - { offsetInCU: 0x50946, offset: 0x50946, size: 0x8, addend: 0x0, symName: __ZNKSt3__16vectorIN4sdsl14memory_monitor8mm_allocENS_9allocatorIS3_EEE8capacityB8ue170006Ev, symObjAddr: 0x17438, symBinAddr: 0x100017D7C, symSize: 0x40 }
  - { offsetInCU: 0x5096C, offset: 0x5096C, size: 0x8, addend: 0x0, symName: __ZNSt3__16vectorIN4sdsl14memory_monitor8mm_allocENS_9allocatorIS3_EEE22__base_destruct_at_endB8ue170006EPS3_, symObjAddr: 0x17478, symBinAddr: 0x100017DBC, symSize: 0x8C }
  - { offsetInCU: 0x509B0, offset: 0x509B0, size: 0x8, addend: 0x0, symName: __ZNSt3__116allocator_traitsINS_9allocatorIN4sdsl14memory_monitor8mm_allocEEEE7destroyB8ue170006IS4_vEEvRS5_PT_, symObjAddr: 0x17504, symBinAddr: 0x100017E48, symSize: 0x2C }
  - { offsetInCU: 0x509ED, offset: 0x509ED, size: 0x8, addend: 0x0, symName: __ZNSt3__19allocatorIN4sdsl14memory_monitor8mm_allocEE7destroyB8ue170006EPS3_, symObjAddr: 0x17544, symBinAddr: 0x100017E88, symSize: 0x14 }
  - { offsetInCU: 0x50A21, offset: 0x50A21, size: 0x8, addend: 0x0, symName: __ZNKSt3__16vectorIN4sdsl14memory_monitor8mm_allocENS_9allocatorIS3_EEE31__annotate_contiguous_containerB8ue170006EPKvS8_S8_S8_, symObjAddr: 0x17558, symBinAddr: 0x100017E9C, symSize: 0x20 }
  - { offsetInCU: 0x50A77, offset: 0x50A77, size: 0x8, addend: 0x0, symName: __ZNKSt3__16vectorIN4sdsl14memory_monitor8mm_allocENS_9allocatorIS3_EEE4dataB8ue170006Ev, symObjAddr: 0x17578, symBinAddr: 0x100017EBC, symSize: 0x28 }
  - { offsetInCU: 0x50A9D, offset: 0x50A9D, size: 0x8, addend: 0x0, symName: __ZNSt3__19allocatorIN4sdsl14memory_monitor8mm_allocEE10deallocateB8ue170006EPS3_m, symObjAddr: 0x175A0, symBinAddr: 0x100017EE4, symSize: 0x40 }
  - { offsetInCU: 0x50ADF, offset: 0x50ADF, size: 0x8, addend: 0x0, symName: __ZNSt3__117__compressed_pairIPN4sdsl14memory_monitor8mm_allocENS_9allocatorIS3_EEE6secondB8ue170006Ev, symObjAddr: 0x175E0, symBinAddr: 0x100017F24, symSize: 0x24 }
  - { offsetInCU: 0x50B05, offset: 0x50B05, size: 0x8, addend: 0x0, symName: __ZNSt3__122__compressed_pair_elemINS_9allocatorIN4sdsl14memory_monitor8mm_allocEEELi1ELb1EE5__getB8ue170006Ev, symObjAddr: 0x17604, symBinAddr: 0x100017F48, symSize: 0x14 }
  - { offsetInCU: 0x50B2B, offset: 0x50B2B, size: 0x8, addend: 0x0, symName: __ZNKSt3__16vectorIN4sdsl14memory_monitor8mm_allocENS_9allocatorIS3_EEE9__end_capB8ue170006Ev, symObjAddr: 0x17618, symBinAddr: 0x100017F5C, symSize: 0x28 }
  - { offsetInCU: 0x50B51, offset: 0x50B51, size: 0x8, addend: 0x0, symName: __ZNKSt3__117__compressed_pairIPN4sdsl14memory_monitor8mm_allocENS_9allocatorIS3_EEE5firstB8ue170006Ev, symObjAddr: 0x17640, symBinAddr: 0x100017F84, symSize: 0x24 }
  - { offsetInCU: 0x50B77, offset: 0x50B77, size: 0x8, addend: 0x0, symName: __ZNKSt3__122__compressed_pair_elemIPN4sdsl14memory_monitor8mm_allocELi0ELb0EE5__getB8ue170006Ev, symObjAddr: 0x17664, symBinAddr: 0x100017FA8, symSize: 0x14 }
  - { offsetInCU: 0x50B9D, offset: 0x50B9D, size: 0x8, addend: 0x0, symName: __ZNSt3__117__compressed_pairImNS_9allocatorIN4sdsl14memory_monitor8mm_eventEEEE5firstB8ue170006Ev, symObjAddr: 0x17678, symBinAddr: 0x100017FBC, symSize: 0x24 }
  - { offsetInCU: 0x50BC3, offset: 0x50BC3, size: 0x8, addend: 0x0, symName: __ZNSt3__122__compressed_pair_elemImLi0ELb0EE5__getB8ue170006Ev, symObjAddr: 0x1769C, symBinAddr: 0x100017FE0, symSize: 0x14 }
  - { offsetInCU: 0x50BE9, offset: 0x50BE9, size: 0x8, addend: 0x0, symName: __ZNSt3__114__split_bufferIPN4sdsl14memory_monitor8mm_eventENS_9allocatorIS4_EEE19__destruct_at_beginB8ue170006EPS4_, symObjAddr: 0x176B0, symBinAddr: 0x100017FF4, symSize: 0x2C }
  - { offsetInCU: 0x50C1D, offset: 0x50C1D, size: 0x8, addend: 0x0, symName: __ZNSt3__114__split_bufferIPN4sdsl14memory_monitor8mm_eventENS_9allocatorIS4_EEE19__destruct_at_beginEPS4_NS_17integral_constantIbLb1EEE, symObjAddr: 0x176DC, symBinAddr: 0x100018020, symSize: 0x20 }
  - { offsetInCU: 0x50C5E, offset: 0x50C5E, size: 0x8, addend: 0x0, symName: __ZNKSt3__15dequeIN4sdsl14memory_monitor8mm_eventENS_9allocatorIS3_EEE22__annotate_whole_blockB8ue170006EmNS6_22__asan_annotation_typeE, symObjAddr: 0x176FC, symBinAddr: 0x100018040, symSize: 0xAC }
  - { offsetInCU: 0x50CCF, offset: 0x50CCF, size: 0x8, addend: 0x0, symName: __ZNKSt3__15dequeIN4sdsl14memory_monitor8mm_eventENS_9allocatorIS3_EEE23__annotate_poison_blockB8ue170006EPKvS8_, symObjAddr: 0x177A8, symBinAddr: 0x1000180EC, symSize: 0x44 }
  - { offsetInCU: 0x50D13, offset: 0x50D13, size: 0x8, addend: 0x0, symName: __ZNSt3__19allocatorIN4sdsl14memory_monitor8mm_eventEE10deallocateB8ue170006EPS3_m, symObjAddr: 0x177EC, symBinAddr: 0x100018130, symSize: 0x44 }
  - { offsetInCU: 0x50D55, offset: 0x50D55, size: 0x8, addend: 0x0, symName: __ZNSt3__117__compressed_pairImNS_9allocatorIN4sdsl14memory_monitor8mm_eventEEEE6secondB8ue170006Ev, symObjAddr: 0x17830, symBinAddr: 0x100018174, symSize: 0x24 }
  - { offsetInCU: 0x50D7B, offset: 0x50D7B, size: 0x8, addend: 0x0, symName: __ZNSt3__122__compressed_pair_elemINS_9allocatorIN4sdsl14memory_monitor8mm_eventEEELi1ELb1EE5__getB8ue170006Ev, symObjAddr: 0x17854, symBinAddr: 0x100018198, symSize: 0x14 }
  - { offsetInCU: 0x50DA1, offset: 0x50DA1, size: 0x8, addend: 0x0, symName: __ZNSt3__114__split_bufferIPN4sdsl14memory_monitor8mm_eventENS_9allocatorIS4_EEED2Ev, symObjAddr: 0x17868, symBinAddr: 0x1000181AC, symSize: 0x8C }
  - { offsetInCU: 0x50DCD, offset: 0x50DCD, size: 0x8, addend: 0x0, symName: __ZNSt3__114__split_bufferIPN4sdsl14memory_monitor8mm_eventENS_9allocatorIS4_EEE5clearB8ue170006Ev, symObjAddr: 0x178F4, symBinAddr: 0x100018238, symSize: 0x28 }
  - { offsetInCU: 0x50DF3, offset: 0x50DF3, size: 0x8, addend: 0x0, symName: __ZNSt3__116allocator_traitsINS_9allocatorIPN4sdsl14memory_monitor8mm_eventEEEE10deallocateB8ue170006ERS6_PS5_m, symObjAddr: 0x1791C, symBinAddr: 0x100018260, symSize: 0x34 }
  - { offsetInCU: 0x50E35, offset: 0x50E35, size: 0x8, addend: 0x0, symName: __ZNSt3__114__split_bufferIPN4sdsl14memory_monitor8mm_eventENS_9allocatorIS4_EEE7__allocB8ue170006Ev, symObjAddr: 0x17950, symBinAddr: 0x100018294, symSize: 0x28 }
  - { offsetInCU: 0x50E5B, offset: 0x50E5B, size: 0x8, addend: 0x0, symName: __ZNKSt3__114__split_bufferIPN4sdsl14memory_monitor8mm_eventENS_9allocatorIS4_EEE8capacityB8ue170006Ev, symObjAddr: 0x17978, symBinAddr: 0x1000182BC, symSize: 0x40 }
  - { offsetInCU: 0x50E81, offset: 0x50E81, size: 0x8, addend: 0x0, symName: __ZNSt3__114__split_bufferIPN4sdsl14memory_monitor8mm_eventENS_9allocatorIS4_EEE17__destruct_at_endB8ue170006EPS4_, symObjAddr: 0x179B8, symBinAddr: 0x1000182FC, symSize: 0x2C }
  - { offsetInCU: 0x50EB5, offset: 0x50EB5, size: 0x8, addend: 0x0, symName: __ZNSt3__114__split_bufferIPN4sdsl14memory_monitor8mm_eventENS_9allocatorIS4_EEE17__destruct_at_endB8ue170006EPS4_NS_17integral_constantIbLb0EEE, symObjAddr: 0x179E4, symBinAddr: 0x100018328, symSize: 0x80 }
  - { offsetInCU: 0x50EF6, offset: 0x50EF6, size: 0x8, addend: 0x0, symName: __ZNSt3__116allocator_traitsINS_9allocatorIPN4sdsl14memory_monitor8mm_eventEEEE7destroyB8ue170006IS5_vEEvRS6_PT_, symObjAddr: 0x17A64, symBinAddr: 0x1000183A8, symSize: 0x2C }
  - { offsetInCU: 0x50F33, offset: 0x50F33, size: 0x8, addend: 0x0, symName: __ZNSt3__19allocatorIPN4sdsl14memory_monitor8mm_eventEE7destroyB8ue170006EPS4_, symObjAddr: 0x17AA4, symBinAddr: 0x1000183E8, symSize: 0x14 }
  - { offsetInCU: 0x50F67, offset: 0x50F67, size: 0x8, addend: 0x0, symName: __ZNSt3__19allocatorIPN4sdsl14memory_monitor8mm_eventEE10deallocateB8ue170006EPS4_m, symObjAddr: 0x17AB8, symBinAddr: 0x1000183FC, symSize: 0x40 }
  - { offsetInCU: 0x50FA9, offset: 0x50FA9, size: 0x8, addend: 0x0, symName: __ZNSt3__117__compressed_pairIPPN4sdsl14memory_monitor8mm_eventENS_9allocatorIS4_EEE6secondB8ue170006Ev, symObjAddr: 0x17AF8, symBinAddr: 0x10001843C, symSize: 0x24 }
  - { offsetInCU: 0x50FCF, offset: 0x50FCF, size: 0x8, addend: 0x0, symName: __ZNSt3__122__compressed_pair_elemINS_9allocatorIPN4sdsl14memory_monitor8mm_eventEEELi1ELb1EE5__getB8ue170006Ev, symObjAddr: 0x17B1C, symBinAddr: 0x100018460, symSize: 0x14 }
  - { offsetInCU: 0x50FF5, offset: 0x50FF5, size: 0x8, addend: 0x0, symName: __ZNKSt3__114__split_bufferIPN4sdsl14memory_monitor8mm_eventENS_9allocatorIS4_EEE9__end_capB8ue170006Ev, symObjAddr: 0x17B30, symBinAddr: 0x100018474, symSize: 0x28 }
  - { offsetInCU: 0x5101B, offset: 0x5101B, size: 0x8, addend: 0x0, symName: __ZNKSt3__117__compressed_pairIPPN4sdsl14memory_monitor8mm_eventENS_9allocatorIS4_EEE5firstB8ue170006Ev, symObjAddr: 0x17B58, symBinAddr: 0x10001849C, symSize: 0x24 }
  - { offsetInCU: 0x51041, offset: 0x51041, size: 0x8, addend: 0x0, symName: __ZNKSt3__122__compressed_pair_elemIPPN4sdsl14memory_monitor8mm_eventELi0ELb0EE5__getB8ue170006Ev, symObjAddr: 0x17B7C, symBinAddr: 0x1000184C0, symSize: 0x14 }
  - { offsetInCU: 0x51067, offset: 0x51067, size: 0x8, addend: 0x0, symName: __ZNSt3__16vectorIN4sdsl14memory_monitor8mm_eventENS_9allocatorIS3_EEED2B8ue170006Ev, symObjAddr: 0x17B90, symBinAddr: 0x1000184D4, symSize: 0x44 }
  - { offsetInCU: 0x51091, offset: 0x51091, size: 0x8, addend: 0x0, symName: __ZNSt3__16vectorIN4sdsl14memory_monitor8mm_eventENS_9allocatorIS3_EEE16__destroy_vectorC1B8ue170006ERS6_, symObjAddr: 0x17BD4, symBinAddr: 0x100018518, symSize: 0x34 }
  - { offsetInCU: 0x510CA, offset: 0x510CA, size: 0x8, addend: 0x0, symName: __ZNSt3__16vectorIN4sdsl14memory_monitor8mm_eventENS_9allocatorIS3_EEE16__destroy_vectorclB8ue170006Ev, symObjAddr: 0x17C08, symBinAddr: 0x10001854C, symSize: 0x90 }
  - { offsetInCU: 0x510F0, offset: 0x510F0, size: 0x8, addend: 0x0, symName: __ZNSt3__16vectorIN4sdsl14memory_monitor8mm_eventENS_9allocatorIS3_EEE16__destroy_vectorC2B8ue170006ERS6_, symObjAddr: 0x17C98, symBinAddr: 0x1000185DC, symSize: 0x20 }
  - { offsetInCU: 0x51129, offset: 0x51129, size: 0x8, addend: 0x0, symName: __ZNSt3__16vectorIN4sdsl14memory_monitor8mm_eventENS_9allocatorIS3_EEE7__clearB8ue170006Ev, symObjAddr: 0x17CB8, symBinAddr: 0x1000185FC, symSize: 0x28 }
  - { offsetInCU: 0x5114F, offset: 0x5114F, size: 0x8, addend: 0x0, symName: __ZNKSt3__16vectorIN4sdsl14memory_monitor8mm_eventENS_9allocatorIS3_EEE17__annotate_deleteB8ue170006Ev, symObjAddr: 0x17CE0, symBinAddr: 0x100018624, symSize: 0xD4 }
  - { offsetInCU: 0x51175, offset: 0x51175, size: 0x8, addend: 0x0, symName: __ZNSt3__16vectorIN4sdsl14memory_monitor8mm_eventENS_9allocatorIS3_EEE7__allocB8ue170006Ev, symObjAddr: 0x17DB4, symBinAddr: 0x1000186F8, symSize: 0x28 }
  - { offsetInCU: 0x5119B, offset: 0x5119B, size: 0x8, addend: 0x0, symName: __ZNKSt3__16vectorIN4sdsl14memory_monitor8mm_eventENS_9allocatorIS3_EEE8capacityB8ue170006Ev, symObjAddr: 0x17DDC, symBinAddr: 0x100018720, symSize: 0x40 }
  - { offsetInCU: 0x511C1, offset: 0x511C1, size: 0x8, addend: 0x0, symName: __ZNSt3__16vectorIN4sdsl14memory_monitor8mm_eventENS_9allocatorIS3_EEE22__base_destruct_at_endB8ue170006EPS3_, symObjAddr: 0x17E1C, symBinAddr: 0x100018760, symSize: 0x8C }
  - { offsetInCU: 0x51205, offset: 0x51205, size: 0x8, addend: 0x0, symName: __ZNKSt3__16vectorIN4sdsl14memory_monitor8mm_eventENS_9allocatorIS3_EEE31__annotate_contiguous_containerB8ue170006EPKvS8_S8_S8_, symObjAddr: 0x17EA8, symBinAddr: 0x1000187EC, symSize: 0x20 }
  - { offsetInCU: 0x5125B, offset: 0x5125B, size: 0x8, addend: 0x0, symName: __ZNKSt3__16vectorIN4sdsl14memory_monitor8mm_eventENS_9allocatorIS3_EEE4dataB8ue170006Ev, symObjAddr: 0x17EC8, symBinAddr: 0x10001880C, symSize: 0x28 }
  - { offsetInCU: 0x51281, offset: 0x51281, size: 0x8, addend: 0x0, symName: __ZNKSt3__16vectorIN4sdsl14memory_monitor8mm_eventENS_9allocatorIS3_EEE4sizeB8ue170006Ev, symObjAddr: 0x17EF0, symBinAddr: 0x100018834, symSize: 0x28 }
  - { offsetInCU: 0x512A7, offset: 0x512A7, size: 0x8, addend: 0x0, symName: __ZNSt3__117__compressed_pairIPN4sdsl14memory_monitor8mm_eventENS_9allocatorIS3_EEE6secondB8ue170006Ev, symObjAddr: 0x17F18, symBinAddr: 0x10001885C, symSize: 0x24 }
  - { offsetInCU: 0x512CD, offset: 0x512CD, size: 0x8, addend: 0x0, symName: __ZNKSt3__16vectorIN4sdsl14memory_monitor8mm_eventENS_9allocatorIS3_EEE9__end_capB8ue170006Ev, symObjAddr: 0x17F3C, symBinAddr: 0x100018880, symSize: 0x28 }
  - { offsetInCU: 0x512F3, offset: 0x512F3, size: 0x8, addend: 0x0, symName: __ZNKSt3__117__compressed_pairIPN4sdsl14memory_monitor8mm_eventENS_9allocatorIS3_EEE5firstB8ue170006Ev, symObjAddr: 0x17F64, symBinAddr: 0x1000188A8, symSize: 0x24 }
  - { offsetInCU: 0x51319, offset: 0x51319, size: 0x8, addend: 0x0, symName: __ZNKSt3__122__compressed_pair_elemIPN4sdsl14memory_monitor8mm_eventELi0ELb0EE5__getB8ue170006Ev, symObjAddr: 0x17F88, symBinAddr: 0x1000188CC, symSize: 0x14 }
  - { offsetInCU: 0x5133F, offset: 0x5133F, size: 0x8, addend: 0x0, symName: __ZN4sdsl14memory_monitorD2Ev, symObjAddr: 0x17F9C, symBinAddr: 0x1000188E0, symSize: 0x64 }
  - { offsetInCU: 0x51369, offset: 0x51369, size: 0x8, addend: 0x0, symName: __ZN4sdsl14memory_monitor4stopEv, symObjAddr: 0x18000, symBinAddr: 0x100018944, symSize: 0x74 }
  - { offsetInCU: 0x5138C, offset: 0x5138C, size: 0x8, addend: 0x0, symName: __ZNKSt3__15stackIN4sdsl14memory_monitor8mm_eventENS_5dequeIS3_NS_9allocatorIS3_EEEEE5emptyB8ue170006Ev, symObjAddr: 0x18074, symBinAddr: 0x1000189B8, symSize: 0x28 }
  - { offsetInCU: 0x513B8, offset: 0x513B8, size: 0x8, addend: 0x0, symName: __ZNSt3__16vectorIN4sdsl14memory_monitor8mm_eventENS_9allocatorIS3_EEE12emplace_backIJS3_EEEvDpOT_, symObjAddr: 0x1809C, symBinAddr: 0x1000189E0, symSize: 0x6C }
  - { offsetInCU: 0x513FA, offset: 0x513FA, size: 0x8, addend: 0x0, symName: __ZNSt3__15stackIN4sdsl14memory_monitor8mm_eventENS_5dequeIS3_NS_9allocatorIS3_EEEEE3popB8ue170006Ev, symObjAddr: 0x18108, symBinAddr: 0x100018A4C, symSize: 0x24 }
  - { offsetInCU: 0x51420, offset: 0x51420, size: 0x8, addend: 0x0, symName: __ZNSt3__16vectorIN4sdsl14memory_monitor8mm_eventENS_9allocatorIS3_EEE9__end_capB8ue170006Ev, symObjAddr: 0x1812C, symBinAddr: 0x100018A70, symSize: 0x28 }
  - { offsetInCU: 0x51446, offset: 0x51446, size: 0x8, addend: 0x0, symName: __ZNSt3__16vectorIN4sdsl14memory_monitor8mm_eventENS_9allocatorIS3_EEE22__construct_one_at_endB8ue170006IJS3_EEEvDpOT_, symObjAddr: 0x18154, symBinAddr: 0x100018A98, symSize: 0x90 }
  - { offsetInCU: 0x51495, offset: 0x51495, size: 0x8, addend: 0x0, symName: __ZNSt3__16vectorIN4sdsl14memory_monitor8mm_eventENS_9allocatorIS3_EEE24__emplace_back_slow_pathIJS3_EEEvDpOT_, symObjAddr: 0x181E4, symBinAddr: 0x100018B28, symSize: 0xD8 }
  - { offsetInCU: 0x514F5, offset: 0x514F5, size: 0x8, addend: 0x0, symName: __ZNSt3__117__compressed_pairIPN4sdsl14memory_monitor8mm_eventENS_9allocatorIS3_EEE5firstB8ue170006Ev, symObjAddr: 0x182BC, symBinAddr: 0x100018C00, symSize: 0x24 }
  - { offsetInCU: 0x5151B, offset: 0x5151B, size: 0x8, addend: 0x0, symName: __ZNSt3__122__compressed_pair_elemIPN4sdsl14memory_monitor8mm_eventELi0ELb0EE5__getB8ue170006Ev, symObjAddr: 0x182E0, symBinAddr: 0x100018C24, symSize: 0x14 }
  - { offsetInCU: 0x5155C, offset: 0x5155C, size: 0x8, addend: 0x0, symName: __ZNSt3__16vectorIN4sdsl14memory_monitor8mm_eventENS_9allocatorIS3_EEE21_ConstructTransactionC1B8ue170006ERS6_m, symObjAddr: 0x182F4, symBinAddr: 0x100018C38, symSize: 0x3C }
  - { offsetInCU: 0x515A4, offset: 0x515A4, size: 0x8, addend: 0x0, symName: __ZNSt3__116allocator_traitsINS_9allocatorIN4sdsl14memory_monitor8mm_eventEEEE9constructB8ue170006IS4_JS4_EvEEvRS5_PT_DpOT0_, symObjAddr: 0x18330, symBinAddr: 0x100018C74, symSize: 0x34 }
  - { offsetInCU: 0x515FB, offset: 0x515FB, size: 0x8, addend: 0x0, symName: __ZNSt3__16vectorIN4sdsl14memory_monitor8mm_eventENS_9allocatorIS3_EEE21_ConstructTransactionD1B8ue170006Ev, symObjAddr: 0x18364, symBinAddr: 0x100018CA8, symSize: 0x2C }
  - { offsetInCU: 0x51625, offset: 0x51625, size: 0x8, addend: 0x0, symName: __ZNSt3__16vectorIN4sdsl14memory_monitor8mm_eventENS_9allocatorIS3_EEE21_ConstructTransactionC2B8ue170006ERS6_m, symObjAddr: 0x18390, symBinAddr: 0x100018CD4, symSize: 0x4C }
  - { offsetInCU: 0x5166D, offset: 0x5166D, size: 0x8, addend: 0x0, symName: __ZNSt3__19allocatorIN4sdsl14memory_monitor8mm_eventEE9constructB8ue170006IS3_JS3_EEEvPT_DpOT0_, symObjAddr: 0x183DC, symBinAddr: 0x100018D20, symSize: 0x30 }
  - { offsetInCU: 0x516C3, offset: 0x516C3, size: 0x8, addend: 0x0, symName: __ZN4sdsl14memory_monitor8mm_eventC1EOS1_, symObjAddr: 0x1840C, symBinAddr: 0x100018D50, symSize: 0x34 }
  - { offsetInCU: 0x516F8, offset: 0x516F8, size: 0x8, addend: 0x0, symName: __ZN4sdsl14memory_monitor8mm_eventC2EOS1_, symObjAddr: 0x18440, symBinAddr: 0x100018D84, symSize: 0x48 }
  - { offsetInCU: 0x5172D, offset: 0x5172D, size: 0x8, addend: 0x0, symName: __ZNSt3__112basic_stringIcNS_11char_traitsIcEENS_9allocatorIcEEEC1B8ue170006EOS5_, symObjAddr: 0x18488, symBinAddr: 0x100018DCC, symSize: 0x34 }
  - { offsetInCU: 0x51766, offset: 0x51766, size: 0x8, addend: 0x0, symName: __ZNSt3__16vectorIN4sdsl14memory_monitor8mm_allocENS_9allocatorIS3_EEEC1B8ue170006EOS6_, symObjAddr: 0x184BC, symBinAddr: 0x100018E00, symSize: 0x34 }
  - { offsetInCU: 0x517A1, offset: 0x517A1, size: 0x8, addend: 0x0, symName: __ZNSt3__112basic_stringIcNS_11char_traitsIcEENS_9allocatorIcEEEC2B8ue170006EOS5_, symObjAddr: 0x184F0, symBinAddr: 0x100018E34, symSize: 0x50 }
  - { offsetInCU: 0x517DA, offset: 0x517DA, size: 0x8, addend: 0x0, symName: __ZNSt3__112basic_stringIcNS_11char_traitsIcEENS_9allocatorIcEEE14__default_initB8ue170006Ev, symObjAddr: 0x18540, symBinAddr: 0x100018E84, symSize: 0x40 }
  - { offsetInCU: 0x51800, offset: 0x51800, size: 0x8, addend: 0x0, symName: __ZNSt3__117__compressed_pairINS_12basic_stringIcNS_11char_traitsIcEENS_9allocatorIcEEE5__repES5_E5firstB8ue170006Ev, symObjAddr: 0x18580, symBinAddr: 0x100018EC4, symSize: 0x24 }
  - { offsetInCU: 0x51826, offset: 0x51826, size: 0x8, addend: 0x0, symName: __ZNSt3__122__compressed_pair_elemINS_12basic_stringIcNS_11char_traitsIcEENS_9allocatorIcEEE5__repELi0ELb0EE5__getB8ue170006Ev, symObjAddr: 0x185A4, symBinAddr: 0x100018EE8, symSize: 0x14 }
  - { offsetInCU: 0x5184C, offset: 0x5184C, size: 0x8, addend: 0x0, symName: __ZNSt3__16vectorIN4sdsl14memory_monitor8mm_allocENS_9allocatorIS3_EEEC2B8ue170006EOS6_, symObjAddr: 0x185B8, symBinAddr: 0x100018EFC, symSize: 0xC4 }
  - { offsetInCU: 0x5188D, offset: 0x5188D, size: 0x8, addend: 0x0, symName: __ZNSt3__117__compressed_pairIPN4sdsl14memory_monitor8mm_allocENS_9allocatorIS3_EEEC1B8ue170006IDnS6_EEOT_OT0_, symObjAddr: 0x1867C, symBinAddr: 0x100018FC0, symSize: 0x3C }
  - { offsetInCU: 0x518E5, offset: 0x518E5, size: 0x8, addend: 0x0, symName: __ZNSt3__16vectorIN4sdsl14memory_monitor8mm_allocENS_9allocatorIS3_EEE9__end_capB8ue170006Ev, symObjAddr: 0x186B8, symBinAddr: 0x100018FFC, symSize: 0x28 }
  - { offsetInCU: 0x5190B, offset: 0x5190B, size: 0x8, addend: 0x0, symName: __ZNSt3__117__compressed_pairIPN4sdsl14memory_monitor8mm_allocENS_9allocatorIS3_EEEC2B8ue170006IDnS6_EEOT_OT0_, symObjAddr: 0x186E0, symBinAddr: 0x100019024, symSize: 0x44 }
  - { offsetInCU: 0x51963, offset: 0x51963, size: 0x8, addend: 0x0, symName: __ZNSt3__122__compressed_pair_elemIPN4sdsl14memory_monitor8mm_allocELi0ELb0EEC2B8ue170006IDnvEEOT_, symObjAddr: 0x18724, symBinAddr: 0x100019068, symSize: 0x1C }
  - { offsetInCU: 0x519A5, offset: 0x519A5, size: 0x8, addend: 0x0, symName: __ZNSt3__122__compressed_pair_elemINS_9allocatorIN4sdsl14memory_monitor8mm_allocEEELi1ELb1EEC2B8ue170006IS5_vEEOT_, symObjAddr: 0x18740, symBinAddr: 0x100019084, symSize: 0x18 }
  - { offsetInCU: 0x519E7, offset: 0x519E7, size: 0x8, addend: 0x0, symName: __ZNSt3__117__compressed_pairIPN4sdsl14memory_monitor8mm_allocENS_9allocatorIS3_EEE5firstB8ue170006Ev, symObjAddr: 0x18758, symBinAddr: 0x10001909C, symSize: 0x24 }
  - { offsetInCU: 0x51A0D, offset: 0x51A0D, size: 0x8, addend: 0x0, symName: __ZNSt3__122__compressed_pair_elemIPN4sdsl14memory_monitor8mm_allocELi0ELb0EE5__getB8ue170006Ev, symObjAddr: 0x1877C, symBinAddr: 0x1000190C0, symSize: 0x14 }
  - { offsetInCU: 0x51A33, offset: 0x51A33, size: 0x8, addend: 0x0, symName: __ZNSt3__16vectorIN4sdsl14memory_monitor8mm_eventENS_9allocatorIS3_EEE21_ConstructTransactionD2B8ue170006Ev, symObjAddr: 0x18790, symBinAddr: 0x1000190D4, symSize: 0x20 }
  - { offsetInCU: 0x51A5D, offset: 0x51A5D, size: 0x8, addend: 0x0, symName: __ZNKSt3__16vectorIN4sdsl14memory_monitor8mm_eventENS_9allocatorIS3_EEE11__recommendB8ue170006Em, symObjAddr: 0x187B0, symBinAddr: 0x1000190F4, symSize: 0xB4 }
  - { offsetInCU: 0x51AB2, offset: 0x51AB2, size: 0x8, addend: 0x0, symName: __ZNSt3__114__split_bufferIN4sdsl14memory_monitor8mm_eventERNS_9allocatorIS3_EEEC1EmmS6_, symObjAddr: 0x18864, symBinAddr: 0x1000191A8, symSize: 0x44 }
  - { offsetInCU: 0x51B08, offset: 0x51B08, size: 0x8, addend: 0x0, symName: __ZNSt3__114__split_bufferIN4sdsl14memory_monitor8mm_eventERNS_9allocatorIS3_EEED1Ev, symObjAddr: 0x189B8, symBinAddr: 0x1000192FC, symSize: 0x2C }
  - { offsetInCU: 0x51B34, offset: 0x51B34, size: 0x8, addend: 0x0, symName: __ZNKSt3__16vectorIN4sdsl14memory_monitor8mm_eventENS_9allocatorIS3_EEE8max_sizeEv, symObjAddr: 0x189E4, symBinAddr: 0x100019328, symSize: 0x60 }
  - { offsetInCU: 0x51B5C, offset: 0x51B5C, size: 0x8, addend: 0x0, symName: __ZNKSt3__16vectorIN4sdsl14memory_monitor8mm_eventENS_9allocatorIS3_EEE20__throw_length_errorB8ue170006Ev, symObjAddr: 0x18A44, symBinAddr: 0x100019388, symSize: 0x1C }
  - { offsetInCU: 0x51B8D, offset: 0x51B8D, size: 0x8, addend: 0x0, symName: __ZNSt3__116allocator_traitsINS_9allocatorIN4sdsl14memory_monitor8mm_eventEEEE8max_sizeB8ue170006IS5_vEEmRKS5_, symObjAddr: 0x18A60, symBinAddr: 0x1000193A4, symSize: 0x24 }
  - { offsetInCU: 0x51BBB, offset: 0x51BBB, size: 0x8, addend: 0x0, symName: __ZNKSt3__16vectorIN4sdsl14memory_monitor8mm_eventENS_9allocatorIS3_EEE7__allocB8ue170006Ev, symObjAddr: 0x18A84, symBinAddr: 0x1000193C8, symSize: 0x28 }
  - { offsetInCU: 0x51BE1, offset: 0x51BE1, size: 0x8, addend: 0x0, symName: __ZNKSt3__19allocatorIN4sdsl14memory_monitor8mm_eventEE8max_sizeB8ue170006Ev, symObjAddr: 0x18AAC, symBinAddr: 0x1000193F0, symSize: 0x18 }
  - { offsetInCU: 0x51C07, offset: 0x51C07, size: 0x8, addend: 0x0, symName: __ZNKSt3__117__compressed_pairIPN4sdsl14memory_monitor8mm_eventENS_9allocatorIS3_EEE6secondB8ue170006Ev, symObjAddr: 0x18AC4, symBinAddr: 0x100019408, symSize: 0x24 }
  - { offsetInCU: 0x51C2D, offset: 0x51C2D, size: 0x8, addend: 0x0, symName: __ZNKSt3__122__compressed_pair_elemINS_9allocatorIN4sdsl14memory_monitor8mm_eventEEELi1ELb1EE5__getB8ue170006Ev, symObjAddr: 0x18AE8, symBinAddr: 0x10001942C, symSize: 0x14 }
  - { offsetInCU: 0x51C53, offset: 0x51C53, size: 0x8, addend: 0x0, symName: __ZNSt3__114__split_bufferIN4sdsl14memory_monitor8mm_eventERNS_9allocatorIS3_EEEC2EmmS6_, symObjAddr: 0x18AFC, symBinAddr: 0x100019440, symSize: 0xE0 }
  - { offsetInCU: 0x51CC6, offset: 0x51CC6, size: 0x8, addend: 0x0, symName: __ZNSt3__117__compressed_pairIPN4sdsl14memory_monitor8mm_eventERNS_9allocatorIS3_EEEC1B8ue170006IDnS7_EEOT_OT0_, symObjAddr: 0x18BDC, symBinAddr: 0x100019520, symSize: 0x3C }
  - { offsetInCU: 0x51D1E, offset: 0x51D1E, size: 0x8, addend: 0x0, symName: __ZNSt3__114__split_bufferIN4sdsl14memory_monitor8mm_eventERNS_9allocatorIS3_EEE7__allocB8ue170006Ev, symObjAddr: 0x18C58, symBinAddr: 0x10001959C, symSize: 0x28 }
  - { offsetInCU: 0x51D44, offset: 0x51D44, size: 0x8, addend: 0x0, symName: __ZNSt3__114__split_bufferIN4sdsl14memory_monitor8mm_eventERNS_9allocatorIS3_EEE9__end_capB8ue170006Ev, symObjAddr: 0x18C80, symBinAddr: 0x1000195C4, symSize: 0x28 }
  - { offsetInCU: 0x51D6A, offset: 0x51D6A, size: 0x8, addend: 0x0, symName: __ZNSt3__117__compressed_pairIPN4sdsl14memory_monitor8mm_eventERNS_9allocatorIS3_EEEC2B8ue170006IDnS7_EEOT_OT0_, symObjAddr: 0x18CA8, symBinAddr: 0x1000195EC, symSize: 0x48 }
  - { offsetInCU: 0x51DC2, offset: 0x51DC2, size: 0x8, addend: 0x0, symName: __ZNSt3__122__compressed_pair_elemIRNS_9allocatorIN4sdsl14memory_monitor8mm_eventEEELi1ELb0EEC2B8ue170006IS6_vEEOT_, symObjAddr: 0x18CF0, symBinAddr: 0x100019634, symSize: 0x20 }
  - { offsetInCU: 0x51E04, offset: 0x51E04, size: 0x8, addend: 0x0, symName: __ZNSt3__19allocatorIN4sdsl14memory_monitor8mm_eventEE8allocateB8ue170006Em, symObjAddr: 0x18D10, symBinAddr: 0x100019654, symSize: 0x5C }
  - { offsetInCU: 0x51E38, offset: 0x51E38, size: 0x8, addend: 0x0, symName: __ZNSt3__117__compressed_pairIPN4sdsl14memory_monitor8mm_eventERNS_9allocatorIS3_EEE6secondB8ue170006Ev, symObjAddr: 0x18D6C, symBinAddr: 0x1000196B0, symSize: 0x28 }
  - { offsetInCU: 0x51E5E, offset: 0x51E5E, size: 0x8, addend: 0x0, symName: __ZNSt3__122__compressed_pair_elemIRNS_9allocatorIN4sdsl14memory_monitor8mm_eventEEELi1ELb0EE5__getB8ue170006Ev, symObjAddr: 0x18D94, symBinAddr: 0x1000196D8, symSize: 0x18 }
  - { offsetInCU: 0x51E84, offset: 0x51E84, size: 0x8, addend: 0x0, symName: __ZNSt3__117__compressed_pairIPN4sdsl14memory_monitor8mm_eventERNS_9allocatorIS3_EEE5firstB8ue170006Ev, symObjAddr: 0x18DAC, symBinAddr: 0x1000196F0, symSize: 0x24 }
  - { offsetInCU: 0x51EAA, offset: 0x51EAA, size: 0x8, addend: 0x0, symName: __ZNSt3__116reverse_iteratorIPN4sdsl14memory_monitor8mm_eventEEC1B8ue170006ES4_, symObjAddr: 0x18EFC, symBinAddr: 0x100019840, symSize: 0x34 }
  - { offsetInCU: 0x51EE2, offset: 0x51EE2, size: 0x8, addend: 0x0, symName: __ZNKSt3__116reverse_iteratorIPN4sdsl14memory_monitor8mm_eventEE4baseB8ue170006Ev, symObjAddr: 0x18F30, symBinAddr: 0x100019874, symSize: 0x18 }
  - { offsetInCU: 0x51F08, offset: 0x51F08, size: 0x8, addend: 0x0, symName: __ZNKSt3__16vectorIN4sdsl14memory_monitor8mm_eventENS_9allocatorIS3_EEE14__annotate_newB8ue170006Em, symObjAddr: 0x18F84, symBinAddr: 0x1000198C8, symSize: 0xC8 }
  - { offsetInCU: 0x51F3D, offset: 0x51F3D, size: 0x8, addend: 0x0, symName: __ZNSt3__129_AllocatorDestroyRangeReverseINS_9allocatorIN4sdsl14memory_monitor8mm_eventEEENS_16reverse_iteratorIPS4_EEEC1B8ue170006ERS5_RS8_SB_, symObjAddr: 0x19098, symBinAddr: 0x1000199DC, symSize: 0x44 }
  - { offsetInCU: 0x51F94, offset: 0x51F94, size: 0x8, addend: 0x0, symName: __ZNKSt3__116reverse_iteratorIPN4sdsl14memory_monitor8mm_eventEEdeB8ue170006Ev, symObjAddr: 0x19148, symBinAddr: 0x100019A8C, symSize: 0x28 }
  - { offsetInCU: 0x51FC8, offset: 0x51FC8, size: 0x8, addend: 0x0, symName: __ZNSt3__116reverse_iteratorIPN4sdsl14memory_monitor8mm_eventEEppB8ue170006Ev, symObjAddr: 0x19170, symBinAddr: 0x100019AB4, symSize: 0x20 }
  - { offsetInCU: 0x51FEE, offset: 0x51FEE, size: 0x8, addend: 0x0, symName: __ZNSt3__128__exception_guard_exceptionsINS_29_AllocatorDestroyRangeReverseINS_9allocatorIN4sdsl14memory_monitor8mm_eventEEENS_16reverse_iteratorIPS5_EEEEE10__completeB8ue170006Ev, symObjAddr: 0x19190, symBinAddr: 0x100019AD4, symSize: 0x1C }
  - { offsetInCU: 0x52014, offset: 0x52014, size: 0x8, addend: 0x0, symName: __ZNSt3__128__exception_guard_exceptionsINS_29_AllocatorDestroyRangeReverseINS_9allocatorIN4sdsl14memory_monitor8mm_eventEEENS_16reverse_iteratorIPS5_EEEEED1B8ue170006Ev, symObjAddr: 0x191AC, symBinAddr: 0x100019AF0, symSize: 0x2C }
  - { offsetInCU: 0x5203E, offset: 0x5203E, size: 0x8, addend: 0x0, symName: __ZNSt3__128__exception_guard_exceptionsINS_29_AllocatorDestroyRangeReverseINS_9allocatorIN4sdsl14memory_monitor8mm_eventEEENS_16reverse_iteratorIPS5_EEEEEC1B8ue170006ESA_, symObjAddr: 0x191D8, symBinAddr: 0x100019B1C, symSize: 0x34 }
  - { offsetInCU: 0x52077, offset: 0x52077, size: 0x8, addend: 0x0, symName: __ZNSt3__128__exception_guard_exceptionsINS_29_AllocatorDestroyRangeReverseINS_9allocatorIN4sdsl14memory_monitor8mm_eventEEENS_16reverse_iteratorIPS5_EEEEEC2B8ue170006ESA_, symObjAddr: 0x1920C, symBinAddr: 0x100019B50, symSize: 0x30 }
  - { offsetInCU: 0x520B0, offset: 0x520B0, size: 0x8, addend: 0x0, symName: __ZNSt3__129_AllocatorDestroyRangeReverseINS_9allocatorIN4sdsl14memory_monitor8mm_eventEEENS_16reverse_iteratorIPS4_EEEC2B8ue170006ERS5_RS8_SB_, symObjAddr: 0x1923C, symBinAddr: 0x100019B80, symSize: 0x38 }
  - { offsetInCU: 0x5210D, offset: 0x5210D, size: 0x8, addend: 0x0, symName: __ZNSt3__119__to_address_helperINS_16reverse_iteratorIPN4sdsl14memory_monitor8mm_eventEEEvE6__callB8ue170006ERKS6_, symObjAddr: 0x19274, symBinAddr: 0x100019BB8, symSize: 0x38 }
  - { offsetInCU: 0x52130, offset: 0x52130, size: 0x8, addend: 0x0, symName: __ZNKSt3__116reverse_iteratorIPN4sdsl14memory_monitor8mm_eventEEptB8ue170006Ev, symObjAddr: 0x192AC, symBinAddr: 0x100019BF0, symSize: 0x24 }
  - { offsetInCU: 0x52156, offset: 0x52156, size: 0x8, addend: 0x0, symName: __ZNSt3__128__exception_guard_exceptionsINS_29_AllocatorDestroyRangeReverseINS_9allocatorIN4sdsl14memory_monitor8mm_eventEEENS_16reverse_iteratorIPS5_EEEEED2B8ue170006Ev, symObjAddr: 0x192D0, symBinAddr: 0x100019C14, symSize: 0x50 }
  - { offsetInCU: 0x52180, offset: 0x52180, size: 0x8, addend: 0x0, symName: __ZNKSt3__129_AllocatorDestroyRangeReverseINS_9allocatorIN4sdsl14memory_monitor8mm_eventEEENS_16reverse_iteratorIPS4_EEEclB8ue170006Ev, symObjAddr: 0x19320, symBinAddr: 0x100019C64, symSize: 0xB4 }
  - { offsetInCU: 0x521A7, offset: 0x521A7, size: 0x8, addend: 0x0, symName: __ZNSt3__116reverse_iteratorINS0_IPN4sdsl14memory_monitor8mm_eventEEEEC1B8ue170006ES5_, symObjAddr: 0x19444, symBinAddr: 0x100019D88, symSize: 0x3C }
  - { offsetInCU: 0x521DF, offset: 0x521DF, size: 0x8, addend: 0x0, symName: __ZNSt3__116reverse_iteratorINS0_IPN4sdsl14memory_monitor8mm_eventEEEEppB8ue170006Ev, symObjAddr: 0x19504, symBinAddr: 0x100019E48, symSize: 0x30 }
  - { offsetInCU: 0x52205, offset: 0x52205, size: 0x8, addend: 0x0, symName: __ZNKSt3__116reverse_iteratorINS0_IPN4sdsl14memory_monitor8mm_eventEEEE4baseB8ue170006Ev, symObjAddr: 0x19534, symBinAddr: 0x100019E78, symSize: 0x24 }
  - { offsetInCU: 0x52231, offset: 0x52231, size: 0x8, addend: 0x0, symName: __ZNSt3__119__to_address_helperINS_16reverse_iteratorINS1_IPN4sdsl14memory_monitor8mm_eventEEEEEvE6__callB8ue170006ERKS7_, symObjAddr: 0x19558, symBinAddr: 0x100019E9C, symSize: 0x38 }
  - { offsetInCU: 0x52254, offset: 0x52254, size: 0x8, addend: 0x0, symName: __ZNKSt3__116reverse_iteratorINS0_IPN4sdsl14memory_monitor8mm_eventEEEEptB8ue170006Ev, symObjAddr: 0x19590, symBinAddr: 0x100019ED4, symSize: 0x24 }
  - { offsetInCU: 0x5227A, offset: 0x5227A, size: 0x8, addend: 0x0, symName: __ZNKSt3__116reverse_iteratorINS0_IPN4sdsl14memory_monitor8mm_eventEEEEdeB8ue170006Ev, symObjAddr: 0x195B4, symBinAddr: 0x100019EF8, symSize: 0x34 }
  - { offsetInCU: 0x522AE, offset: 0x522AE, size: 0x8, addend: 0x0, symName: __ZNSt3__116reverse_iteratorIPN4sdsl14memory_monitor8mm_eventEEmmB8ue170006Ev, symObjAddr: 0x195E8, symBinAddr: 0x100019F2C, symSize: 0x20 }
  - { offsetInCU: 0x522D4, offset: 0x522D4, size: 0x8, addend: 0x0, symName: __ZNSt3__116reverse_iteratorINS0_IPN4sdsl14memory_monitor8mm_eventEEEEC2B8ue170006ES5_, symObjAddr: 0x19608, symBinAddr: 0x100019F4C, symSize: 0x2C }
  - { offsetInCU: 0x5230C, offset: 0x5230C, size: 0x8, addend: 0x0, symName: __ZNSt3__116reverse_iteratorIPN4sdsl14memory_monitor8mm_eventEEC2B8ue170006ES4_, symObjAddr: 0x19634, symBinAddr: 0x100019F78, symSize: 0x28 }
  - { offsetInCU: 0x52344, offset: 0x52344, size: 0x8, addend: 0x0, symName: __ZNSt3__114__split_bufferIN4sdsl14memory_monitor8mm_eventERNS_9allocatorIS3_EEED2Ev, symObjAddr: 0x1965C, symBinAddr: 0x100019FA0, symSize: 0x8C }
  - { offsetInCU: 0x52370, offset: 0x52370, size: 0x8, addend: 0x0, symName: __ZNSt3__114__split_bufferIN4sdsl14memory_monitor8mm_eventERNS_9allocatorIS3_EEE5clearB8ue170006Ev, symObjAddr: 0x196E8, symBinAddr: 0x10001A02C, symSize: 0x28 }
  - { offsetInCU: 0x52396, offset: 0x52396, size: 0x8, addend: 0x0, symName: __ZNKSt3__114__split_bufferIN4sdsl14memory_monitor8mm_eventERNS_9allocatorIS3_EEE8capacityB8ue170006Ev, symObjAddr: 0x19710, symBinAddr: 0x10001A054, symSize: 0x40 }
  - { offsetInCU: 0x523BC, offset: 0x523BC, size: 0x8, addend: 0x0, symName: __ZNSt3__114__split_bufferIN4sdsl14memory_monitor8mm_eventERNS_9allocatorIS3_EEE17__destruct_at_endB8ue170006EPS3_, symObjAddr: 0x19750, symBinAddr: 0x10001A094, symSize: 0x2C }
  - { offsetInCU: 0x523F0, offset: 0x523F0, size: 0x8, addend: 0x0, symName: __ZNSt3__114__split_bufferIN4sdsl14memory_monitor8mm_eventERNS_9allocatorIS3_EEE17__destruct_at_endB8ue170006EPS3_NS_17integral_constantIbLb0EEE, symObjAddr: 0x1977C, symBinAddr: 0x10001A0C0, symSize: 0x80 }
  - { offsetInCU: 0x52431, offset: 0x52431, size: 0x8, addend: 0x0, symName: __ZNKSt3__114__split_bufferIN4sdsl14memory_monitor8mm_eventERNS_9allocatorIS3_EEE9__end_capB8ue170006Ev, symObjAddr: 0x197FC, symBinAddr: 0x10001A140, symSize: 0x28 }
  - { offsetInCU: 0x52457, offset: 0x52457, size: 0x8, addend: 0x0, symName: __ZNKSt3__117__compressed_pairIPN4sdsl14memory_monitor8mm_eventERNS_9allocatorIS3_EEE5firstB8ue170006Ev, symObjAddr: 0x19824, symBinAddr: 0x10001A168, symSize: 0x24 }
  - { offsetInCU: 0x5247D, offset: 0x5247D, size: 0x8, addend: 0x0, symName: __ZNSt3__15dequeIN4sdsl14memory_monitor8mm_eventENS_9allocatorIS3_EEE8pop_backEv, symObjAddr: 0x19848, symBinAddr: 0x10001A18C, symSize: 0xE8 }
  - { offsetInCU: 0x524E1, offset: 0x524E1, size: 0x8, addend: 0x0, symName: __ZNKSt3__15dequeIN4sdsl14memory_monitor8mm_eventENS_9allocatorIS3_EEE22__annotate_shrink_backB8ue170006Emm, symObjAddr: 0x19930, symBinAddr: 0x10001A274, symSize: 0x60 }
  - { offsetInCU: 0x52525, offset: 0x52525, size: 0x8, addend: 0x0, symName: __ZNSt3__15dequeIN4sdsl14memory_monitor8mm_eventENS_9allocatorIS3_EEE25__maybe_remove_back_spareB8ue170006Eb, symObjAddr: 0x19990, symBinAddr: 0x10001A2D4, symSize: 0xE8 }
  - { offsetInCU: 0x5255A, offset: 0x5255A, size: 0x8, addend: 0x0, symName: __ZNKSt3__15dequeIN4sdsl14memory_monitor8mm_eventENS_9allocatorIS3_EEE19__back_spare_blocksB8ue170006Ev, symObjAddr: 0x19A78, symBinAddr: 0x10001A3BC, symSize: 0x2C }
  - { offsetInCU: 0x52580, offset: 0x52580, size: 0x8, addend: 0x0, symName: __ZNSt3__114__split_bufferIPN4sdsl14memory_monitor8mm_eventENS_9allocatorIS4_EEE4backB8ue170006Ev, symObjAddr: 0x19AA4, symBinAddr: 0x10001A3E8, symSize: 0x1C }
  - { offsetInCU: 0x525A6, offset: 0x525A6, size: 0x8, addend: 0x0, symName: __ZNSt3__114__split_bufferIPN4sdsl14memory_monitor8mm_eventENS_9allocatorIS4_EEE8pop_backB8ue170006Ev, symObjAddr: 0x19AC0, symBinAddr: 0x10001A404, symSize: 0x2C }
  - { offsetInCU: 0x525CC, offset: 0x525CC, size: 0x8, addend: 0x0, symName: __ZNKSt3__15dequeIN4sdsl14memory_monitor8mm_eventENS_9allocatorIS3_EEE12__back_spareB8ue170006Ev, symObjAddr: 0x19AEC, symBinAddr: 0x10001A430, symSize: 0x54 }
  - { offsetInCU: 0x525F2, offset: 0x525F2, size: 0x8, addend: 0x0, symName: __ZNKSt3__15dequeIN4sdsl14memory_monitor8mm_eventENS_9allocatorIS3_EEE10__capacityB8ue170006Ev, symObjAddr: 0x19B40, symBinAddr: 0x10001A484, symSize: 0x64 }
  - { offsetInCU: 0x52618, offset: 0x52618, size: 0x8, addend: 0x0, symName: __ZNSt3__110lock_guardIN4sdsl4util9spin_lockEEC2B8ue170006ERS3_, symObjAddr: 0x19BA4, symBinAddr: 0x10001A4E8, symSize: 0x3C }
  - { offsetInCU: 0x52650, offset: 0x52650, size: 0x8, addend: 0x0, symName: __ZN4sdsl4util9spin_lock4lockEv, symObjAddr: 0x19BE0, symBinAddr: 0x10001A524, symSize: 0x40 }
  - { offsetInCU: 0x52676, offset: 0x52676, size: 0x8, addend: 0x0, symName: __ZNSt3__111atomic_flag12test_and_setB8ue170006ENS_12memory_orderE, symObjAddr: 0x19C20, symBinAddr: 0x10001A564, symSize: 0x38 }
  - { offsetInCU: 0x526AA, offset: 0x526AA, size: 0x8, addend: 0x0, symName: __ZNKSt3__16chrono10time_pointINS0_12steady_clockENS0_8durationIxNS_5ratioILl1ELl1000000000EEEEEE16time_since_epochB8ue170006Ev, symObjAddr: 0x19D74, symBinAddr: 0x10001A6B8, symSize: 0x20 }
  - { offsetInCU: 0x526DA, offset: 0x526DA, size: 0x8, addend: 0x0, symName: __ZNKSt3__16chrono13__duration_ltINS0_8durationIxNS_5ratioILl1ELl1000000000EEEEES5_EclB8ue170006ERKS5_S8_, symObjAddr: 0x19D94, symBinAddr: 0x10001A6D8, symSize: 0x4C }
  - { offsetInCU: 0x5271E, offset: 0x5271E, size: 0x8, addend: 0x0, symName: __ZNKSt3__16chrono8durationIxNS_5ratioILl1ELl1000000000EEEE5countB8ue170006Ev, symObjAddr: 0x19DE0, symBinAddr: 0x10001A724, symSize: 0x18 }
  - { offsetInCU: 0x52744, offset: 0x52744, size: 0x8, addend: 0x0, symName: __ZNSt3__16chrono10time_pointINS0_12steady_clockENS0_8durationIxNS_5ratioILl1ELl1000000000EEEEEEC1B8ue170006ERKS6_, symObjAddr: 0x19E74, symBinAddr: 0x10001A7B8, symSize: 0x34 }
  - { offsetInCU: 0x5277C, offset: 0x5277C, size: 0x8, addend: 0x0, symName: __ZNSt3__16chrono8durationIxNS_5ratioILl1ELl1000000000EEEEC1B8ue170006IxNS2_ILl1ELl1000EEEEERKNS1_IT_T0_EEPNS_9enable_ifIXaasr13__no_overflowIS8_S3_EE5valueooL_ZNS_17integral_constantIbLb0EE5valueEEaaeqsr13__no_overflowIS8_S3_E4typeE3denLi1Entsr23treat_as_floating_pointIS7_EE5valueEvE4typeE, symObjAddr: 0x19EA8, symBinAddr: 0x10001A7EC, symSize: 0x3C }
  - { offsetInCU: 0x527DE, offset: 0x527DE, size: 0x8, addend: 0x0, symName: __ZNSt3__16chrono8durationIxNS_5ratioILl1ELl1000000000EEEEC1B8ue170006IxEERKT_PNS_9enable_ifIXaasr14is_convertibleIS8_xEE5valueooL_ZNS_17integral_constantIbLb0EE5valueEEntsr23treat_as_floating_pointIS6_EE5valueEvE4typeE, symObjAddr: 0x19EE4, symBinAddr: 0x10001A828, symSize: 0x3C }
  - { offsetInCU: 0x5282B, offset: 0x5282B, size: 0x8, addend: 0x0, symName: __ZNSt3__16chrono8durationIxNS_5ratioILl1ELl1000000000EEEEC2B8ue170006IxNS2_ILl1ELl1000EEEEERKNS1_IT_T0_EEPNS_9enable_ifIXaasr13__no_overflowIS8_S3_EE5valueooL_ZNS_17integral_constantIbLb0EE5valueEEaaeqsr13__no_overflowIS8_S3_E4typeE3denLi1Entsr23treat_as_floating_pointIS7_EE5valueEvE4typeE, symObjAddr: 0x19F20, symBinAddr: 0x10001A864, symSize: 0x50 }
  - { offsetInCU: 0x52882, offset: 0x52882, size: 0x8, addend: 0x0, symName: __ZNKSt3__16chrono8durationIxNS_5ratioILl1ELl1000EEEE5countB8ue170006Ev, symObjAddr: 0x19FEC, symBinAddr: 0x10001A930, symSize: 0x18 }
  - { offsetInCU: 0x528A8, offset: 0x528A8, size: 0x8, addend: 0x0, symName: __ZNSt3__16chrono8durationIxNS_5ratioILl1ELl1000000000EEEEC2B8ue170006IxEERKT_PNS_9enable_ifIXaasr14is_convertibleIS8_xEE5valueooL_ZNS_17integral_constantIbLb0EE5valueEEntsr23treat_as_floating_pointIS6_EE5valueEvE4typeE, symObjAddr: 0x1A004, symBinAddr: 0x10001A948, symSize: 0x28 }
  - { offsetInCU: 0x528F5, offset: 0x528F5, size: 0x8, addend: 0x0, symName: __ZNSt3__16chrono10time_pointINS0_12steady_clockENS0_8durationIxNS_5ratioILl1ELl1000000000EEEEEEC2B8ue170006ERKS6_, symObjAddr: 0x1A02C, symBinAddr: 0x10001A970, symSize: 0x24 }
  - { offsetInCU: 0x5292D, offset: 0x5292D, size: 0x8, addend: 0x0, symName: __ZNSt3__15dequeIN4sdsl14memory_monitor8mm_eventENS_9allocatorIS3_EEE4backEv, symObjAddr: 0x1A050, symBinAddr: 0x10001A994, symSize: 0x70 }
  - { offsetInCU: 0x52964, offset: 0x52964, size: 0x8, addend: 0x0, symName: __ZNSt3__16vectorIN4sdsl14memory_monitor8mm_allocENS_9allocatorIS3_EEE22__construct_one_at_endB8ue170006IJRNS_6chrono10time_pointINS8_12steady_clockENS8_8durationIxNS_5ratioILl1ELl1000000000EEEEEEERxEEEvDpOT_, symObjAddr: 0x1A0C0, symBinAddr: 0x10001AA04, symSize: 0x98 }
  - { offsetInCU: 0x529C7, offset: 0x529C7, size: 0x8, addend: 0x0, symName: __ZNSt3__16vectorIN4sdsl14memory_monitor8mm_allocENS_9allocatorIS3_EEE24__emplace_back_slow_pathIJRNS_6chrono10time_pointINS8_12steady_clockENS8_8durationIxNS_5ratioILl1ELl1000000000EEEEEEERxEEEvDpOT_, symObjAddr: 0x1A158, symBinAddr: 0x10001AA9C, symSize: 0xE0 }
  - { offsetInCU: 0x52A56, offset: 0x52A56, size: 0x8, addend: 0x0, symName: __ZNSt3__16vectorIN4sdsl14memory_monitor8mm_allocENS_9allocatorIS3_EEE21_ConstructTransactionC1B8ue170006ERS6_m, symObjAddr: 0x1A238, symBinAddr: 0x10001AB7C, symSize: 0x3C }
  - { offsetInCU: 0x52A9E, offset: 0x52A9E, size: 0x8, addend: 0x0, symName: __ZNSt3__116allocator_traitsINS_9allocatorIN4sdsl14memory_monitor8mm_allocEEEE9constructB8ue170006IS4_JRNS_6chrono10time_pointINS8_12steady_clockENS8_8durationIxNS_5ratioILl1ELl1000000000EEEEEEERxEvEEvRS5_PT_DpOT0_, symObjAddr: 0x1A274, symBinAddr: 0x10001ABB8, symSize: 0x3C }
  - { offsetInCU: 0x52B09, offset: 0x52B09, size: 0x8, addend: 0x0, symName: __ZNSt3__16vectorIN4sdsl14memory_monitor8mm_allocENS_9allocatorIS3_EEE21_ConstructTransactionD1B8ue170006Ev, symObjAddr: 0x1A2B0, symBinAddr: 0x10001ABF4, symSize: 0x2C }
  - { offsetInCU: 0x52B33, offset: 0x52B33, size: 0x8, addend: 0x0, symName: __ZNSt3__16vectorIN4sdsl14memory_monitor8mm_allocENS_9allocatorIS3_EEE21_ConstructTransactionC2B8ue170006ERS6_m, symObjAddr: 0x1A2DC, symBinAddr: 0x10001AC20, symSize: 0x44 }
  - { offsetInCU: 0x52B7B, offset: 0x52B7B, size: 0x8, addend: 0x0, symName: __ZNSt3__19allocatorIN4sdsl14memory_monitor8mm_allocEE9constructB8ue170006IS3_JRNS_6chrono10time_pointINS6_12steady_clockENS6_8durationIxNS_5ratioILl1ELl1000000000EEEEEEERxEEEvPT_DpOT0_, symObjAddr: 0x1A320, symBinAddr: 0x10001AC64, symSize: 0x48 }
  - { offsetInCU: 0x52BE4, offset: 0x52BE4, size: 0x8, addend: 0x0, symName: __ZN4sdsl14memory_monitor8mm_allocC1ENSt3__16chrono10time_pointINS3_12steady_clockENS3_8durationIxNS2_5ratioILl1ELl1000000000EEEEEEEx, symObjAddr: 0x1A368, symBinAddr: 0x10001ACAC, symSize: 0x3C }
  - { offsetInCU: 0x52C2A, offset: 0x52C2A, size: 0x8, addend: 0x0, symName: __ZN4sdsl14memory_monitor8mm_allocC2ENSt3__16chrono10time_pointINS3_12steady_clockENS3_8durationIxNS2_5ratioILl1ELl1000000000EEEEEEEx, symObjAddr: 0x1A3A4, symBinAddr: 0x10001ACE8, symSize: 0x2C }
  - { offsetInCU: 0x52C70, offset: 0x52C70, size: 0x8, addend: 0x0, symName: __ZNSt3__16vectorIN4sdsl14memory_monitor8mm_allocENS_9allocatorIS3_EEE21_ConstructTransactionD2B8ue170006Ev, symObjAddr: 0x1A3D0, symBinAddr: 0x10001AD14, symSize: 0x20 }
  - { offsetInCU: 0x52C9A, offset: 0x52C9A, size: 0x8, addend: 0x0, symName: __ZNKSt3__16vectorIN4sdsl14memory_monitor8mm_allocENS_9allocatorIS3_EEE11__recommendB8ue170006Em, symObjAddr: 0x1A3F0, symBinAddr: 0x10001AD34, symSize: 0xB4 }
  - { offsetInCU: 0x52CEF, offset: 0x52CEF, size: 0x8, addend: 0x0, symName: __ZNSt3__114__split_bufferIN4sdsl14memory_monitor8mm_allocERNS_9allocatorIS3_EEEC1EmmS6_, symObjAddr: 0x1A4A4, symBinAddr: 0x10001ADE8, symSize: 0x44 }
  - { offsetInCU: 0x52D45, offset: 0x52D45, size: 0x8, addend: 0x0, symName: __ZNSt3__114__split_bufferIN4sdsl14memory_monitor8mm_allocERNS_9allocatorIS3_EEED1Ev, symObjAddr: 0x1A5F8, symBinAddr: 0x10001AF3C, symSize: 0x2C }
  - { offsetInCU: 0x52D71, offset: 0x52D71, size: 0x8, addend: 0x0, symName: __ZNKSt3__16vectorIN4sdsl14memory_monitor8mm_allocENS_9allocatorIS3_EEE8max_sizeEv, symObjAddr: 0x1A624, symBinAddr: 0x10001AF68, symSize: 0x60 }
  - { offsetInCU: 0x52D99, offset: 0x52D99, size: 0x8, addend: 0x0, symName: __ZNKSt3__16vectorIN4sdsl14memory_monitor8mm_allocENS_9allocatorIS3_EEE20__throw_length_errorB8ue170006Ev, symObjAddr: 0x1A684, symBinAddr: 0x10001AFC8, symSize: 0x1C }
  - { offsetInCU: 0x52DCA, offset: 0x52DCA, size: 0x8, addend: 0x0, symName: __ZNSt3__116allocator_traitsINS_9allocatorIN4sdsl14memory_monitor8mm_allocEEEE8max_sizeB8ue170006IS5_vEEmRKS5_, symObjAddr: 0x1A6A0, symBinAddr: 0x10001AFE4, symSize: 0x24 }
  - { offsetInCU: 0x52DF8, offset: 0x52DF8, size: 0x8, addend: 0x0, symName: __ZNKSt3__16vectorIN4sdsl14memory_monitor8mm_allocENS_9allocatorIS3_EEE7__allocB8ue170006Ev, symObjAddr: 0x1A6C4, symBinAddr: 0x10001B008, symSize: 0x28 }
  - { offsetInCU: 0x52E1E, offset: 0x52E1E, size: 0x8, addend: 0x0, symName: __ZNKSt3__19allocatorIN4sdsl14memory_monitor8mm_allocEE8max_sizeB8ue170006Ev, symObjAddr: 0x1A6EC, symBinAddr: 0x10001B030, symSize: 0x14 }
  - { offsetInCU: 0x52E44, offset: 0x52E44, size: 0x8, addend: 0x0, symName: __ZNKSt3__117__compressed_pairIPN4sdsl14memory_monitor8mm_allocENS_9allocatorIS3_EEE6secondB8ue170006Ev, symObjAddr: 0x1A700, symBinAddr: 0x10001B044, symSize: 0x24 }
  - { offsetInCU: 0x52E6A, offset: 0x52E6A, size: 0x8, addend: 0x0, symName: __ZNKSt3__122__compressed_pair_elemINS_9allocatorIN4sdsl14memory_monitor8mm_allocEEELi1ELb1EE5__getB8ue170006Ev, symObjAddr: 0x1A724, symBinAddr: 0x10001B068, symSize: 0x14 }
  - { offsetInCU: 0x52E90, offset: 0x52E90, size: 0x8, addend: 0x0, symName: __ZNSt3__114__split_bufferIN4sdsl14memory_monitor8mm_allocERNS_9allocatorIS3_EEEC2EmmS6_, symObjAddr: 0x1A738, symBinAddr: 0x10001B07C, symSize: 0xD4 }
  - { offsetInCU: 0x52F03, offset: 0x52F03, size: 0x8, addend: 0x0, symName: __ZNSt3__117__compressed_pairIPN4sdsl14memory_monitor8mm_allocERNS_9allocatorIS3_EEEC1B8ue170006IDnS7_EEOT_OT0_, symObjAddr: 0x1A80C, symBinAddr: 0x10001B150, symSize: 0x3C }
  - { offsetInCU: 0x52F5B, offset: 0x52F5B, size: 0x8, addend: 0x0, symName: __ZNSt3__114__split_bufferIN4sdsl14memory_monitor8mm_allocERNS_9allocatorIS3_EEE7__allocB8ue170006Ev, symObjAddr: 0x1A888, symBinAddr: 0x10001B1CC, symSize: 0x28 }
  - { offsetInCU: 0x52F81, offset: 0x52F81, size: 0x8, addend: 0x0, symName: __ZNSt3__114__split_bufferIN4sdsl14memory_monitor8mm_allocERNS_9allocatorIS3_EEE9__end_capB8ue170006Ev, symObjAddr: 0x1A8B0, symBinAddr: 0x10001B1F4, symSize: 0x28 }
  - { offsetInCU: 0x52FA7, offset: 0x52FA7, size: 0x8, addend: 0x0, symName: __ZNSt3__117__compressed_pairIPN4sdsl14memory_monitor8mm_allocERNS_9allocatorIS3_EEEC2B8ue170006IDnS7_EEOT_OT0_, symObjAddr: 0x1A8D8, symBinAddr: 0x10001B21C, symSize: 0x48 }
  - { offsetInCU: 0x52FFF, offset: 0x52FFF, size: 0x8, addend: 0x0, symName: __ZNSt3__122__compressed_pair_elemIRNS_9allocatorIN4sdsl14memory_monitor8mm_allocEEELi1ELb0EEC2B8ue170006IS6_vEEOT_, symObjAddr: 0x1A920, symBinAddr: 0x10001B264, symSize: 0x20 }
  - { offsetInCU: 0x53041, offset: 0x53041, size: 0x8, addend: 0x0, symName: __ZNSt3__19allocatorIN4sdsl14memory_monitor8mm_allocEE8allocateB8ue170006Em, symObjAddr: 0x1A940, symBinAddr: 0x10001B284, symSize: 0x58 }
  - { offsetInCU: 0x53075, offset: 0x53075, size: 0x8, addend: 0x0, symName: __ZNSt3__117__compressed_pairIPN4sdsl14memory_monitor8mm_allocERNS_9allocatorIS3_EEE6secondB8ue170006Ev, symObjAddr: 0x1A998, symBinAddr: 0x10001B2DC, symSize: 0x28 }
  - { offsetInCU: 0x5309B, offset: 0x5309B, size: 0x8, addend: 0x0, symName: __ZNSt3__122__compressed_pair_elemIRNS_9allocatorIN4sdsl14memory_monitor8mm_allocEEELi1ELb0EE5__getB8ue170006Ev, symObjAddr: 0x1A9C0, symBinAddr: 0x10001B304, symSize: 0x18 }
  - { offsetInCU: 0x530C1, offset: 0x530C1, size: 0x8, addend: 0x0, symName: __ZNSt3__117__compressed_pairIPN4sdsl14memory_monitor8mm_allocERNS_9allocatorIS3_EEE5firstB8ue170006Ev, symObjAddr: 0x1A9D8, symBinAddr: 0x10001B31C, symSize: 0x24 }
  - { offsetInCU: 0x530E7, offset: 0x530E7, size: 0x8, addend: 0x0, symName: __ZNSt3__116reverse_iteratorIPN4sdsl14memory_monitor8mm_allocEEC1B8ue170006ES4_, symObjAddr: 0x1AA74, symBinAddr: 0x10001B3B8, symSize: 0x34 }
  - { offsetInCU: 0x5311F, offset: 0x5311F, size: 0x8, addend: 0x0, symName: __ZNKSt3__116reverse_iteratorIPN4sdsl14memory_monitor8mm_allocEE4baseB8ue170006Ev, symObjAddr: 0x1AAA8, symBinAddr: 0x10001B3EC, symSize: 0x18 }
  - { offsetInCU: 0x53145, offset: 0x53145, size: 0x8, addend: 0x0, symName: __ZNKSt3__16vectorIN4sdsl14memory_monitor8mm_allocENS_9allocatorIS3_EEE14__annotate_newB8ue170006Em, symObjAddr: 0x1AAFC, symBinAddr: 0x10001B440, symSize: 0xAC }
  - { offsetInCU: 0x53196, offset: 0x53196, size: 0x8, addend: 0x0, symName: __ZNKSt3__111__move_loopINS_17_ClassicAlgPolicyEEclB8ue170006INS_16reverse_iteratorIPN4sdsl14memory_monitor8mm_allocEEES9_S9_EENS_4pairIT_T1_EESB_T0_SC_, symObjAddr: 0x1AE98, symBinAddr: 0x10001B7DC, symSize: 0xA0 }
  - { offsetInCU: 0x53207, offset: 0x53207, size: 0x8, addend: 0x0, symName: __ZNSt3__18_IterOpsINS_17_ClassicAlgPolicyEE11__iter_moveB8ue170006IRNS_16reverse_iteratorIPN4sdsl14memory_monitor8mm_allocEEEEENS_9enable_ifIXsr12is_referenceIDTdeclsr3stdE7declvalIRT_EEEEE5valueEDTclsr3stdE4movedeclsr3stdE7declvalISD_EEEEE4typeEOSC_, symObjAddr: 0x1B0CC, symBinAddr: 0x10001BA10, symSize: 0x28 }
  - { offsetInCU: 0x53233, offset: 0x53233, size: 0x8, addend: 0x0, symName: __ZNKSt3__116reverse_iteratorIPN4sdsl14memory_monitor8mm_allocEEdeB8ue170006Ev, symObjAddr: 0x1B0F4, symBinAddr: 0x10001BA38, symSize: 0x28 }
  - { offsetInCU: 0x53267, offset: 0x53267, size: 0x8, addend: 0x0, symName: __ZNSt3__116reverse_iteratorIPN4sdsl14memory_monitor8mm_allocEEppB8ue170006Ev, symObjAddr: 0x1B11C, symBinAddr: 0x10001BA60, symSize: 0x20 }
  - { offsetInCU: 0x5328D, offset: 0x5328D, size: 0x8, addend: 0x0, symName: __ZNSt3__18_IterOpsINS_17_ClassicAlgPolicyEE25__validate_iter_referenceB8ue170006IRNS_16reverse_iteratorIPN4sdsl14memory_monitor8mm_allocEEEEEvv, symObjAddr: 0x1B13C, symBinAddr: 0x10001BA80, symSize: 0x4 }
  - { offsetInCU: 0x532AB, offset: 0x532AB, size: 0x8, addend: 0x0, symName: __ZNSt3__118__unwrap_iter_implINS_16reverse_iteratorIPN4sdsl14memory_monitor8mm_allocEEELb0EE8__unwrapB8ue170006ES6_, symObjAddr: 0x1B140, symBinAddr: 0x10001BA84, symSize: 0x24 }
  - { offsetInCU: 0x532D4, offset: 0x532D4, size: 0x8, addend: 0x0, symName: __ZNSt3__14pairINS_16reverse_iteratorIPN4sdsl14memory_monitor8mm_allocEEES6_EC1B8ue170006IS6_S6_LPv0EEEOT_OT0_, symObjAddr: 0x1B164, symBinAddr: 0x10001BAA8, symSize: 0x3C }
  - { offsetInCU: 0x53332, offset: 0x53332, size: 0x8, addend: 0x0, symName: __ZNSt3__14pairINS_16reverse_iteratorIPN4sdsl14memory_monitor8mm_allocEEES6_EC2B8ue170006IS6_S6_LPv0EEEOT_OT0_, symObjAddr: 0x1B1A0, symBinAddr: 0x10001BAE4, symSize: 0x34 }
  - { offsetInCU: 0x53390, offset: 0x53390, size: 0x8, addend: 0x0, symName: __ZNSt3__118__unwrap_iter_implINS_16reverse_iteratorIPN4sdsl14memory_monitor8mm_allocEEELb0EE8__rewrapB8ue170006ES6_S6_, symObjAddr: 0x1B1D4, symBinAddr: 0x10001BB18, symSize: 0x2C }
  - { offsetInCU: 0x533BE, offset: 0x533BE, size: 0x8, addend: 0x0, symName: __ZNSt3__116reverse_iteratorIPN4sdsl14memory_monitor8mm_allocEEC2B8ue170006ES4_, symObjAddr: 0x1B200, symBinAddr: 0x10001BB44, symSize: 0x28 }
  - { offsetInCU: 0x533F6, offset: 0x533F6, size: 0x8, addend: 0x0, symName: __ZNSt3__114__split_bufferIN4sdsl14memory_monitor8mm_allocERNS_9allocatorIS3_EEED2Ev, symObjAddr: 0x1B228, symBinAddr: 0x10001BB6C, symSize: 0x8C }
  - { offsetInCU: 0x53422, offset: 0x53422, size: 0x8, addend: 0x0, symName: __ZNSt3__114__split_bufferIN4sdsl14memory_monitor8mm_allocERNS_9allocatorIS3_EEE5clearB8ue170006Ev, symObjAddr: 0x1B2B4, symBinAddr: 0x10001BBF8, symSize: 0x28 }
  - { offsetInCU: 0x53448, offset: 0x53448, size: 0x8, addend: 0x0, symName: __ZNKSt3__114__split_bufferIN4sdsl14memory_monitor8mm_allocERNS_9allocatorIS3_EEE8capacityB8ue170006Ev, symObjAddr: 0x1B2DC, symBinAddr: 0x10001BC20, symSize: 0x40 }
  - { offsetInCU: 0x5346E, offset: 0x5346E, size: 0x8, addend: 0x0, symName: __ZNSt3__114__split_bufferIN4sdsl14memory_monitor8mm_allocERNS_9allocatorIS3_EEE17__destruct_at_endB8ue170006EPS3_, symObjAddr: 0x1B31C, symBinAddr: 0x10001BC60, symSize: 0x2C }
  - { offsetInCU: 0x534A2, offset: 0x534A2, size: 0x8, addend: 0x0, symName: __ZNSt3__114__split_bufferIN4sdsl14memory_monitor8mm_allocERNS_9allocatorIS3_EEE17__destruct_at_endB8ue170006EPS3_NS_17integral_constantIbLb0EEE, symObjAddr: 0x1B348, symBinAddr: 0x10001BC8C, symSize: 0x80 }
  - { offsetInCU: 0x534E3, offset: 0x534E3, size: 0x8, addend: 0x0, symName: __ZNKSt3__114__split_bufferIN4sdsl14memory_monitor8mm_allocERNS_9allocatorIS3_EEE9__end_capB8ue170006Ev, symObjAddr: 0x1B3C8, symBinAddr: 0x10001BD0C, symSize: 0x28 }
  - { offsetInCU: 0x53509, offset: 0x53509, size: 0x8, addend: 0x0, symName: __ZNKSt3__117__compressed_pairIPN4sdsl14memory_monitor8mm_allocERNS_9allocatorIS3_EEE5firstB8ue170006Ev, symObjAddr: 0x1B3F0, symBinAddr: 0x10001BD34, symSize: 0x24 }
  - { offsetInCU: 0x5352F, offset: 0x5352F, size: 0x8, addend: 0x0, symName: __ZNSt3__110lock_guardIN4sdsl4util9spin_lockEED2B8ue170006Ev, symObjAddr: 0x1B414, symBinAddr: 0x10001BD58, symSize: 0x38 }
  - { offsetInCU: 0x53559, offset: 0x53559, size: 0x8, addend: 0x0, symName: __ZN4sdsl4util9spin_lock6unlockEv, symObjAddr: 0x1B44C, symBinAddr: 0x10001BD90, symSize: 0x28 }
  - { offsetInCU: 0x5357F, offset: 0x5357F, size: 0x8, addend: 0x0, symName: __ZN4sdsl10int_vectorILh1EE4dataEv, symObjAddr: 0x1B474, symBinAddr: 0x10001BDB8, symSize: 0x18 }
  - { offsetInCU: 0x535A5, offset: 0x535A5, size: 0x8, addend: 0x0, symName: __ZNK4sdsl10int_vectorILh1EE5emptyEv, symObjAddr: 0x1B48C, symBinAddr: 0x10001BDD0, symSize: 0x28 }
  - { offsetInCU: 0x535CB, offset: 0x535CB, size: 0x8, addend: 0x0, symName: __ZNSt3__16vectorIyNS_9allocatorIyEEE11__make_iterB8ue170006EPy, symObjAddr: 0x1B5EC, symBinAddr: 0x10001BF30, symSize: 0x30 }
  - { offsetInCU: 0x53600, offset: 0x53600, size: 0x8, addend: 0x0, symName: __ZNSt3__111__wrap_iterIPyEC1B8ue170006ES1_, symObjAddr: 0x1B61C, symBinAddr: 0x10001BF60, symSize: 0x34 }
  - { offsetInCU: 0x53638, offset: 0x53638, size: 0x8, addend: 0x0, symName: __ZNSt3__111__wrap_iterIPyEC2B8ue170006ES1_, symObjAddr: 0x1B650, symBinAddr: 0x10001BF94, symSize: 0x20 }
  - { offsetInCU: 0x53670, offset: 0x53670, size: 0x8, addend: 0x0, symName: __ZNKSt3__111__wrap_iterIPyE4baseB8ue170006Ev, symObjAddr: 0x1B6B8, symBinAddr: 0x10001BFFC, symSize: 0x18 }
  - { offsetInCU: 0x53696, offset: 0x53696, size: 0x8, addend: 0x0, symName: __ZN4sdsl20int_vector_referenceINS_10int_vectorILh1EEEEC1EPyhh, symObjAddr: 0x1B6D0, symBinAddr: 0x10001C014, symSize: 0x44 }
  - { offsetInCU: 0x536EA, offset: 0x536EA, size: 0x8, addend: 0x0, symName: __ZN4sdsl20int_vector_referenceINS_10int_vectorILh1EEEEC2EPyhh, symObjAddr: 0x1B714, symBinAddr: 0x10001C058, symSize: 0x3C }
  - { offsetInCU: 0x5373E, offset: 0x5373E, size: 0x8, addend: 0x0, symName: __ZN10rank_bv_64C2ERN4sdsl10int_vectorILh1EEE, symObjAddr: 0x1B750, symBinAddr: 0x10001C094, symSize: 0x22C }
  - { offsetInCU: 0x537BC, offset: 0x537BC, size: 0x8, addend: 0x0, symName: __ZNK4sdsl10int_vectorILh1EE4sizeEv, symObjAddr: 0x1B97C, symBinAddr: 0x10001C2C0, symSize: 0x20 }
  - { offsetInCU: 0x537E2, offset: 0x537E2, size: 0x8, addend: 0x0, symName: __ZNK4sdsl20int_vector_referenceINS_10int_vectorILh1EEEEcvbEv, symObjAddr: 0x1B99C, symBinAddr: 0x10001C2E0, symSize: 0x2C }
  - { offsetInCU: 0x53808, offset: 0x53808, size: 0x8, addend: 0x0, symName: __ZN4sdsl10int_vectorILh1EED2Ev, symObjAddr: 0x1B9C8, symBinAddr: 0x10001C30C, symSize: 0x34 }
  - { offsetInCU: 0x53834, offset: 0x53834, size: 0x8, addend: 0x0, symName: __ZN4sdsl14memory_manager5clearINS_10int_vectorILh1EEEEEvRT_, symObjAddr: 0x1B9FC, symBinAddr: 0x10001C340, symSize: 0x70 }
  - { offsetInCU: 0x53870, offset: 0x53870, size: 0x8, addend: 0x0, symName: __ZN4sdsl14memory_manager8free_memEPy, symObjAddr: 0x1BA6C, symBinAddr: 0x10001C3B0, symSize: 0x64 }
  - { offsetInCU: 0x538A3, offset: 0x538A3, size: 0x8, addend: 0x0, symName: __ZNSt3__16vectorIyNS_9allocatorIyEEEC2ERKS3_, symObjAddr: 0x1BAD0, symBinAddr: 0x10001C414, symSize: 0x94 }
  - { offsetInCU: 0x538DE, offset: 0x538DE, size: 0x8, addend: 0x0, symName: __ZNSt3__116allocator_traitsINS_9allocatorIyEEE37select_on_container_copy_constructionB8ue170006IS2_vvEES2_RKS2_, symObjAddr: 0x1BB64, symBinAddr: 0x10001C4A8, symSize: 0x10 }
  - { offsetInCU: 0x53913, offset: 0x53913, size: 0x8, addend: 0x0, symName: __ZNSt3__117__compressed_pairIPyNS_9allocatorIyEEEC1B8ue170006IDnS3_EEOT_OT0_, symObjAddr: 0x1BB74, symBinAddr: 0x10001C4B8, symSize: 0x3C }
  - { offsetInCU: 0x5396B, offset: 0x5396B, size: 0x8, addend: 0x0, symName: __ZNSt3__16vectorIyNS_9allocatorIyEEE16__init_with_sizeB8ue170006IPyS5_EEvT_T0_m, symObjAddr: 0x1BBB0, symBinAddr: 0x10001C4F4, symSize: 0xB8 }
  - { offsetInCU: 0x539DF, offset: 0x539DF, size: 0x8, addend: 0x0, symName: __ZNSt3__117__compressed_pairIPyNS_9allocatorIyEEEC2B8ue170006IDnS3_EEOT_OT0_, symObjAddr: 0x1BC68, symBinAddr: 0x10001C5AC, symSize: 0x44 }
  - { offsetInCU: 0x53A37, offset: 0x53A37, size: 0x8, addend: 0x0, symName: __ZNSt3__122__compressed_pair_elemINS_9allocatorIyEELi1ELb1EEC2B8ue170006IS2_vEEOT_, symObjAddr: 0x1BCAC, symBinAddr: 0x10001C5F0, symSize: 0x18 }
  - { offsetInCU: 0x53A79, offset: 0x53A79, size: 0x8, addend: 0x0, symName: __ZNSt3__16vectorIyNS_9allocatorIyEEE16__destroy_vectorC1B8ue170006ERS3_, symObjAddr: 0x1BD04, symBinAddr: 0x10001C648, symSize: 0x34 }
  - { offsetInCU: 0x53AB2, offset: 0x53AB2, size: 0x8, addend: 0x0, symName: __ZNSt3__128__exception_guard_exceptionsINS_6vectorIyNS_9allocatorIyEEE16__destroy_vectorEE10__completeB8ue170006Ev, symObjAddr: 0x1BD38, symBinAddr: 0x10001C67C, symSize: 0x1C }
  - { offsetInCU: 0x53AD8, offset: 0x53AD8, size: 0x8, addend: 0x0, symName: __ZNSt3__128__exception_guard_exceptionsINS_6vectorIyNS_9allocatorIyEEE16__destroy_vectorEED1B8ue170006Ev, symObjAddr: 0x1BD54, symBinAddr: 0x10001C698, symSize: 0x2C }
  - { offsetInCU: 0x53B02, offset: 0x53B02, size: 0x8, addend: 0x0, symName: __ZNSt3__128__exception_guard_exceptionsINS_6vectorIyNS_9allocatorIyEEE16__destroy_vectorEEC1B8ue170006ES5_, symObjAddr: 0x1BD80, symBinAddr: 0x10001C6C4, symSize: 0x34 }
  - { offsetInCU: 0x53B3A, offset: 0x53B3A, size: 0x8, addend: 0x0, symName: __ZNSt3__128__exception_guard_exceptionsINS_6vectorIyNS_9allocatorIyEEE16__destroy_vectorEEC2B8ue170006ES5_, symObjAddr: 0x1BDB4, symBinAddr: 0x10001C6F8, symSize: 0x24 }
  - { offsetInCU: 0x53B72, offset: 0x53B72, size: 0x8, addend: 0x0, symName: __ZNSt3__16vectorIyNS_9allocatorIyEEE16__destroy_vectorC2B8ue170006ERS3_, symObjAddr: 0x1BDD8, symBinAddr: 0x10001C71C, symSize: 0x20 }
  - { offsetInCU: 0x53BAB, offset: 0x53BAB, size: 0x8, addend: 0x0, symName: __ZNSt3__128__exception_guard_exceptionsINS_6vectorIyNS_9allocatorIyEEE16__destroy_vectorEED2B8ue170006Ev, symObjAddr: 0x1BDF8, symBinAddr: 0x10001C73C, symSize: 0x50 }
  - { offsetInCU: 0x53BD5, offset: 0x53BD5, size: 0x8, addend: 0x0, symName: __ZNSt3__16vectorIyNS_9allocatorIyEEE16__destroy_vectorclB8ue170006Ev, symObjAddr: 0x1BE48, symBinAddr: 0x10001C78C, symSize: 0x90 }
  - { offsetInCU: 0x53BFB, offset: 0x53BFB, size: 0x8, addend: 0x0, symName: __ZNSt3__16vectorIyNS_9allocatorIyEEE7__clearB8ue170006Ev, symObjAddr: 0x1BED8, symBinAddr: 0x10001C81C, symSize: 0x28 }
  - { offsetInCU: 0x53C21, offset: 0x53C21, size: 0x8, addend: 0x0, symName: __ZNSt3__114priority_queueI10qdagWeightNS_6vectorIS1_NS_9allocatorIS1_EEEENS_4lessIS1_EEED2Ev, symObjAddr: 0x1BF00, symBinAddr: 0x10001C844, symSize: 0x2C }
  - { offsetInCU: 0x53C4E, offset: 0x53C4E, size: 0x8, addend: 0x0, symName: __ZNSt3__16vectorI10qdagWeightNS_9allocatorIS1_EEED1B8ue170006Ev, symObjAddr: 0x1BF2C, symBinAddr: 0x10001C870, symSize: 0x2C }
  - { offsetInCU: 0x53C78, offset: 0x53C78, size: 0x8, addend: 0x0, symName: __ZNSt3__16vectorI10qdagWeightNS_9allocatorIS1_EEED2B8ue170006Ev, symObjAddr: 0x1BF58, symBinAddr: 0x10001C89C, symSize: 0x44 }
  - { offsetInCU: 0x53CA2, offset: 0x53CA2, size: 0x8, addend: 0x0, symName: __ZNSt3__16vectorI10qdagWeightNS_9allocatorIS1_EEE16__destroy_vectorC1B8ue170006ERS4_, symObjAddr: 0x1BF9C, symBinAddr: 0x10001C8E0, symSize: 0x34 }
  - { offsetInCU: 0x53CDB, offset: 0x53CDB, size: 0x8, addend: 0x0, symName: __ZNSt3__16vectorI10qdagWeightNS_9allocatorIS1_EEE16__destroy_vectorclB8ue170006Ev, symObjAddr: 0x1BFD0, symBinAddr: 0x10001C914, symSize: 0x90 }
  - { offsetInCU: 0x53D01, offset: 0x53D01, size: 0x8, addend: 0x0, symName: __ZNSt3__16vectorI10qdagWeightNS_9allocatorIS1_EEE16__destroy_vectorC2B8ue170006ERS4_, symObjAddr: 0x1C060, symBinAddr: 0x10001C9A4, symSize: 0x20 }
  - { offsetInCU: 0x53D3A, offset: 0x53D3A, size: 0x8, addend: 0x0, symName: __ZNSt3__16vectorI10qdagWeightNS_9allocatorIS1_EEE7__clearB8ue170006Ev, symObjAddr: 0x1C080, symBinAddr: 0x10001C9C4, symSize: 0x28 }
  - { offsetInCU: 0x53D60, offset: 0x53D60, size: 0x8, addend: 0x0, symName: __ZNKSt3__16vectorI10qdagWeightNS_9allocatorIS1_EEE17__annotate_deleteB8ue170006Ev, symObjAddr: 0x1C0A8, symBinAddr: 0x10001C9EC, symSize: 0xB8 }
  - { offsetInCU: 0x53D86, offset: 0x53D86, size: 0x8, addend: 0x0, symName: __ZNSt3__116allocator_traitsINS_9allocatorI10qdagWeightEEE10deallocateB8ue170006ERS3_PS2_m, symObjAddr: 0x1C160, symBinAddr: 0x10001CAA4, symSize: 0x34 }
  - { offsetInCU: 0x53DC8, offset: 0x53DC8, size: 0x8, addend: 0x0, symName: __ZNSt3__16vectorI10qdagWeightNS_9allocatorIS1_EEE7__allocB8ue170006Ev, symObjAddr: 0x1C194, symBinAddr: 0x10001CAD8, symSize: 0x28 }
  - { offsetInCU: 0x53DEE, offset: 0x53DEE, size: 0x8, addend: 0x0, symName: __ZNKSt3__16vectorI10qdagWeightNS_9allocatorIS1_EEE8capacityB8ue170006Ev, symObjAddr: 0x1C1BC, symBinAddr: 0x10001CB00, symSize: 0x40 }
  - { offsetInCU: 0x53E14, offset: 0x53E14, size: 0x8, addend: 0x0, symName: __ZNSt3__16vectorI10qdagWeightNS_9allocatorIS1_EEE22__base_destruct_at_endB8ue170006EPS1_, symObjAddr: 0x1C1FC, symBinAddr: 0x10001CB40, symSize: 0x8C }
  - { offsetInCU: 0x53E58, offset: 0x53E58, size: 0x8, addend: 0x0, symName: __ZNSt3__116allocator_traitsINS_9allocatorI10qdagWeightEEE7destroyB8ue170006IS2_vEEvRS3_PT_, symObjAddr: 0x1C288, symBinAddr: 0x10001CBCC, symSize: 0x2C }
  - { offsetInCU: 0x53E95, offset: 0x53E95, size: 0x8, addend: 0x0, symName: __ZNSt3__19allocatorI10qdagWeightE7destroyB8ue170006EPS1_, symObjAddr: 0x1C2C8, symBinAddr: 0x10001CC0C, symSize: 0x14 }
  - { offsetInCU: 0x53EC9, offset: 0x53EC9, size: 0x8, addend: 0x0, symName: __ZNKSt3__16vectorI10qdagWeightNS_9allocatorIS1_EEE31__annotate_contiguous_containerB8ue170006EPKvS6_S6_S6_, symObjAddr: 0x1C2DC, symBinAddr: 0x10001CC20, symSize: 0x20 }
  - { offsetInCU: 0x53F1F, offset: 0x53F1F, size: 0x8, addend: 0x0, symName: __ZNKSt3__16vectorI10qdagWeightNS_9allocatorIS1_EEE4dataB8ue170006Ev, symObjAddr: 0x1C2FC, symBinAddr: 0x10001CC40, symSize: 0x28 }
  - { offsetInCU: 0x53F45, offset: 0x53F45, size: 0x8, addend: 0x0, symName: __ZNKSt3__16vectorI10qdagWeightNS_9allocatorIS1_EEE4sizeB8ue170006Ev, symObjAddr: 0x1C324, symBinAddr: 0x10001CC68, symSize: 0x28 }
  - { offsetInCU: 0x53F6B, offset: 0x53F6B, size: 0x8, addend: 0x0, symName: __ZNSt3__19allocatorI10qdagWeightE10deallocateB8ue170006EPS1_m, symObjAddr: 0x1C34C, symBinAddr: 0x10001CC90, symSize: 0x40 }
  - { offsetInCU: 0x53FAD, offset: 0x53FAD, size: 0x8, addend: 0x0, symName: __ZNSt3__117__compressed_pairIP10qdagWeightNS_9allocatorIS1_EEE6secondB8ue170006Ev, symObjAddr: 0x1C38C, symBinAddr: 0x10001CCD0, symSize: 0x24 }
  - { offsetInCU: 0x53FD3, offset: 0x53FD3, size: 0x8, addend: 0x0, symName: __ZNSt3__122__compressed_pair_elemINS_9allocatorI10qdagWeightEELi1ELb1EE5__getB8ue170006Ev, symObjAddr: 0x1C3B0, symBinAddr: 0x10001CCF4, symSize: 0x14 }
  - { offsetInCU: 0x53FF9, offset: 0x53FF9, size: 0x8, addend: 0x0, symName: __ZNKSt3__16vectorI10qdagWeightNS_9allocatorIS1_EEE9__end_capB8ue170006Ev, symObjAddr: 0x1C3C4, symBinAddr: 0x10001CD08, symSize: 0x28 }
  - { offsetInCU: 0x5401F, offset: 0x5401F, size: 0x8, addend: 0x0, symName: __ZNKSt3__117__compressed_pairIP10qdagWeightNS_9allocatorIS1_EEE5firstB8ue170006Ev, symObjAddr: 0x1C3EC, symBinAddr: 0x10001CD30, symSize: 0x24 }
  - { offsetInCU: 0x54045, offset: 0x54045, size: 0x8, addend: 0x0, symName: __ZNKSt3__122__compressed_pair_elemIP10qdagWeightLi0ELb0EE5__getB8ue170006Ev, symObjAddr: 0x1C410, symBinAddr: 0x10001CD54, symSize: 0x14 }
  - { offsetInCU: 0x5406B, offset: 0x5406B, size: 0x8, addend: 0x0, symName: __ZNSt3__114priority_queueI13orderJoinQdagNS_6vectorIS1_NS_9allocatorIS1_EEEENS_4lessIS1_EEED2Ev, symObjAddr: 0x1C424, symBinAddr: 0x10001CD68, symSize: 0x2C }
  - { offsetInCU: 0x54098, offset: 0x54098, size: 0x8, addend: 0x0, symName: __ZNSt3__16vectorI13orderJoinQdagNS_9allocatorIS1_EEED1B8ue170006Ev, symObjAddr: 0x1C450, symBinAddr: 0x10001CD94, symSize: 0x2C }
  - { offsetInCU: 0x540C2, offset: 0x540C2, size: 0x8, addend: 0x0, symName: __ZNSt3__16vectorI13orderJoinQdagNS_9allocatorIS1_EEED2B8ue170006Ev, symObjAddr: 0x1C47C, symBinAddr: 0x10001CDC0, symSize: 0x44 }
  - { offsetInCU: 0x540EC, offset: 0x540EC, size: 0x8, addend: 0x0, symName: __ZNSt3__16vectorI13orderJoinQdagNS_9allocatorIS1_EEE16__destroy_vectorC1B8ue170006ERS4_, symObjAddr: 0x1C4C0, symBinAddr: 0x10001CE04, symSize: 0x34 }
  - { offsetInCU: 0x54125, offset: 0x54125, size: 0x8, addend: 0x0, symName: __ZNSt3__16vectorI13orderJoinQdagNS_9allocatorIS1_EEE16__destroy_vectorclB8ue170006Ev, symObjAddr: 0x1C4F4, symBinAddr: 0x10001CE38, symSize: 0x90 }
  - { offsetInCU: 0x5414B, offset: 0x5414B, size: 0x8, addend: 0x0, symName: __ZNSt3__16vectorI13orderJoinQdagNS_9allocatorIS1_EEE16__destroy_vectorC2B8ue170006ERS4_, symObjAddr: 0x1C584, symBinAddr: 0x10001CEC8, symSize: 0x20 }
  - { offsetInCU: 0x54184, offset: 0x54184, size: 0x8, addend: 0x0, symName: __ZNSt3__16vectorI13orderJoinQdagNS_9allocatorIS1_EEE7__clearB8ue170006Ev, symObjAddr: 0x1C5A4, symBinAddr: 0x10001CEE8, symSize: 0x28 }
  - { offsetInCU: 0x541AA, offset: 0x541AA, size: 0x8, addend: 0x0, symName: __ZNKSt3__16vectorI13orderJoinQdagNS_9allocatorIS1_EEE17__annotate_deleteB8ue170006Ev, symObjAddr: 0x1C5CC, symBinAddr: 0x10001CF10, symSize: 0xD4 }
  - { offsetInCU: 0x541D0, offset: 0x541D0, size: 0x8, addend: 0x0, symName: __ZNSt3__116allocator_traitsINS_9allocatorI13orderJoinQdagEEE10deallocateB8ue170006ERS3_PS2_m, symObjAddr: 0x1C6A0, symBinAddr: 0x10001CFE4, symSize: 0x34 }
  - { offsetInCU: 0x54212, offset: 0x54212, size: 0x8, addend: 0x0, symName: __ZNSt3__16vectorI13orderJoinQdagNS_9allocatorIS1_EEE7__allocB8ue170006Ev, symObjAddr: 0x1C6D4, symBinAddr: 0x10001D018, symSize: 0x28 }
  - { offsetInCU: 0x54238, offset: 0x54238, size: 0x8, addend: 0x0, symName: __ZNKSt3__16vectorI13orderJoinQdagNS_9allocatorIS1_EEE8capacityB8ue170006Ev, symObjAddr: 0x1C6FC, symBinAddr: 0x10001D040, symSize: 0x40 }
  - { offsetInCU: 0x5425E, offset: 0x5425E, size: 0x8, addend: 0x0, symName: __ZNSt3__16vectorI13orderJoinQdagNS_9allocatorIS1_EEE22__base_destruct_at_endB8ue170006EPS1_, symObjAddr: 0x1C73C, symBinAddr: 0x10001D080, symSize: 0x8C }
  - { offsetInCU: 0x542A2, offset: 0x542A2, size: 0x8, addend: 0x0, symName: __ZNSt3__116allocator_traitsINS_9allocatorI13orderJoinQdagEEE7destroyB8ue170006IS2_vEEvRS3_PT_, symObjAddr: 0x1C7C8, symBinAddr: 0x10001D10C, symSize: 0x2C }
  - { offsetInCU: 0x542DF, offset: 0x542DF, size: 0x8, addend: 0x0, symName: __ZNSt3__19allocatorI13orderJoinQdagE7destroyB8ue170006EPS1_, symObjAddr: 0x1C808, symBinAddr: 0x10001D14C, symSize: 0x14 }
  - { offsetInCU: 0x54313, offset: 0x54313, size: 0x8, addend: 0x0, symName: __ZNKSt3__16vectorI13orderJoinQdagNS_9allocatorIS1_EEE31__annotate_contiguous_containerB8ue170006EPKvS6_S6_S6_, symObjAddr: 0x1C81C, symBinAddr: 0x10001D160, symSize: 0x20 }
  - { offsetInCU: 0x54369, offset: 0x54369, size: 0x8, addend: 0x0, symName: __ZNKSt3__16vectorI13orderJoinQdagNS_9allocatorIS1_EEE4dataB8ue170006Ev, symObjAddr: 0x1C83C, symBinAddr: 0x10001D180, symSize: 0x28 }
  - { offsetInCU: 0x5438F, offset: 0x5438F, size: 0x8, addend: 0x0, symName: __ZNKSt3__16vectorI13orderJoinQdagNS_9allocatorIS1_EEE4sizeB8ue170006Ev, symObjAddr: 0x1C864, symBinAddr: 0x10001D1A8, symSize: 0x28 }
  - { offsetInCU: 0x543B5, offset: 0x543B5, size: 0x8, addend: 0x0, symName: __ZNSt3__19allocatorI13orderJoinQdagE10deallocateB8ue170006EPS1_m, symObjAddr: 0x1C88C, symBinAddr: 0x10001D1D0, symSize: 0x44 }
  - { offsetInCU: 0x543F7, offset: 0x543F7, size: 0x8, addend: 0x0, symName: __ZNSt3__117__compressed_pairIP13orderJoinQdagNS_9allocatorIS1_EEE6secondB8ue170006Ev, symObjAddr: 0x1C8D0, symBinAddr: 0x10001D214, symSize: 0x24 }
  - { offsetInCU: 0x5441D, offset: 0x5441D, size: 0x8, addend: 0x0, symName: __ZNSt3__122__compressed_pair_elemINS_9allocatorI13orderJoinQdagEELi1ELb1EE5__getB8ue170006Ev, symObjAddr: 0x1C8F4, symBinAddr: 0x10001D238, symSize: 0x14 }
  - { offsetInCU: 0x54443, offset: 0x54443, size: 0x8, addend: 0x0, symName: __ZNKSt3__16vectorI13orderJoinQdagNS_9allocatorIS1_EEE9__end_capB8ue170006Ev, symObjAddr: 0x1C908, symBinAddr: 0x10001D24C, symSize: 0x28 }
  - { offsetInCU: 0x54469, offset: 0x54469, size: 0x8, addend: 0x0, symName: __ZNKSt3__117__compressed_pairIP13orderJoinQdagNS_9allocatorIS1_EEE5firstB8ue170006Ev, symObjAddr: 0x1C930, symBinAddr: 0x10001D274, symSize: 0x24 }
  - { offsetInCU: 0x5448F, offset: 0x5448F, size: 0x8, addend: 0x0, symName: __ZNKSt3__122__compressed_pair_elemIP13orderJoinQdagLi0ELb0EE5__getB8ue170006Ev, symObjAddr: 0x1C954, symBinAddr: 0x10001D298, symSize: 0x14 }
  - { offsetInCU: 0x544B5, offset: 0x544B5, size: 0x8, addend: 0x0, symName: __ZN11se_quadtree16get_range_leavesEsyRyS0_, symObjAddr: 0x1C968, symBinAddr: 0x10001D2AC, symSize: 0x294 }
  - { offsetInCU: 0x54555, offset: 0x54555, size: 0x8, addend: 0x0, symName: __ZN11se_quadtree20get_range_leaves_auxEsyyRyS0_, symObjAddr: 0x1CBFC, symBinAddr: 0x10001D540, symSize: 0x168 }
  - { offsetInCU: 0x545C6, offset: 0x545C6, size: 0x8, addend: 0x0, symName: __ZNK17se_quadtree_dfuds5getKDEv, symObjAddr: 0x1CD64, symBinAddr: 0x10001D6A8, symSize: 0x18 }
  - { offsetInCU: 0x545EC, offset: 0x545EC, size: 0x8, addend: 0x0, symName: __ZN17se_quadtree_dfuds19get_node_last_levelEy, symObjAddr: 0x1CD7C, symBinAddr: 0x10001D6C0, symSize: 0xA4 }
  - { offsetInCU: 0x54630, offset: 0x54630, size: 0x8, addend: 0x0, symName: __ZNK3asu18bp_support_sada_v2ILj256ELj32EN4sdsl15rank_support_v5ILh1ELh1EEENS1_18select_support_mclILh1ELh1EEEE9rank_zeroEy, symObjAddr: 0x1CE20, symBinAddr: 0x10001D764, symSize: 0x90 }
  - { offsetInCU: 0x54674, offset: 0x54674, size: 0x8, addend: 0x0, symName: __ZNK17se_quadtree_dfuds9leaf_rankEy, symObjAddr: 0x1CEB0, symBinAddr: 0x10001D7F4, symSize: 0x30 }
  - { offsetInCU: 0x546A9, offset: 0x546A9, size: 0x8, addend: 0x0, symName: __ZNK4sdsl15rank_support_v5ILh1ELh1EEclEy, symObjAddr: 0x1CEE0, symBinAddr: 0x10001D824, symSize: 0x34 }
  - { offsetInCU: 0x546DD, offset: 0x546DD, size: 0x8, addend: 0x0, symName: __ZNK3asu18bp_support_sada_v2ILj256ELj32EN4sdsl15rank_support_v5ILh1ELh1EEENS1_18select_support_mclILh1ELh1EEEE14rank_zero_zeroEy, symObjAddr: 0x1CF14, symBinAddr: 0x10001D858, symSize: 0x158 }
  - { offsetInCU: 0x5475C, offset: 0x5475C, size: 0x8, addend: 0x0, symName: __ZNK4sdsl10int_vectorILh1EE4dataEv, symObjAddr: 0x1D06C, symBinAddr: 0x10001D9B0, symSize: 0x18 }
  - { offsetInCU: 0x54782, offset: 0x54782, size: 0x8, addend: 0x0, symName: __ZNK4sdsl10int_vectorILh1EE7get_intEyh, symObjAddr: 0x1D084, symBinAddr: 0x10001D9C8, symSize: 0x4C }
  - { offsetInCU: 0x547C8, offset: 0x547C8, size: 0x8, addend: 0x0, symName: __ZN4sdsl4bits8read_intEPKyhh, symObjAddr: 0x1D0D0, symBinAddr: 0x10001DA14, symSize: 0xB8 }
  - { offsetInCU: 0x5481B, offset: 0x5481B, size: 0x8, addend: 0x0, symName: __ZN17se_quadtree_dfuds8get_nodeEyPy, symObjAddr: 0x1D188, symBinAddr: 0x10001DACC, symSize: 0x45C }
  - { offsetInCU: 0x5487D, offset: 0x5487D, size: 0x8, addend: 0x0, symName: __ZNK17se_quadtree_dfuds11first_childEy, symObjAddr: 0x1D634, symBinAddr: 0x10001DF78, symSize: 0x30 }
  - { offsetInCU: 0x548B2, offset: 0x548B2, size: 0x8, addend: 0x0, symName: __ZNK17se_quadtree_dfuds12next_siblingEy, symObjAddr: 0x1D664, symBinAddr: 0x10001DFA8, symSize: 0x30 }
  - { offsetInCU: 0x548E7, offset: 0x548E7, size: 0x8, addend: 0x0, symName: __ZNK17se_quadtree_dfuds9succ_zeroEy, symObjAddr: 0x1D694, symBinAddr: 0x10001DFD8, symSize: 0x30 }
  - { offsetInCU: 0x5491C, offset: 0x5491C, size: 0x8, addend: 0x0, symName: __ZNK3asu18bp_support_sada_v2ILj256ELj32EN4sdsl15rank_support_v5ILh1ELh1EEENS1_18select_support_mclILh1ELh1EEEE9succ_zeroEy, symObjAddr: 0x1D6C4, symBinAddr: 0x10001E008, symSize: 0x1C8 }
  - { offsetInCU: 0x5499C, offset: 0x5499C, size: 0x8, addend: 0x0, symName: __ZNK3asu18bp_support_sada_v2ILj256ELj32EN4sdsl15rank_support_v5ILh1ELh1EEENS1_18select_support_mclILh1ELh1EEEE7is_openEy, symObjAddr: 0x1D88C, symBinAddr: 0x10001E1D0, symSize: 0x3C }
  - { offsetInCU: 0x549D1, offset: 0x549D1, size: 0x8, addend: 0x0, symName: __ZNK3asu18bp_support_sada_v2ILj256ELj32EN4sdsl15rank_support_v5ILh1ELh1EEENS1_18select_support_mclILh1ELh1EEEE9find_openEy, symObjAddr: 0x1D8C8, symBinAddr: 0x10001E20C, symSize: 0xB4 }
  - { offsetInCU: 0x54A15, offset: 0x54A15, size: 0x8, addend: 0x0, symName: __ZNK4sdsl10int_vectorILh1EEixERKy, symObjAddr: 0x1D97C, symBinAddr: 0x10001E2C0, symSize: 0x40 }
  - { offsetInCU: 0x54A4A, offset: 0x54A4A, size: 0x8, addend: 0x0, symName: __ZNK3asu18bp_support_sada_v2ILj256ELj32EN4sdsl15rank_support_v5ILh1ELh1EEENS1_18select_support_mclILh1ELh1EEEE10bwd_excessEyl, symObjAddr: 0x1D9BC, symBinAddr: 0x10001E300, symSize: 0x32C }
  - { offsetInCU: 0x54ABB, offset: 0x54ABB, size: 0x8, addend: 0x0, symName: __ZNK3asu18bp_support_sada_v2ILj256ELj32EN4sdsl15rank_support_v5ILh1ELh1EEENS1_18select_support_mclILh1ELh1EEEE4sizeEv, symObjAddr: 0x1DCE8, symBinAddr: 0x10001E62C, symSize: 0x18 }
  - { offsetInCU: 0x54AE1, offset: 0x54AE1, size: 0x8, addend: 0x0, symName: __ZNK3asu18bp_support_sada_v2ILj256ELj32EN4sdsl15rank_support_v5ILh1ELh1EEENS1_18select_support_mclILh1ELh1EEEE6excessEy, symObjAddr: 0x1DD00, symBinAddr: 0x10001E644, symSize: 0x44 }
  - { offsetInCU: 0x54B16, offset: 0x54B16, size: 0x8, addend: 0x0, symName: __ZNK3asu18bp_support_sada_v2ILj256ELj32EN4sdsl15rank_support_v5ILh1ELh1EEENS1_18select_support_mclILh1ELh1EEEE23bwd_excess_in_med_blockEyl, symObjAddr: 0x1DD44, symBinAddr: 0x10001E688, symSize: 0x234 }
  - { offsetInCU: 0x54BC3, offset: 0x54BC3, size: 0x8, addend: 0x0, symName: __ZN3asu18bp_support_sada_v2ILj256ELj32EN4sdsl15rank_support_v5ILh1ELh1EEENS1_18select_support_mclILh1ELh1EEEE13sml_block_idxEy, symObjAddr: 0x1DF78, symBinAddr: 0x10001E8BC, symSize: 0x1C }
  - { offsetInCU: 0x54BE6, offset: 0x54BE6, size: 0x8, addend: 0x0, symName: __ZN3asu18bp_support_sada_v2ILj256ELj32EN4sdsl15rank_support_v5ILh1ELh1EEENS1_18select_support_mclILh1ELh1EEEE13med_block_idxEy, symObjAddr: 0x1DF94, symBinAddr: 0x10001E8D8, symSize: 0x1C }
  - { offsetInCU: 0x54C09, offset: 0x54C09, size: 0x8, addend: 0x0, symName: __ZN3asu18bp_support_sada_v2ILj256ELj32EN4sdsl15rank_support_v5ILh1ELh1EEENS1_18select_support_mclILh1ELh1EEEE7is_rootEy, symObjAddr: 0x1DFB0, symBinAddr: 0x10001E8F4, symSize: 0x20 }
  - { offsetInCU: 0x54C2C, offset: 0x54C2C, size: 0x8, addend: 0x0, symName: __ZN3asu18bp_support_sada_v2ILj256ELj32EN4sdsl15rank_support_v5ILh1ELh1EEENS1_18select_support_mclILh1ELh1EEEE14is_right_childEy, symObjAddr: 0x1DFD0, symBinAddr: 0x10001E914, symSize: 0x30 }
  - { offsetInCU: 0x54C4F, offset: 0x54C4F, size: 0x8, addend: 0x0, symName: __ZN3asu18bp_support_sada_v2ILj256ELj32EN4sdsl15rank_support_v5ILh1ELh1EEENS1_18select_support_mclILh1ELh1EEEE12left_siblingEy, symObjAddr: 0x1E000, symBinAddr: 0x10001E944, symSize: 0x1C }
  - { offsetInCU: 0x54C72, offset: 0x54C72, size: 0x8, addend: 0x0, symName: __ZNK3asu18bp_support_sada_v2ILj256ELj32EN4sdsl15rank_support_v5ILh1ELh1EEENS1_18select_support_mclILh1ELh1EEEE9min_valueEy, symObjAddr: 0x1E01C, symBinAddr: 0x10001E960, symSize: 0x50 }
  - { offsetInCU: 0x54CA6, offset: 0x54CA6, size: 0x8, addend: 0x0, symName: __ZNK3asu18bp_support_sada_v2ILj256ELj32EN4sdsl15rank_support_v5ILh1ELh1EEENS1_18select_support_mclILh1ELh1EEEE9max_valueEy, symObjAddr: 0x1E06C, symBinAddr: 0x10001E9B0, symSize: 0x54 }
  - { offsetInCU: 0x54CDA, offset: 0x54CDA, size: 0x8, addend: 0x0, symName: __ZN3asu18bp_support_sada_v2ILj256ELj32EN4sdsl15rank_support_v5ILh1ELh1EEENS1_18select_support_mclILh1ELh1EEEE6parentEy, symObjAddr: 0x1E0C0, symBinAddr: 0x10001EA04, symSize: 0x20 }
  - { offsetInCU: 0x54CFD, offset: 0x54CFD, size: 0x8, addend: 0x0, symName: __ZNK3asu18bp_support_sada_v2ILj256ELj32EN4sdsl15rank_support_v5ILh1ELh1EEENS1_18select_support_mclILh1ELh1EEEE7is_leafEy, symObjAddr: 0x1E0E0, symBinAddr: 0x10001EA24, symSize: 0x2C }
  - { offsetInCU: 0x54D31, offset: 0x54D31, size: 0x8, addend: 0x0, symName: __ZN3asu18bp_support_sada_v2ILj256ELj32EN4sdsl15rank_support_v5ILh1ELh1EEENS1_18select_support_mclILh1ELh1EEEE11right_childEy, symObjAddr: 0x1E10C, symBinAddr: 0x10001EA50, symSize: 0x20 }
  - { offsetInCU: 0x54D54, offset: 0x54D54, size: 0x8, addend: 0x0, symName: __ZNK4sdsl10int_vectorILh0EEixERKy, symObjAddr: 0x1E12C, symBinAddr: 0x10001EA70, symSize: 0x3C }
  - { offsetInCU: 0x54D89, offset: 0x54D89, size: 0x8, addend: 0x0, symName: __ZNK4sdsl10int_vectorILh0EE7get_intEyh, symObjAddr: 0x1E168, symBinAddr: 0x10001EAAC, symSize: 0x4C }
  - { offsetInCU: 0x54DCF, offset: 0x54DCF, size: 0x8, addend: 0x0, symName: __ZNK3asu18bp_support_sada_v2ILj256ELj32EN4sdsl15rank_support_v5ILh1ELh1EEENS1_18select_support_mclILh1ELh1EEEE12next_siblingEy, symObjAddr: 0x1E1B4, symBinAddr: 0x10001EAF8, symSize: 0x38 }
  - { offsetInCU: 0x54E04, offset: 0x54E04, size: 0x8, addend: 0x0, symName: __ZNK3asu18bp_support_sada_v2ILj256ELj32EN4sdsl15rank_support_v5ILh1ELh1EEENS1_18select_support_mclILh1ELh1EEEE10fwd_excessEyl, symObjAddr: 0x1E1EC, symBinAddr: 0x10001EB30, symSize: 0x284 }
  - { offsetInCU: 0x54E70, offset: 0x54E70, size: 0x8, addend: 0x0, symName: __ZNK3asu18bp_support_sada_v2ILj256ELj32EN4sdsl15rank_support_v5ILh1ELh1EEENS1_18select_support_mclILh1ELh1EEEE23fwd_excess_in_med_blockEyl, symObjAddr: 0x1E470, symBinAddr: 0x10001EDB4, symSize: 0x1B0 }
  - { offsetInCU: 0x54F1B, offset: 0x54F1B, size: 0x8, addend: 0x0, symName: __ZN3asu18bp_support_sada_v2ILj256ELj32EN4sdsl15rank_support_v5ILh1ELh1EEENS1_18select_support_mclILh1ELh1EEEE13is_left_childEy, symObjAddr: 0x1E620, symBinAddr: 0x10001EF64, symSize: 0x30 }
  - { offsetInCU: 0x54F3E, offset: 0x54F3E, size: 0x8, addend: 0x0, symName: __ZN3asu18bp_support_sada_v2ILj256ELj32EN4sdsl15rank_support_v5ILh1ELh1EEENS1_18select_support_mclILh1ELh1EEEE13right_siblingEy, symObjAddr: 0x1E650, symBinAddr: 0x10001EF94, symSize: 0x1C }
  - { offsetInCU: 0x54F61, offset: 0x54F61, size: 0x8, addend: 0x0, symName: __ZN3asu18bp_support_sada_v2ILj256ELj32EN4sdsl15rank_support_v5ILh1ELh1EEENS1_18select_support_mclILh1ELh1EEEE10left_childEy, symObjAddr: 0x1E66C, symBinAddr: 0x10001EFB0, symSize: 0x20 }
  - { offsetInCU: 0x54F84, offset: 0x54F84, size: 0x8, addend: 0x0, symName: __ZNK17se_quadtree_dfuds8leaf_numEy, symObjAddr: 0x1E68C, symBinAddr: 0x10001EFD0, symSize: 0x60 }
  - { offsetInCU: 0x54FB9, offset: 0x54FB9, size: 0x8, addend: 0x0, symName: __ZNK17se_quadtree_dfuds4getKEv, symObjAddr: 0x1E6EC, symBinAddr: 0x10001F030, symSize: 0x18 }
  - { offsetInCU: 0x54FDF, offset: 0x54FDF, size: 0x8, addend: 0x0, symName: __ZN10qdag_dfudsC1Ev, symObjAddr: 0x1E704, symBinAddr: 0x10001F048, symSize: 0x2C }
  - { offsetInCU: 0x55009, offset: 0x55009, size: 0x8, addend: 0x0, symName: __ZN10qdag_dfudsC2Ev, symObjAddr: 0x1E730, symBinAddr: 0x10001F074, symSize: 0x3C }
  - { offsetInCU: 0x55033, offset: 0x55033, size: 0x8, addend: 0x0, symName: __ZNK17se_quadtree_dfuds9getHeightEv, symObjAddr: 0x1E76C, symBinAddr: 0x10001F0B0, symSize: 0x1C }
  - { offsetInCU: 0x55059, offset: 0x55059, size: 0x8, addend: 0x0, symName: __ZN10qdag_dfudsD2Ev, symObjAddr: 0x1E788, symBinAddr: 0x10001F0CC, symSize: 0x80 }
  - { offsetInCU: 0x55083, offset: 0x55083, size: 0x8, addend: 0x0, symName: __ZNSt3__114basic_ifstreamIcNS_11char_traitsIcEEED2Ev, symObjAddr: 0x1E808, symBinAddr: 0x10001F14C, symSize: 0x64 }
  - { offsetInCU: 0x550BD, offset: 0x550BD, size: 0x8, addend: 0x0, symName: __ZTv0_n24_NSt3__114basic_ifstreamIcNS_11char_traitsIcEEED1Ev, symObjAddr: 0x1E86C, symBinAddr: 0x10001F1B0, symSize: 0x28 }
  - { offsetInCU: 0x550D4, offset: 0x550D4, size: 0x8, addend: 0x0, symName: __ZN4qdagC2ERNSt3__16vectorINS1_IyNS0_9allocatorIyEEEENS2_IS4_EEEERS4_yhh, symObjAddr: 0x1E894, symBinAddr: 0x10001F1D8, symSize: 0x414 }
  - { offsetInCU: 0x55186, offset: 0x55186, size: 0x8, addend: 0x0, symName: __ZNSt3__16vectorIyNS_9allocatorIyEEEC1Em, symObjAddr: 0x1ECA8, symBinAddr: 0x10001F5EC, symSize: 0x34 }
  - { offsetInCU: 0x551C1, offset: 0x551C1, size: 0x8, addend: 0x0, symName: __ZNSt3__16vectorINS_4pairIyyEENS_9allocatorIS2_EEEC1Em, symObjAddr: 0x1ECDC, symBinAddr: 0x10001F620, symSize: 0x34 }
  - { offsetInCU: 0x551FC, offset: 0x551FC, size: 0x8, addend: 0x0, symName: __ZNSt3__16vectorINS_4pairIyyEENS_9allocatorIS2_EEEixB8ue170006Em, symObjAddr: 0x1ED48, symBinAddr: 0x10001F68C, symSize: 0x24 }
  - { offsetInCU: 0x55233, offset: 0x55233, size: 0x8, addend: 0x0, symName: __ZNSt3__14pairIyyEaSB8ue170006EOS1_, symObjAddr: 0x1ED6C, symBinAddr: 0x10001F6B0, symSize: 0x30 }
  - { offsetInCU: 0x55268, offset: 0x55268, size: 0x8, addend: 0x0, symName: __ZNSt3__16vectorINS_4pairIyyEENS_9allocatorIS2_EEE5beginB8ue170006Ev, symObjAddr: 0x1EDE4, symBinAddr: 0x10001F728, symSize: 0x30 }
  - { offsetInCU: 0x55290, offset: 0x55290, size: 0x8, addend: 0x0, symName: __ZNSt3__16vectorINS_4pairIyyEENS_9allocatorIS2_EEE3endB8ue170006Ev, symObjAddr: 0x1EE14, symBinAddr: 0x10001F758, symSize: 0x30 }
  - { offsetInCU: 0x552B8, offset: 0x552B8, size: 0x8, addend: 0x0, symName: __ZN11se_quadtreeC1ERNSt3__16vectorINS1_IyNS0_9allocatorIyEEEENS2_IS4_EEEEyhh, symObjAddr: 0x1EE80, symBinAddr: 0x10001F7C4, symSize: 0x4C }
  - { offsetInCU: 0x5531A, offset: 0x5531A, size: 0x8, addend: 0x0, symName: __ZNSt3__16vectorINS_4pairIyyEENS_9allocatorIS2_EEED1B8ue170006Ev, symObjAddr: 0x1EECC, symBinAddr: 0x10001F810, symSize: 0x2C }
  - { offsetInCU: 0x55344, offset: 0x55344, size: 0x8, addend: 0x0, symName: __ZNSt3__16vectorIyNS_9allocatorIyEEEC2Em, symObjAddr: 0x1EEF8, symBinAddr: 0x10001F83C, symSize: 0xD4 }
  - { offsetInCU: 0x55394, offset: 0x55394, size: 0x8, addend: 0x0, symName: __ZNSt3__117__compressed_pairIPyNS_9allocatorIyEEEC1B8ue170006IDnNS_18__default_init_tagEEEOT_OT0_, symObjAddr: 0x1EFCC, symBinAddr: 0x10001F910, symSize: 0x3C }
  - { offsetInCU: 0x553EC, offset: 0x553EC, size: 0x8, addend: 0x0, symName: __ZNSt3__16vectorIyNS_9allocatorIyEEE18__construct_at_endEm, symObjAddr: 0x1F008, symBinAddr: 0x10001F94C, symSize: 0xC8 }
  - { offsetInCU: 0x5545E, offset: 0x5545E, size: 0x8, addend: 0x0, symName: __ZNSt3__117__compressed_pairIPyNS_9allocatorIyEEEC2B8ue170006IDnNS_18__default_init_tagEEEOT_OT0_, symObjAddr: 0x1F0D0, symBinAddr: 0x10001FA14, symSize: 0x40 }
  - { offsetInCU: 0x554B6, offset: 0x554B6, size: 0x8, addend: 0x0, symName: __ZNSt3__122__compressed_pair_elemINS_9allocatorIyEELi1ELb1EEC2B8ue170006ENS_18__default_init_tagE, symObjAddr: 0x1F110, symBinAddr: 0x10001FA54, symSize: 0x2C }
  - { offsetInCU: 0x554EB, offset: 0x554EB, size: 0x8, addend: 0x0, symName: __ZNSt3__19allocatorIyEC2B8ue170006Ev, symObjAddr: 0x1F13C, symBinAddr: 0x10001FA80, symSize: 0x2C }
  - { offsetInCU: 0x55515, offset: 0x55515, size: 0x8, addend: 0x0, symName: __ZNSt3__116__non_trivial_ifILb1ENS_9allocatorIyEEEC2B8ue170006Ev, symObjAddr: 0x1F168, symBinAddr: 0x10001FAAC, symSize: 0x14 }
  - { offsetInCU: 0x5553F, offset: 0x5553F, size: 0x8, addend: 0x0, symName: __ZNSt3__116allocator_traitsINS_9allocatorIyEEE9constructB8ue170006IyJEvEEvRS2_PT_DpOT0_, symObjAddr: 0x1F17C, symBinAddr: 0x10001FAC0, symSize: 0x2C }
  - { offsetInCU: 0x55581, offset: 0x55581, size: 0x8, addend: 0x0, symName: __ZNSt3__19allocatorIyE9constructB8ue170006IyJEEEvPT_DpOT0_, symObjAddr: 0x1F1A8, symBinAddr: 0x10001FAEC, symSize: 0x1C }
  - { offsetInCU: 0x555C3, offset: 0x555C3, size: 0x8, addend: 0x0, symName: __ZNSt3__16vectorINS_4pairIyyEENS_9allocatorIS2_EEEC2Em, symObjAddr: 0x1F1C4, symBinAddr: 0x10001FB08, symSize: 0xD4 }
  - { offsetInCU: 0x55613, offset: 0x55613, size: 0x8, addend: 0x0, symName: __ZNSt3__117__compressed_pairIPNS_4pairIyyEENS_9allocatorIS2_EEEC1B8ue170006IDnNS_18__default_init_tagEEEOT_OT0_, symObjAddr: 0x1F298, symBinAddr: 0x10001FBDC, symSize: 0x3C }
  - { offsetInCU: 0x5566B, offset: 0x5566B, size: 0x8, addend: 0x0, symName: __ZNSt3__16vectorINS_4pairIyyEENS_9allocatorIS2_EEE16__destroy_vectorC1B8ue170006ERS5_, symObjAddr: 0x1F314, symBinAddr: 0x10001FC58, symSize: 0x34 }
  - { offsetInCU: 0x556A4, offset: 0x556A4, size: 0x8, addend: 0x0, symName: __ZNSt3__16vectorINS_4pairIyyEENS_9allocatorIS2_EEE11__vallocateB8ue170006Em, symObjAddr: 0x1F348, symBinAddr: 0x10001FC8C, symSize: 0xAC }
  - { offsetInCU: 0x556E8, offset: 0x556E8, size: 0x8, addend: 0x0, symName: __ZNSt3__16vectorINS_4pairIyyEENS_9allocatorIS2_EEE18__construct_at_endEm, symObjAddr: 0x1F3F4, symBinAddr: 0x10001FD38, symSize: 0xC8 }
  - { offsetInCU: 0x5575A, offset: 0x5575A, size: 0x8, addend: 0x0, symName: __ZNSt3__128__exception_guard_exceptionsINS_6vectorINS_4pairIyyEENS_9allocatorIS3_EEE16__destroy_vectorEE10__completeB8ue170006Ev, symObjAddr: 0x1F4BC, symBinAddr: 0x10001FE00, symSize: 0x1C }
  - { offsetInCU: 0x55780, offset: 0x55780, size: 0x8, addend: 0x0, symName: __ZNSt3__128__exception_guard_exceptionsINS_6vectorINS_4pairIyyEENS_9allocatorIS3_EEE16__destroy_vectorEED1B8ue170006Ev, symObjAddr: 0x1F4D8, symBinAddr: 0x10001FE1C, symSize: 0x2C }
  - { offsetInCU: 0x557AA, offset: 0x557AA, size: 0x8, addend: 0x0, symName: __ZNSt3__117__compressed_pairIPNS_4pairIyyEENS_9allocatorIS2_EEEC2B8ue170006IDnNS_18__default_init_tagEEEOT_OT0_, symObjAddr: 0x1F504, symBinAddr: 0x10001FE48, symSize: 0x40 }
  - { offsetInCU: 0x55802, offset: 0x55802, size: 0x8, addend: 0x0, symName: __ZNSt3__122__compressed_pair_elemIPNS_4pairIyyEELi0ELb0EEC2B8ue170006IDnvEEOT_, symObjAddr: 0x1F544, symBinAddr: 0x10001FE88, symSize: 0x1C }
  - { offsetInCU: 0x55844, offset: 0x55844, size: 0x8, addend: 0x0, symName: __ZNSt3__122__compressed_pair_elemINS_9allocatorINS_4pairIyyEEEELi1ELb1EEC2B8ue170006ENS_18__default_init_tagE, symObjAddr: 0x1F560, symBinAddr: 0x10001FEA4, symSize: 0x2C }
  - { offsetInCU: 0x55879, offset: 0x55879, size: 0x8, addend: 0x0, symName: __ZNSt3__19allocatorINS_4pairIyyEEEC2B8ue170006Ev, symObjAddr: 0x1F58C, symBinAddr: 0x10001FED0, symSize: 0x2C }
  - { offsetInCU: 0x558A3, offset: 0x558A3, size: 0x8, addend: 0x0, symName: __ZNSt3__116__non_trivial_ifILb1ENS_9allocatorINS_4pairIyyEEEEEC2B8ue170006Ev, symObjAddr: 0x1F5B8, symBinAddr: 0x10001FEFC, symSize: 0x14 }
  - { offsetInCU: 0x558CD, offset: 0x558CD, size: 0x8, addend: 0x0, symName: __ZNSt3__128__exception_guard_exceptionsINS_6vectorINS_4pairIyyEENS_9allocatorIS3_EEE16__destroy_vectorEEC1B8ue170006ES7_, symObjAddr: 0x1F5CC, symBinAddr: 0x10001FF10, symSize: 0x34 }
  - { offsetInCU: 0x55905, offset: 0x55905, size: 0x8, addend: 0x0, symName: __ZNSt3__128__exception_guard_exceptionsINS_6vectorINS_4pairIyyEENS_9allocatorIS3_EEE16__destroy_vectorEEC2B8ue170006ES7_, symObjAddr: 0x1F600, symBinAddr: 0x10001FF44, symSize: 0x24 }
  - { offsetInCU: 0x5593D, offset: 0x5593D, size: 0x8, addend: 0x0, symName: __ZNSt3__16vectorINS_4pairIyyEENS_9allocatorIS2_EEE16__destroy_vectorC2B8ue170006ERS5_, symObjAddr: 0x1F624, symBinAddr: 0x10001FF68, symSize: 0x20 }
  - { offsetInCU: 0x55976, offset: 0x55976, size: 0x8, addend: 0x0, symName: __ZNKSt3__16vectorINS_4pairIyyEENS_9allocatorIS2_EEE8max_sizeEv, symObjAddr: 0x1F644, symBinAddr: 0x10001FF88, symSize: 0x60 }
  - { offsetInCU: 0x5599E, offset: 0x5599E, size: 0x8, addend: 0x0, symName: __ZNKSt3__16vectorINS_4pairIyyEENS_9allocatorIS2_EEE20__throw_length_errorB8ue170006Ev, symObjAddr: 0x1F6A4, symBinAddr: 0x10001FFE8, symSize: 0x1C }
  - { offsetInCU: 0x559C4, offset: 0x559C4, size: 0x8, addend: 0x0, symName: __ZNSt3__16vectorINS_4pairIyyEENS_9allocatorIS2_EEE7__allocB8ue170006Ev, symObjAddr: 0x1F700, symBinAddr: 0x100020044, symSize: 0x28 }
  - { offsetInCU: 0x559EA, offset: 0x559EA, size: 0x8, addend: 0x0, symName: __ZNSt3__16vectorINS_4pairIyyEENS_9allocatorIS2_EEE9__end_capB8ue170006Ev, symObjAddr: 0x1F728, symBinAddr: 0x10002006C, symSize: 0x28 }
  - { offsetInCU: 0x55A10, offset: 0x55A10, size: 0x8, addend: 0x0, symName: __ZNKSt3__16vectorINS_4pairIyyEENS_9allocatorIS2_EEE14__annotate_newB8ue170006Em, symObjAddr: 0x1F750, symBinAddr: 0x100020094, symSize: 0xAC }
  - { offsetInCU: 0x55A50, offset: 0x55A50, size: 0x8, addend: 0x0, symName: __ZNSt3__116allocator_traitsINS_9allocatorINS_4pairIyyEEEEE8max_sizeB8ue170006IS4_vEEmRKS4_, symObjAddr: 0x1F7FC, symBinAddr: 0x100020140, symSize: 0x24 }
  - { offsetInCU: 0x55A7E, offset: 0x55A7E, size: 0x8, addend: 0x0, symName: __ZNKSt3__16vectorINS_4pairIyyEENS_9allocatorIS2_EEE7__allocB8ue170006Ev, symObjAddr: 0x1F820, symBinAddr: 0x100020164, symSize: 0x28 }
  - { offsetInCU: 0x55AA4, offset: 0x55AA4, size: 0x8, addend: 0x0, symName: __ZNKSt3__19allocatorINS_4pairIyyEEE8max_sizeB8ue170006Ev, symObjAddr: 0x1F848, symBinAddr: 0x10002018C, symSize: 0x14 }
  - { offsetInCU: 0x55ACA, offset: 0x55ACA, size: 0x8, addend: 0x0, symName: __ZNKSt3__117__compressed_pairIPNS_4pairIyyEENS_9allocatorIS2_EEE6secondB8ue170006Ev, symObjAddr: 0x1F85C, symBinAddr: 0x1000201A0, symSize: 0x24 }
  - { offsetInCU: 0x55AF0, offset: 0x55AF0, size: 0x8, addend: 0x0, symName: __ZNKSt3__122__compressed_pair_elemINS_9allocatorINS_4pairIyyEEEELi1ELb1EE5__getB8ue170006Ev, symObjAddr: 0x1F880, symBinAddr: 0x1000201C4, symSize: 0x14 }
  - { offsetInCU: 0x55B16, offset: 0x55B16, size: 0x8, addend: 0x0, symName: __ZNSt3__19allocatorINS_4pairIyyEEE8allocateB8ue170006Em, symObjAddr: 0x1F894, symBinAddr: 0x1000201D8, symSize: 0x58 }
  - { offsetInCU: 0x55B4A, offset: 0x55B4A, size: 0x8, addend: 0x0, symName: __ZNSt3__117__compressed_pairIPNS_4pairIyyEENS_9allocatorIS2_EEE6secondB8ue170006Ev, symObjAddr: 0x1F8EC, symBinAddr: 0x100020230, symSize: 0x24 }
  - { offsetInCU: 0x55B70, offset: 0x55B70, size: 0x8, addend: 0x0, symName: __ZNSt3__122__compressed_pair_elemINS_9allocatorINS_4pairIyyEEEELi1ELb1EE5__getB8ue170006Ev, symObjAddr: 0x1F910, symBinAddr: 0x100020254, symSize: 0x14 }
  - { offsetInCU: 0x55B96, offset: 0x55B96, size: 0x8, addend: 0x0, symName: __ZNSt3__117__compressed_pairIPNS_4pairIyyEENS_9allocatorIS2_EEE5firstB8ue170006Ev, symObjAddr: 0x1F924, symBinAddr: 0x100020268, symSize: 0x24 }
  - { offsetInCU: 0x55BBC, offset: 0x55BBC, size: 0x8, addend: 0x0, symName: __ZNSt3__122__compressed_pair_elemIPNS_4pairIyyEELi0ELb0EE5__getB8ue170006Ev, symObjAddr: 0x1F948, symBinAddr: 0x10002028C, symSize: 0x14 }
  - { offsetInCU: 0x55BE2, offset: 0x55BE2, size: 0x8, addend: 0x0, symName: __ZNKSt3__16vectorINS_4pairIyyEENS_9allocatorIS2_EEE31__annotate_contiguous_containerB8ue170006EPKvS7_S7_S7_, symObjAddr: 0x1F95C, symBinAddr: 0x1000202A0, symSize: 0x20 }
  - { offsetInCU: 0x55C38, offset: 0x55C38, size: 0x8, addend: 0x0, symName: __ZNKSt3__16vectorINS_4pairIyyEENS_9allocatorIS2_EEE4dataB8ue170006Ev, symObjAddr: 0x1F97C, symBinAddr: 0x1000202C0, symSize: 0x28 }
  - { offsetInCU: 0x55C5E, offset: 0x55C5E, size: 0x8, addend: 0x0, symName: __ZNKSt3__16vectorINS_4pairIyyEENS_9allocatorIS2_EEE8capacityB8ue170006Ev, symObjAddr: 0x1F9A4, symBinAddr: 0x1000202E8, symSize: 0x40 }
  - { offsetInCU: 0x55C84, offset: 0x55C84, size: 0x8, addend: 0x0, symName: __ZNKSt3__16vectorINS_4pairIyyEENS_9allocatorIS2_EEE9__end_capB8ue170006Ev, symObjAddr: 0x1F9F8, symBinAddr: 0x10002033C, symSize: 0x28 }
  - { offsetInCU: 0x55CAA, offset: 0x55CAA, size: 0x8, addend: 0x0, symName: __ZNKSt3__117__compressed_pairIPNS_4pairIyyEENS_9allocatorIS2_EEE5firstB8ue170006Ev, symObjAddr: 0x1FA20, symBinAddr: 0x100020364, symSize: 0x24 }
  - { offsetInCU: 0x55CD0, offset: 0x55CD0, size: 0x8, addend: 0x0, symName: __ZNKSt3__122__compressed_pair_elemIPNS_4pairIyyEELi0ELb0EE5__getB8ue170006Ev, symObjAddr: 0x1FA44, symBinAddr: 0x100020388, symSize: 0x14 }
  - { offsetInCU: 0x55D11, offset: 0x55D11, size: 0x8, addend: 0x0, symName: __ZNSt3__16vectorINS_4pairIyyEENS_9allocatorIS2_EEE21_ConstructTransactionC1B8ue170006ERS5_m, symObjAddr: 0x1FA58, symBinAddr: 0x10002039C, symSize: 0x3C }
  - { offsetInCU: 0x55D59, offset: 0x55D59, size: 0x8, addend: 0x0, symName: __ZNSt3__116allocator_traitsINS_9allocatorINS_4pairIyyEEEEE9constructB8ue170006IS3_JEvEEvRS4_PT_DpOT0_, symObjAddr: 0x1FA94, symBinAddr: 0x1000203D8, symSize: 0x2C }
  - { offsetInCU: 0x55D9B, offset: 0x55D9B, size: 0x8, addend: 0x0, symName: __ZNSt3__16vectorINS_4pairIyyEENS_9allocatorIS2_EEE21_ConstructTransactionD1B8ue170006Ev, symObjAddr: 0x1FAC0, symBinAddr: 0x100020404, symSize: 0x2C }
  - { offsetInCU: 0x55DC5, offset: 0x55DC5, size: 0x8, addend: 0x0, symName: __ZNSt3__16vectorINS_4pairIyyEENS_9allocatorIS2_EEE21_ConstructTransactionC2B8ue170006ERS5_m, symObjAddr: 0x1FAEC, symBinAddr: 0x100020430, symSize: 0x44 }
  - { offsetInCU: 0x55E0D, offset: 0x55E0D, size: 0x8, addend: 0x0, symName: __ZNSt3__19allocatorINS_4pairIyyEEE9constructB8ue170006IS2_JEEEvPT_DpOT0_, symObjAddr: 0x1FB30, symBinAddr: 0x100020474, symSize: 0x28 }
  - { offsetInCU: 0x55E4F, offset: 0x55E4F, size: 0x8, addend: 0x0, symName: __ZNSt3__14pairIyyEC1B8ue170006ILb1ELPv0EEEv, symObjAddr: 0x1FB58, symBinAddr: 0x10002049C, symSize: 0x2C }
  - { offsetInCU: 0x55E89, offset: 0x55E89, size: 0x8, addend: 0x0, symName: __ZNSt3__14pairIyyEC2B8ue170006ILb1ELPv0EEEv, symObjAddr: 0x1FB84, symBinAddr: 0x1000204C8, symSize: 0x1C }
  - { offsetInCU: 0x55EC3, offset: 0x55EC3, size: 0x8, addend: 0x0, symName: __ZNSt3__16vectorINS_4pairIyyEENS_9allocatorIS2_EEE21_ConstructTransactionD2B8ue170006Ev, symObjAddr: 0x1FBA0, symBinAddr: 0x1000204E4, symSize: 0x20 }
  - { offsetInCU: 0x55EED, offset: 0x55EED, size: 0x8, addend: 0x0, symName: __ZNSt3__128__exception_guard_exceptionsINS_6vectorINS_4pairIyyEENS_9allocatorIS3_EEE16__destroy_vectorEED2B8ue170006Ev, symObjAddr: 0x1FBC0, symBinAddr: 0x100020504, symSize: 0x50 }
  - { offsetInCU: 0x55F17, offset: 0x55F17, size: 0x8, addend: 0x0, symName: __ZNSt3__16vectorINS_4pairIyyEENS_9allocatorIS2_EEE16__destroy_vectorclB8ue170006Ev, symObjAddr: 0x1FC10, symBinAddr: 0x100020554, symSize: 0x90 }
  - { offsetInCU: 0x55F3D, offset: 0x55F3D, size: 0x8, addend: 0x0, symName: __ZNSt3__16vectorINS_4pairIyyEENS_9allocatorIS2_EEE7__clearB8ue170006Ev, symObjAddr: 0x1FCA0, symBinAddr: 0x1000205E4, symSize: 0x28 }
  - { offsetInCU: 0x55F63, offset: 0x55F63, size: 0x8, addend: 0x0, symName: __ZNKSt3__16vectorINS_4pairIyyEENS_9allocatorIS2_EEE17__annotate_deleteB8ue170006Ev, symObjAddr: 0x1FCC8, symBinAddr: 0x10002060C, symSize: 0xB8 }
  - { offsetInCU: 0x55F89, offset: 0x55F89, size: 0x8, addend: 0x0, symName: __ZNSt3__116allocator_traitsINS_9allocatorINS_4pairIyyEEEEE10deallocateB8ue170006ERS4_PS3_m, symObjAddr: 0x1FD80, symBinAddr: 0x1000206C4, symSize: 0x34 }
  - { offsetInCU: 0x55FCB, offset: 0x55FCB, size: 0x8, addend: 0x0, symName: __ZNSt3__16vectorINS_4pairIyyEENS_9allocatorIS2_EEE22__base_destruct_at_endB8ue170006EPS2_, symObjAddr: 0x1FDB4, symBinAddr: 0x1000206F8, symSize: 0x8C }
  - { offsetInCU: 0x5600F, offset: 0x5600F, size: 0x8, addend: 0x0, symName: __ZNSt3__116allocator_traitsINS_9allocatorINS_4pairIyyEEEEE7destroyB8ue170006IS3_vEEvRS4_PT_, symObjAddr: 0x1FE40, symBinAddr: 0x100020784, symSize: 0x2C }
  - { offsetInCU: 0x5604C, offset: 0x5604C, size: 0x8, addend: 0x0, symName: __ZNSt3__19allocatorINS_4pairIyyEEE7destroyB8ue170006EPS2_, symObjAddr: 0x1FE6C, symBinAddr: 0x1000207B0, symSize: 0x14 }
  - { offsetInCU: 0x56080, offset: 0x56080, size: 0x8, addend: 0x0, symName: __ZNKSt3__16vectorINS_4pairIyyEENS_9allocatorIS2_EEE4sizeB8ue170006Ev, symObjAddr: 0x1FE80, symBinAddr: 0x1000207C4, symSize: 0x28 }
  - { offsetInCU: 0x560A6, offset: 0x560A6, size: 0x8, addend: 0x0, symName: __ZNSt3__19allocatorINS_4pairIyyEEE10deallocateB8ue170006EPS2_m, symObjAddr: 0x1FEA8, symBinAddr: 0x1000207EC, symSize: 0x40 }
  - { offsetInCU: 0x560E8, offset: 0x560E8, size: 0x8, addend: 0x0, symName: __ZNSt3__14pairIyyEC1B8ue170006IRyS3_LPv0EEEOT_OT0_, symObjAddr: 0x1FEE8, symBinAddr: 0x10002082C, symSize: 0x3C }
  - { offsetInCU: 0x56146, offset: 0x56146, size: 0x8, addend: 0x0, symName: __ZNSt3__14pairIyyEC2B8ue170006IRyS3_LPv0EEEOT_OT0_, symObjAddr: 0x1FF24, symBinAddr: 0x100020868, symSize: 0x34 }
  - { offsetInCU: 0x561A4, offset: 0x561A4, size: 0x8, addend: 0x0, symName: __ZNSt3__18_IterOpsINS_17_ClassicAlgPolicyEE9iter_swapB8ue170006IRPNS_4pairIyyEES7_EEvOT_OT0_, symObjAddr: 0x20580, symBinAddr: 0x100020EC4, symSize: 0x34 }
  - { offsetInCU: 0x561ED, offset: 0x561ED, size: 0x8, addend: 0x0, symName: __ZNSt3__18_IterOpsINS_17_ClassicAlgPolicyEE9iter_swapB8ue170006IRPNS_4pairIyyEES6_EEvOT_OT0_, symObjAddr: 0x20AEC, symBinAddr: 0x100021430, symSize: 0x34 }
  - { offsetInCU: 0x56230, offset: 0x56230, size: 0x8, addend: 0x0, symName: __ZNSt3__14pairIyyE4swapB8ue170006ERS1_, symObjAddr: 0x21638, symBinAddr: 0x100021F7C, symSize: 0x44 }
  - { offsetInCU: 0x56265, offset: 0x56265, size: 0x8, addend: 0x0, symName: __ZNSt3__18_IterOpsINS_17_ClassicAlgPolicyEE11__iter_moveB8ue170006IRPNS_4pairIyyEEEENS_9enable_ifIXsr12is_referenceIDTdeclsr3stdE7declvalIRT_EEEEE5valueEDTclsr3stdE4movedeclsr3stdE7declvalISA_EEEEE4typeEOS9_, symObjAddr: 0x21874, symBinAddr: 0x1000221B8, symSize: 0x28 }
  - { offsetInCU: 0x56291, offset: 0x56291, size: 0x8, addend: 0x0, symName: __ZNSt3__18_IterOpsINS_17_ClassicAlgPolicyEE25__validate_iter_referenceB8ue170006IRPNS_4pairIyyEEEEvv, symObjAddr: 0x2189C, symBinAddr: 0x1000221E0, symSize: 0x4 }
  - { offsetInCU: 0x562AF, offset: 0x562AF, size: 0x8, addend: 0x0, symName: __ZNSt3__18_IterOpsINS_17_ClassicAlgPolicyEE4nextB8ue170006IPNS_4pairIyyEEEET_S7_S7_, symObjAddr: 0x218A0, symBinAddr: 0x1000221E4, symSize: 0x18 }
  - { offsetInCU: 0x562E6, offset: 0x562E6, size: 0x8, addend: 0x0, symName: __ZNSt3__18_IterOpsINS_17_ClassicAlgPolicyEE9iter_swapB8ue170006IPNS_4pairIyyEES6_EEvOT_OT0_, symObjAddr: 0x2281C, symBinAddr: 0x100023160, symSize: 0x34 }
  - { offsetInCU: 0x56345, offset: 0x56345, size: 0x8, addend: 0x0, symName: __ZNSt3__14pairIPNS0_IyyEEbEC1B8ue170006IRS2_RbLPv0EEEOT_OT0_, symObjAddr: 0x2286C, symBinAddr: 0x1000231B0, symSize: 0x3C }
  - { offsetInCU: 0x563A3, offset: 0x563A3, size: 0x8, addend: 0x0, symName: __ZNSt3__14pairIPNS0_IyyEEbEC2B8ue170006IRS2_RbLPv0EEEOT_OT0_, symObjAddr: 0x228A8, symBinAddr: 0x1000231EC, symSize: 0x38 }
  - { offsetInCU: 0x56401, offset: 0x56401, size: 0x8, addend: 0x0, symName: __ZNSt3__118__unwrap_iter_implINS_11__wrap_iterIPNS_4pairIyyEEEELb1EE8__unwrapB8ue170006ES5_, symObjAddr: 0x228E0, symBinAddr: 0x100023224, symSize: 0x28 }
  - { offsetInCU: 0x5642F, offset: 0x5642F, size: 0x8, addend: 0x0, symName: __ZNSt3__119__to_address_helperINS_11__wrap_iterIPNS_4pairIyyEEEEvE6__callB8ue170006ERKS5_, symObjAddr: 0x2292C, symBinAddr: 0x100023270, symSize: 0x30 }
  - { offsetInCU: 0x56452, offset: 0x56452, size: 0x8, addend: 0x0, symName: __ZNSt3__114pointer_traitsINS_11__wrap_iterIPNS_4pairIyyEEEEE10to_addressB8ue170006ES5_, symObjAddr: 0x2295C, symBinAddr: 0x1000232A0, symSize: 0x2C }
  - { offsetInCU: 0x56475, offset: 0x56475, size: 0x8, addend: 0x0, symName: __ZNKSt3__111__wrap_iterIPNS_4pairIyyEEE4baseB8ue170006Ev, symObjAddr: 0x22988, symBinAddr: 0x1000232CC, symSize: 0x18 }
  - { offsetInCU: 0x5649B, offset: 0x5649B, size: 0x8, addend: 0x0, symName: __ZNSt3__16vectorINS_4pairIyyEENS_9allocatorIS2_EEE11__make_iterB8ue170006EPS2_, symObjAddr: 0x229A0, symBinAddr: 0x1000232E4, symSize: 0x30 }
  - { offsetInCU: 0x564D0, offset: 0x564D0, size: 0x8, addend: 0x0, symName: __ZNSt3__111__wrap_iterIPNS_4pairIyyEEEC1B8ue170006ES3_, symObjAddr: 0x229D0, symBinAddr: 0x100023314, symSize: 0x34 }
  - { offsetInCU: 0x56508, offset: 0x56508, size: 0x8, addend: 0x0, symName: __ZNSt3__111__wrap_iterIPNS_4pairIyyEEEC2B8ue170006ES3_, symObjAddr: 0x22A04, symBinAddr: 0x100023348, symSize: 0x20 }
  - { offsetInCU: 0x56540, offset: 0x56540, size: 0x8, addend: 0x0, symName: __ZNSt3__118__unwrap_iter_implINS_11__wrap_iterIPyEELb1EE8__unwrapB8ue170006ES3_, symObjAddr: 0x22B98, symBinAddr: 0x1000234DC, symSize: 0x28 }
  - { offsetInCU: 0x5656E, offset: 0x5656E, size: 0x8, addend: 0x0, symName: __ZNSt3__119__to_address_helperINS_11__wrap_iterIPyEEvE6__callB8ue170006ERKS3_, symObjAddr: 0x22BE4, symBinAddr: 0x100023528, symSize: 0x30 }
  - { offsetInCU: 0x56591, offset: 0x56591, size: 0x8, addend: 0x0, symName: __ZNSt3__114pointer_traitsINS_11__wrap_iterIPyEEE10to_addressB8ue170006ES3_, symObjAddr: 0x22C14, symBinAddr: 0x100023558, symSize: 0x2C }
  - { offsetInCU: 0x565B4, offset: 0x565B4, size: 0x8, addend: 0x0, symName: __ZN11se_quadtreeC2ERNSt3__16vectorINS1_IyNS0_9allocatorIyEEEENS2_IS4_EEEEyhh, symObjAddr: 0x22C40, symBinAddr: 0x100023584, symSize: 0x8C }
  - { offsetInCU: 0x56616, offset: 0x56616, size: 0x8, addend: 0x0, symName: __ZN11se_quadtree16build_from_edgesERNSt3__16vectorINS1_IyNS0_9allocatorIyEEEENS2_IS4_EEEEyhh, symObjAddr: 0x22CCC, symBinAddr: 0x100023610, symSize: 0xBE4 }
  - { offsetInCU: 0x5685E, offset: 0x5685E, size: 0x8, addend: 0x0, symName: __ZNSt3__15queueINS_5tupleIJyyyPyEEENS_5dequeIS3_NS_9allocatorIS3_EEEEEC1B8ue170006Ev, symObjAddr: 0x238B0, symBinAddr: 0x1000241F4, symSize: 0x2C }
  - { offsetInCU: 0x56888, offset: 0x56888, size: 0x8, addend: 0x0, symName: __ZNSt3__16vectorIyNS_9allocatorIyEEEC1EmRKy, symObjAddr: 0x23918, symBinAddr: 0x10002425C, symSize: 0x3C }
  - { offsetInCU: 0x568D2, offset: 0x568D2, size: 0x8, addend: 0x0, symName: __ZNSt3__15queueINS_5tupleIJyyyPyEEENS_5dequeIS3_NS_9allocatorIS3_EEEEE4pushB8ue170006EOS3_, symObjAddr: 0x23954, symBinAddr: 0x100024298, symSize: 0x2C }
  - { offsetInCU: 0x5690D, offset: 0x5690D, size: 0x8, addend: 0x0, symName: __ZNSt3__15tupleIJyyyPyEEC1B8ue170006IJimRyRS1_ELi0EEEDpOT_, symObjAddr: 0x23980, symBinAddr: 0x1000242C4, symSize: 0x4C }
  - { offsetInCU: 0x56993, offset: 0x56993, size: 0x8, addend: 0x0, symName: __ZNKSt3__15queueINS_5tupleIJyyyPyEEENS_5dequeIS3_NS_9allocatorIS3_EEEEE5emptyB8ue170006Ev, symObjAddr: 0x239CC, symBinAddr: 0x100024310, symSize: 0x28 }
  - { offsetInCU: 0x569B9, offset: 0x569B9, size: 0x8, addend: 0x0, symName: __ZNSt3__15queueINS_5tupleIJyyyPyEEENS_5dequeIS3_NS_9allocatorIS3_EEEEE5frontB8ue170006Ev, symObjAddr: 0x239F4, symBinAddr: 0x100024338, symSize: 0x24 }
  - { offsetInCU: 0x56AA0, offset: 0x56AA0, size: 0x8, addend: 0x0, symName: __ZNSt3__15tupleIJRyS1_S1_RPyEEaSB8ue170006IJyyyS2_ELi0EEERS4_RKNS0_IJDpT_EEE, symObjAddr: 0x23A60, symBinAddr: 0x1000243A4, symSize: 0x3C }
  - { offsetInCU: 0x56AF5, offset: 0x56AF5, size: 0x8, addend: 0x0, symName: __ZNSt3__15queueINS_5tupleIJyyyPyEEENS_5dequeIS3_NS_9allocatorIS3_EEEEE3popB8ue170006Ev, symObjAddr: 0x23A9C, symBinAddr: 0x1000243E0, symSize: 0x24 }
  - { offsetInCU: 0x56B1B, offset: 0x56B1B, size: 0x8, addend: 0x0, symName: __ZN4sdsl10int_vectorILh1EEaSEOS1_, symObjAddr: 0x23AC0, symBinAddr: 0x100024404, symSize: 0x34 }
  - { offsetInCU: 0x56B52, offset: 0x56B52, size: 0x8, addend: 0x0, symName: __ZN11se_quadtree13get_chunk_idxERNSt3__16vectorIyNS0_9allocatorIyEEEEPyyh, symObjAddr: 0x23AF4, symBinAddr: 0x100024438, symSize: 0x110 }
  - { offsetInCU: 0x56BE8, offset: 0x56BE8, size: 0x8, addend: 0x0, symName: __ZNSt3__15tupleIJyyyPyEEC1B8ue170006IJRyS4_yRS1_ELi0EEEDpOT_, symObjAddr: 0x23C04, symBinAddr: 0x100024548, symSize: 0x4C }
  - { offsetInCU: 0x56C6E, offset: 0x56C6E, size: 0x8, addend: 0x0, symName: __ZNSt3__16vectorINS0_IyNS_9allocatorIyEEEENS1_IS3_EEE5beginB8ue170006Ev, symObjAddr: 0x23CA0, symBinAddr: 0x1000245E4, symSize: 0x30 }
  - { offsetInCU: 0x56C96, offset: 0x56C96, size: 0x8, addend: 0x0, symName: __ZNKSt3__111__wrap_iterIPNS_6vectorIyNS_9allocatorIyEEEEEplB8ue170006El, symObjAddr: 0x23CD0, symBinAddr: 0x100024614, symSize: 0x3C }
  - { offsetInCU: 0x56CD8, offset: 0x56CD8, size: 0x8, addend: 0x0, symName: __ZNSt3__15queueINS_5tupleIJyyyPyEEENS_5dequeIS3_NS_9allocatorIS3_EEEEED1Ev, symObjAddr: 0x23D0C, symBinAddr: 0x100024650, symSize: 0x2C }
  - { offsetInCU: 0x56D05, offset: 0x56D05, size: 0x8, addend: 0x0, symName: __ZNSt3__15queueINS_5tupleIJyyyPyEEENS_5dequeIS3_NS_9allocatorIS3_EEEEEC2B8ue170006Ev, symObjAddr: 0x23D38, symBinAddr: 0x10002467C, symSize: 0x2C }
  - { offsetInCU: 0x56D2F, offset: 0x56D2F, size: 0x8, addend: 0x0, symName: __ZNSt3__15dequeINS_5tupleIJyyyPyEEENS_9allocatorIS3_EEEC1B8ue170006Ev, symObjAddr: 0x23D64, symBinAddr: 0x1000246A8, symSize: 0x2C }
  - { offsetInCU: 0x56D59, offset: 0x56D59, size: 0x8, addend: 0x0, symName: __ZNSt3__15dequeINS_5tupleIJyyyPyEEENS_9allocatorIS3_EEEC2B8ue170006Ev, symObjAddr: 0x23D90, symBinAddr: 0x1000246D4, symSize: 0x5C }
  - { offsetInCU: 0x56D83, offset: 0x56D83, size: 0x8, addend: 0x0, symName: __ZNSt3__114__split_bufferIPNS_5tupleIJyyyPyEEENS_9allocatorIS4_EEEC1B8ue170006Ev, symObjAddr: 0x23DEC, symBinAddr: 0x100024730, symSize: 0x2C }
  - { offsetInCU: 0x56DAD, offset: 0x56DAD, size: 0x8, addend: 0x0, symName: __ZNSt3__117__compressed_pairImNS_9allocatorINS_5tupleIJyyyPyEEEEEEC1B8ue170006IiNS_18__default_init_tagEEEOT_OT0_, symObjAddr: 0x23E18, symBinAddr: 0x10002475C, symSize: 0x3C }
  - { offsetInCU: 0x56E05, offset: 0x56E05, size: 0x8, addend: 0x0, symName: __ZNKSt3__15dequeINS_5tupleIJyyyPyEEENS_9allocatorIS3_EEE14__annotate_newB8ue170006Em, symObjAddr: 0x23E54, symBinAddr: 0x100024798, symSize: 0xC8 }
  - { offsetInCU: 0x56E3A, offset: 0x56E3A, size: 0x8, addend: 0x0, symName: __ZNSt3__114__split_bufferIPNS_5tupleIJyyyPyEEENS_9allocatorIS4_EEEC2B8ue170006Ev, symObjAddr: 0x23F1C, symBinAddr: 0x100024860, symSize: 0x50 }
  - { offsetInCU: 0x56E64, offset: 0x56E64, size: 0x8, addend: 0x0, symName: __ZNSt3__117__compressed_pairIPPNS_5tupleIJyyyPyEEENS_9allocatorIS4_EEEC1B8ue170006IDnNS_18__default_init_tagEEEOT_OT0_, symObjAddr: 0x23F6C, symBinAddr: 0x1000248B0, symSize: 0x3C }
  - { offsetInCU: 0x56EBC, offset: 0x56EBC, size: 0x8, addend: 0x0, symName: __ZNSt3__117__compressed_pairIPPNS_5tupleIJyyyPyEEENS_9allocatorIS4_EEEC2B8ue170006IDnNS_18__default_init_tagEEEOT_OT0_, symObjAddr: 0x23FA8, symBinAddr: 0x1000248EC, symSize: 0x40 }
  - { offsetInCU: 0x56F14, offset: 0x56F14, size: 0x8, addend: 0x0, symName: __ZNSt3__122__compressed_pair_elemIPPNS_5tupleIJyyyPyEEELi0ELb0EEC2B8ue170006IDnvEEOT_, symObjAddr: 0x23FE8, symBinAddr: 0x10002492C, symSize: 0x1C }
  - { offsetInCU: 0x56F56, offset: 0x56F56, size: 0x8, addend: 0x0, symName: __ZNSt3__122__compressed_pair_elemINS_9allocatorIPNS_5tupleIJyyyPyEEEEELi1ELb1EEC2B8ue170006ENS_18__default_init_tagE, symObjAddr: 0x24004, symBinAddr: 0x100024948, symSize: 0x2C }
  - { offsetInCU: 0x56F8B, offset: 0x56F8B, size: 0x8, addend: 0x0, symName: __ZNSt3__19allocatorIPNS_5tupleIJyyyPyEEEEC2B8ue170006Ev, symObjAddr: 0x24030, symBinAddr: 0x100024974, symSize: 0x2C }
  - { offsetInCU: 0x56FB5, offset: 0x56FB5, size: 0x8, addend: 0x0, symName: __ZNSt3__116__non_trivial_ifILb1ENS_9allocatorIPNS_5tupleIJyyyPyEEEEEEC2B8ue170006Ev, symObjAddr: 0x2405C, symBinAddr: 0x1000249A0, symSize: 0x14 }
  - { offsetInCU: 0x56FDF, offset: 0x56FDF, size: 0x8, addend: 0x0, symName: __ZNSt3__117__compressed_pairImNS_9allocatorINS_5tupleIJyyyPyEEEEEEC2B8ue170006IiNS_18__default_init_tagEEEOT_OT0_, symObjAddr: 0x24070, symBinAddr: 0x1000249B4, symSize: 0x40 }
  - { offsetInCU: 0x57037, offset: 0x57037, size: 0x8, addend: 0x0, symName: __ZNSt3__122__compressed_pair_elemINS_9allocatorINS_5tupleIJyyyPyEEEEELi1ELb1EEC2B8ue170006ENS_18__default_init_tagE, symObjAddr: 0x240B0, symBinAddr: 0x1000249F4, symSize: 0x2C }
  - { offsetInCU: 0x5706C, offset: 0x5706C, size: 0x8, addend: 0x0, symName: __ZNSt3__19allocatorINS_5tupleIJyyyPyEEEEC2B8ue170006Ev, symObjAddr: 0x240DC, symBinAddr: 0x100024A20, symSize: 0x2C }
  - { offsetInCU: 0x57096, offset: 0x57096, size: 0x8, addend: 0x0, symName: __ZNSt3__116__non_trivial_ifILb1ENS_9allocatorINS_5tupleIJyyyPyEEEEEEC2B8ue170006Ev, symObjAddr: 0x24108, symBinAddr: 0x100024A4C, symSize: 0x14 }
  - { offsetInCU: 0x570C0, offset: 0x570C0, size: 0x8, addend: 0x0, symName: __ZNKSt3__15dequeINS_5tupleIJyyyPyEEENS_9allocatorIS3_EEE18__annotate_from_toB8ue170006EmmNS6_22__asan_annotation_typeENS6_23__asan_annotation_placeE, symObjAddr: 0x2411C, symBinAddr: 0x100024A60, symSize: 0x580 }
  - { offsetInCU: 0x5727C, offset: 0x5727C, size: 0x8, addend: 0x0, symName: __ZNKSt3__114__split_bufferIPNS_5tupleIJyyyPyEEENS_9allocatorIS4_EEE4sizeB8ue170006Ev, symObjAddr: 0x2469C, symBinAddr: 0x100024FE0, symSize: 0x28 }
  - { offsetInCU: 0x572A2, offset: 0x572A2, size: 0x8, addend: 0x0, symName: __ZNKSt3__114__split_bufferIPNS_5tupleIJyyyPyEEENS_9allocatorIS4_EEE5beginB8ue170006Ev, symObjAddr: 0x246C4, symBinAddr: 0x100025008, symSize: 0x18 }
  - { offsetInCU: 0x572C8, offset: 0x572C8, size: 0x8, addend: 0x0, symName: __ZNKSt3__15dequeINS_5tupleIJyyyPyEEENS_9allocatorIS3_EEE4sizeB8ue170006Ev, symObjAddr: 0x246DC, symBinAddr: 0x100025020, symSize: 0x28 }
  - { offsetInCU: 0x572EE, offset: 0x572EE, size: 0x8, addend: 0x0, symName: __ZNKSt3__15dequeINS_5tupleIJyyyPyEEENS_9allocatorIS3_EEE5emptyB8ue170006Ev, symObjAddr: 0x24704, symBinAddr: 0x100025048, symSize: 0x30 }
  - { offsetInCU: 0x57314, offset: 0x57314, size: 0x8, addend: 0x0, symName: __ZNKSt3__15dequeINS_5tupleIJyyyPyEEENS_9allocatorIS3_EEE44__annotate_double_ended_contiguous_containerB8ue170006EPKvS8_S8_S8_S8_S8_, symObjAddr: 0x24748, symBinAddr: 0x10002508C, symSize: 0x28 }
  - { offsetInCU: 0x57382, offset: 0x57382, size: 0x8, addend: 0x0, symName: __ZNKSt3__15dequeINS_5tupleIJyyyPyEEENS_9allocatorIS3_EEE6__sizeB8ue170006Ev, symObjAddr: 0x24770, symBinAddr: 0x1000250B4, symSize: 0x28 }
  - { offsetInCU: 0x573A8, offset: 0x573A8, size: 0x8, addend: 0x0, symName: __ZNKSt3__117__compressed_pairImNS_9allocatorINS_5tupleIJyyyPyEEEEEE5firstB8ue170006Ev, symObjAddr: 0x24798, symBinAddr: 0x1000250DC, symSize: 0x24 }
  - { offsetInCU: 0x573CE, offset: 0x573CE, size: 0x8, addend: 0x0, symName: __ZNSt3__16vectorIyNS_9allocatorIyEEEC2EmRKy, symObjAddr: 0x247BC, symBinAddr: 0x100025100, symSize: 0xDC }
  - { offsetInCU: 0x5742D, offset: 0x5742D, size: 0x8, addend: 0x0, symName: __ZNSt3__16vectorIyNS_9allocatorIyEEE18__construct_at_endEmRKy, symObjAddr: 0x24898, symBinAddr: 0x1000251DC, symSize: 0xD0 }
  - { offsetInCU: 0x574AE, offset: 0x574AE, size: 0x8, addend: 0x0, symName: __ZNSt3__116allocator_traitsINS_9allocatorIyEEE9constructB8ue170006IyJRKyEvEEvRS2_PT_DpOT0_, symObjAddr: 0x24968, symBinAddr: 0x1000252AC, symSize: 0x34 }
  - { offsetInCU: 0x57505, offset: 0x57505, size: 0x8, addend: 0x0, symName: __ZNSt3__19allocatorIyE9constructB8ue170006IyJRKyEEEvPT_DpOT0_, symObjAddr: 0x2499C, symBinAddr: 0x1000252E0, symSize: 0x28 }
  - { offsetInCU: 0x5755B, offset: 0x5755B, size: 0x8, addend: 0x0, symName: __ZNSt3__15dequeINS_5tupleIJyyyPyEEENS_9allocatorIS3_EEE9push_backEOS3_, symObjAddr: 0x249C4, symBinAddr: 0x100025308, symSize: 0xAC }
  - { offsetInCU: 0x575A1, offset: 0x575A1, size: 0x8, addend: 0x0, symName: __ZNSt3__15dequeINS_5tupleIJyyyPyEEENS_9allocatorIS3_EEE7__allocB8ue170006Ev, symObjAddr: 0x24A70, symBinAddr: 0x1000253B4, symSize: 0x28 }
  - { offsetInCU: 0x575C7, offset: 0x575C7, size: 0x8, addend: 0x0, symName: __ZNKSt3__15dequeINS_5tupleIJyyyPyEEENS_9allocatorIS3_EEE12__back_spareB8ue170006Ev, symObjAddr: 0x24A98, symBinAddr: 0x1000253DC, symSize: 0x54 }
  - { offsetInCU: 0x575ED, offset: 0x575ED, size: 0x8, addend: 0x0, symName: __ZNSt3__15dequeINS_5tupleIJyyyPyEEENS_9allocatorIS3_EEE19__add_back_capacityEv, symObjAddr: 0x24AEC, symBinAddr: 0x100025430, symSize: 0x34C }
  - { offsetInCU: 0x576A2, offset: 0x576A2, size: 0x8, addend: 0x0, symName: __ZNKSt3__15dequeINS_5tupleIJyyyPyEEENS_9allocatorIS3_EEE24__annotate_increase_backB8ue170006Em, symObjAddr: 0x24E38, symBinAddr: 0x10002577C, symSize: 0x7C }
  - { offsetInCU: 0x576D7, offset: 0x576D7, size: 0x8, addend: 0x0, symName: __ZNSt3__116allocator_traitsINS_9allocatorINS_5tupleIJyyyPyEEEEEE9constructB8ue170006IS4_JS4_EvEEvRS5_PT_DpOT0_, symObjAddr: 0x24EB4, symBinAddr: 0x1000257F8, symSize: 0x34 }
  - { offsetInCU: 0x5772E, offset: 0x5772E, size: 0x8, addend: 0x0, symName: __ZNSt3__15dequeINS_5tupleIJyyyPyEEENS_9allocatorIS3_EEE3endB8ue170006Ev, symObjAddr: 0x24EE8, symBinAddr: 0x10002582C, symSize: 0xCC }
  - { offsetInCU: 0x57772, offset: 0x57772, size: 0x8, addend: 0x0, symName: __ZNKSt3__116__deque_iteratorINS_5tupleIJyyyPyEEEPS3_RS3_PS4_lLl128EEdeB8ue170006Ev, symObjAddr: 0x24FB4, symBinAddr: 0x1000258F8, symSize: 0x18 }
  - { offsetInCU: 0x57798, offset: 0x57798, size: 0x8, addend: 0x0, symName: __ZNSt3__15dequeINS_5tupleIJyyyPyEEENS_9allocatorIS3_EEE6__sizeB8ue170006Ev, symObjAddr: 0x24FCC, symBinAddr: 0x100025910, symSize: 0x28 }
  - { offsetInCU: 0x577BE, offset: 0x577BE, size: 0x8, addend: 0x0, symName: __ZNSt3__117__compressed_pairImNS_9allocatorINS_5tupleIJyyyPyEEEEEE6secondB8ue170006Ev, symObjAddr: 0x24FF4, symBinAddr: 0x100025938, symSize: 0x24 }
  - { offsetInCU: 0x577E4, offset: 0x577E4, size: 0x8, addend: 0x0, symName: __ZNSt3__122__compressed_pair_elemINS_9allocatorINS_5tupleIJyyyPyEEEEELi1ELb1EE5__getB8ue170006Ev, symObjAddr: 0x25018, symBinAddr: 0x10002595C, symSize: 0x14 }
  - { offsetInCU: 0x5780A, offset: 0x5780A, size: 0x8, addend: 0x0, symName: __ZNKSt3__15dequeINS_5tupleIJyyyPyEEENS_9allocatorIS3_EEE10__capacityB8ue170006Ev, symObjAddr: 0x2502C, symBinAddr: 0x100025970, symSize: 0x60 }
  - { offsetInCU: 0x57830, offset: 0x57830, size: 0x8, addend: 0x0, symName: __ZNKSt3__15dequeINS_5tupleIJyyyPyEEENS_9allocatorIS3_EEE13__front_spareB8ue170006Ev, symObjAddr: 0x2508C, symBinAddr: 0x1000259D0, symSize: 0x18 }
  - { offsetInCU: 0x57856, offset: 0x57856, size: 0x8, addend: 0x0, symName: __ZNSt3__114__split_bufferIPNS_5tupleIJyyyPyEEENS_9allocatorIS4_EEE5frontB8ue170006Ev, symObjAddr: 0x250A4, symBinAddr: 0x1000259E8, symSize: 0x18 }
  - { offsetInCU: 0x5787C, offset: 0x5787C, size: 0x8, addend: 0x0, symName: __ZNSt3__114__split_bufferIPNS_5tupleIJyyyPyEEENS_9allocatorIS4_EEE9pop_frontB8ue170006Ev, symObjAddr: 0x250BC, symBinAddr: 0x100025A00, symSize: 0x2C }
  - { offsetInCU: 0x578A2, offset: 0x578A2, size: 0x8, addend: 0x0, symName: __ZNSt3__114__split_bufferIPNS_5tupleIJyyyPyEEENS_9allocatorIS4_EEE9push_backB8ue170006ERKS4_, symObjAddr: 0x250E8, symBinAddr: 0x100025A2C, symSize: 0x260 }
  - { offsetInCU: 0x5791A, offset: 0x5791A, size: 0x8, addend: 0x0, symName: __ZNKSt3__114__split_bufferIPNS_5tupleIJyyyPyEEENS_9allocatorIS4_EEE8capacityB8ue170006Ev, symObjAddr: 0x25348, symBinAddr: 0x100025C8C, symSize: 0x40 }
  - { offsetInCU: 0x57940, offset: 0x57940, size: 0x8, addend: 0x0, symName: __ZNKSt3__114__split_bufferIPNS_5tupleIJyyyPyEEENS_9allocatorIS4_EEE12__back_spareB8ue170006Ev, symObjAddr: 0x25388, symBinAddr: 0x100025CCC, symSize: 0x40 }
  - { offsetInCU: 0x57966, offset: 0x57966, size: 0x8, addend: 0x0, symName: __ZNSt3__114__split_bufferIPNS_5tupleIJyyyPyEEENS_9allocatorIS4_EEE9push_backEOS4_, symObjAddr: 0x253C8, symBinAddr: 0x100025D0C, symSize: 0x260 }
  - { offsetInCU: 0x579DE, offset: 0x579DE, size: 0x8, addend: 0x0, symName: __ZNSt3__116allocator_traitsINS_9allocatorINS_5tupleIJyyyPyEEEEEE8allocateB8ue170006ERS5_m, symObjAddr: 0x25628, symBinAddr: 0x100025F6C, symSize: 0x2C }
  - { offsetInCU: 0x57A11, offset: 0x57A11, size: 0x8, addend: 0x0, symName: __ZNSt3__114__split_bufferIPNS_5tupleIJyyyPyEEENS_9allocatorIS4_EEE10push_frontEOS4_, symObjAddr: 0x25654, symBinAddr: 0x100025F98, symSize: 0x25C }
  - { offsetInCU: 0x57A89, offset: 0x57A89, size: 0x8, addend: 0x0, symName: __ZNKSt3__15dequeINS_5tupleIJyyyPyEEENS_9allocatorIS3_EEE22__annotate_whole_blockB8ue170006EmNS6_22__asan_annotation_typeE, symObjAddr: 0x258B0, symBinAddr: 0x1000261F4, symSize: 0xAC }
  - { offsetInCU: 0x57AFA, offset: 0x57AFA, size: 0x8, addend: 0x0, symName: __ZNSt3__114__split_bufferIPNS_5tupleIJyyyPyEEENS_9allocatorIS4_EEE7__allocB8ue170006Ev, symObjAddr: 0x2595C, symBinAddr: 0x1000262A0, symSize: 0x28 }
  - { offsetInCU: 0x57B20, offset: 0x57B20, size: 0x8, addend: 0x0, symName: __ZNSt3__114__split_bufferIPNS_5tupleIJyyyPyEEERNS_9allocatorIS4_EEEC1EmmS7_, symObjAddr: 0x25984, symBinAddr: 0x1000262C8, symSize: 0x44 }
  - { offsetInCU: 0x57B7B, offset: 0x57B7B, size: 0x8, addend: 0x0, symName: __ZNSt3__122__allocator_destructorINS_9allocatorINS_5tupleIJyyyPyEEEEEEC1B8ue170006ERS5_m, symObjAddr: 0x259C8, symBinAddr: 0x10002630C, symSize: 0x3C }
  - { offsetInCU: 0x57C46, offset: 0x57C46, size: 0x8, addend: 0x0, symName: __ZNSt3__110unique_ptrIPNS_5tupleIJyyyPyEEENS_22__allocator_destructorINS_9allocatorIS3_EEEEEC1B8ue170006ILb1EvEES4_NS_16__dependent_typeINS_27__unique_ptr_deleter_sfinaeIS8_EEXT_EE20__good_rval_ref_typeE, symObjAddr: 0x25A04, symBinAddr: 0x100026348, symSize: 0x3C }
  - { offsetInCU: 0x57C97, offset: 0x57C97, size: 0x8, addend: 0x0, symName: __ZNSt3__114__split_bufferIPNS_5tupleIJyyyPyEEERNS_9allocatorIS4_EEE9push_backEOS4_, symObjAddr: 0x25A40, symBinAddr: 0x100026384, symSize: 0x260 }
  - { offsetInCU: 0x57D0F, offset: 0x57D0F, size: 0x8, addend: 0x0, symName: __ZNKSt3__110unique_ptrIPNS_5tupleIJyyyPyEEENS_22__allocator_destructorINS_9allocatorIS3_EEEEE3getB8ue170006Ev, symObjAddr: 0x25CA0, symBinAddr: 0x1000265E4, symSize: 0x28 }
  - { offsetInCU: 0x57D35, offset: 0x57D35, size: 0x8, addend: 0x0, symName: __ZNSt3__110unique_ptrIPNS_5tupleIJyyyPyEEENS_22__allocator_destructorINS_9allocatorIS3_EEEEE7releaseB8ue170006Ev, symObjAddr: 0x25CC8, symBinAddr: 0x10002660C, symSize: 0x44 }
  - { offsetInCU: 0x57D6A, offset: 0x57D6A, size: 0x8, addend: 0x0, symName: __ZNSt3__114__split_bufferIPNS_5tupleIJyyyPyEEENS_9allocatorIS4_EEE3endB8ue170006Ev, symObjAddr: 0x25D0C, symBinAddr: 0x100026650, symSize: 0x18 }
  - { offsetInCU: 0x57D90, offset: 0x57D90, size: 0x8, addend: 0x0, symName: __ZNSt3__114__split_bufferIPNS_5tupleIJyyyPyEEENS_9allocatorIS4_EEE5beginB8ue170006Ev, symObjAddr: 0x25D24, symBinAddr: 0x100026668, symSize: 0x18 }
  - { offsetInCU: 0x57DB6, offset: 0x57DB6, size: 0x8, addend: 0x0, symName: __ZNSt3__114__split_bufferIPNS_5tupleIJyyyPyEEERNS_9allocatorIS4_EEE10push_frontERKS4_, symObjAddr: 0x25D3C, symBinAddr: 0x100026680, symSize: 0x25C }
  - { offsetInCU: 0x57E2E, offset: 0x57E2E, size: 0x8, addend: 0x0, symName: __ZNSt3__114__split_bufferIPNS_5tupleIJyyyPyEEENS_9allocatorIS4_EEE9__end_capB8ue170006Ev, symObjAddr: 0x25FD4, symBinAddr: 0x100026918, symSize: 0x28 }
  - { offsetInCU: 0x57E54, offset: 0x57E54, size: 0x8, addend: 0x0, symName: __ZNSt3__114__split_bufferIPNS_5tupleIJyyyPyEEERNS_9allocatorIS4_EEE9__end_capB8ue170006Ev, symObjAddr: 0x25FFC, symBinAddr: 0x100026940, symSize: 0x28 }
  - { offsetInCU: 0x57E7A, offset: 0x57E7A, size: 0x8, addend: 0x0, symName: __ZNSt3__110unique_ptrIPNS_5tupleIJyyyPyEEENS_22__allocator_destructorINS_9allocatorIS3_EEEEED1B8ue170006Ev, symObjAddr: 0x26024, symBinAddr: 0x100026968, symSize: 0x2C }
  - { offsetInCU: 0x57EA4, offset: 0x57EA4, size: 0x8, addend: 0x0, symName: __ZNSt3__114__split_bufferIPNS_5tupleIJyyyPyEEERNS_9allocatorIS4_EEED1Ev, symObjAddr: 0x26050, symBinAddr: 0x100026994, symSize: 0x2C }
  - { offsetInCU: 0x57ED0, offset: 0x57ED0, size: 0x8, addend: 0x0, symName: __ZNSt3__114__split_bufferIPNS_5tupleIJyyyPyEEENS_9allocatorIS4_EEE19__destruct_at_beginB8ue170006EPS4_, symObjAddr: 0x2607C, symBinAddr: 0x1000269C0, symSize: 0x2C }
  - { offsetInCU: 0x57F04, offset: 0x57F04, size: 0x8, addend: 0x0, symName: __ZNSt3__114__split_bufferIPNS_5tupleIJyyyPyEEENS_9allocatorIS4_EEE19__destruct_at_beginEPS4_NS_17integral_constantIbLb1EEE, symObjAddr: 0x260A8, symBinAddr: 0x1000269EC, symSize: 0x20 }
  - { offsetInCU: 0x57F45, offset: 0x57F45, size: 0x8, addend: 0x0, symName: __ZNSt3__114__split_bufferIPNS_5tupleIJyyyPyEEERNS_9allocatorIS4_EEE18__construct_at_endINS_13move_iteratorIPS4_EEEENS_9enable_ifIXsr31__has_forward_iterator_categoryIT_EE5valueEvE4typeESE_SE_, symObjAddr: 0x26108, symBinAddr: 0x100026A4C, symSize: 0x60 }
  - { offsetInCU: 0x57F92, offset: 0x57F92, size: 0x8, addend: 0x0, symName: __ZNSt3__113move_iteratorIPPNS_5tupleIJyyyPyEEEEC1B8ue170006ES5_, symObjAddr: 0x26168, symBinAddr: 0x100026AAC, symSize: 0x34 }
  - { offsetInCU: 0x57FCA, offset: 0x57FCA, size: 0x8, addend: 0x0, symName: __ZNSt3__116allocator_traitsINS_9allocatorIPNS_5tupleIJyyyPyEEEEEE9constructB8ue170006IS5_JRKS5_EvEEvRS6_PT_DpOT0_, symObjAddr: 0x2619C, symBinAddr: 0x100026AE0, symSize: 0x34 }
  - { offsetInCU: 0x58047, offset: 0x58047, size: 0x8, addend: 0x0, symName: __ZNKSt3__114__move_trivialclB8ue170006IPNS_5tupleIJyyyPyEEES5_Li0EEENS_4pairIPT_PT0_EES8_S8_SA_, symObjAddr: 0x26380, symBinAddr: 0x100026CC4, symSize: 0x48 }
  - { offsetInCU: 0x580B5, offset: 0x580B5, size: 0x8, addend: 0x0, symName: __ZNSt3__14pairIPPNS_5tupleIJyyyPyEEES5_EC1B8ue170006IRS5_S5_LPv0EEEOT_OT0_, symObjAddr: 0x265A8, symBinAddr: 0x100026EEC, symSize: 0x3C }
  - { offsetInCU: 0x58113, offset: 0x58113, size: 0x8, addend: 0x0, symName: __ZNSt3__14pairIPPNS_5tupleIJyyyPyEEES5_EC2B8ue170006IRS5_S5_LPv0EEEOT_OT0_, symObjAddr: 0x265E4, symBinAddr: 0x100026F28, symSize: 0x34 }
  - { offsetInCU: 0x58171, offset: 0x58171, size: 0x8, addend: 0x0, symName: __ZNSt3__118__unwrap_iter_implIPPNS_5tupleIJyyyPyEEELb1EE8__unwrapB8ue170006ES5_, symObjAddr: 0x26618, symBinAddr: 0x100026F5C, symSize: 0x24 }
  - { offsetInCU: 0x58194, offset: 0x58194, size: 0x8, addend: 0x0, symName: __ZNSt3__14pairIPPNS_5tupleIJyyyPyEEES5_EC1B8ue170006IS5_S5_LPv0EEEOT_OT0_, symObjAddr: 0x2663C, symBinAddr: 0x100026F80, symSize: 0x3C }
  - { offsetInCU: 0x581F2, offset: 0x581F2, size: 0x8, addend: 0x0, symName: __ZNSt3__14pairIPPNS_5tupleIJyyyPyEEES5_EC2B8ue170006IS5_S5_LPv0EEEOT_OT0_, symObjAddr: 0x26678, symBinAddr: 0x100026FBC, symSize: 0x34 }
  - { offsetInCU: 0x58250, offset: 0x58250, size: 0x8, addend: 0x0, symName: __ZNSt3__118__unwrap_iter_implIPPNS_5tupleIJyyyPyEEELb1EE8__rewrapB8ue170006ES5_S5_, symObjAddr: 0x266AC, symBinAddr: 0x100026FF0, symSize: 0x50 }
  - { offsetInCU: 0x58281, offset: 0x58281, size: 0x8, addend: 0x0, symName: __ZNSt3__114__split_bufferIPNS_5tupleIJyyyPyEEERNS_9allocatorIS4_EEE28__construct_at_end_with_sizeINS_13move_iteratorIPS4_EEEEvT_m, symObjAddr: 0x266FC, symBinAddr: 0x100027040, symSize: 0xDC }
  - { offsetInCU: 0x582E7, offset: 0x582E7, size: 0x8, addend: 0x0, symName: __ZNSt3__114__split_bufferIPNS_5tupleIJyyyPyEEERNS_9allocatorIS4_EEE21_ConstructTransactionC1B8ue170006EPPS4_m, symObjAddr: 0x26814, symBinAddr: 0x100027158, symSize: 0x3C }
  - { offsetInCU: 0x5832D, offset: 0x5832D, size: 0x8, addend: 0x0, symName: __ZNSt3__116allocator_traitsINS_9allocatorIPNS_5tupleIJyyyPyEEEEEE9constructB8ue170006IS5_JS5_EvEEvRS6_PT_DpOT0_, symObjAddr: 0x26850, symBinAddr: 0x100027194, symSize: 0x34 }
  - { offsetInCU: 0x58384, offset: 0x58384, size: 0x8, addend: 0x0, symName: __ZNSt3__114__split_bufferIPNS_5tupleIJyyyPyEEERNS_9allocatorIS4_EEE7__allocB8ue170006Ev, symObjAddr: 0x26884, symBinAddr: 0x1000271C8, symSize: 0x28 }
  - { offsetInCU: 0x583AA, offset: 0x583AA, size: 0x8, addend: 0x0, symName: __ZNKSt3__113move_iteratorIPPNS_5tupleIJyyyPyEEEEdeB8ue170006Ev, symObjAddr: 0x268AC, symBinAddr: 0x1000271F0, symSize: 0x18 }
  - { offsetInCU: 0x583D0, offset: 0x583D0, size: 0x8, addend: 0x0, symName: __ZNSt3__113move_iteratorIPPNS_5tupleIJyyyPyEEEEppB8ue170006Ev, symObjAddr: 0x268C4, symBinAddr: 0x100027208, symSize: 0x20 }
  - { offsetInCU: 0x583F6, offset: 0x583F6, size: 0x8, addend: 0x0, symName: __ZNSt3__114__split_bufferIPNS_5tupleIJyyyPyEEERNS_9allocatorIS4_EEE21_ConstructTransactionD1B8ue170006Ev, symObjAddr: 0x268E4, symBinAddr: 0x100027228, symSize: 0x2C }
  - { offsetInCU: 0x58420, offset: 0x58420, size: 0x8, addend: 0x0, symName: __ZNSt3__114__split_bufferIPNS_5tupleIJyyyPyEEERNS_9allocatorIS4_EEE21_ConstructTransactionC2B8ue170006EPPS4_m, symObjAddr: 0x26910, symBinAddr: 0x100027254, symSize: 0x44 }
  - { offsetInCU: 0x58466, offset: 0x58466, size: 0x8, addend: 0x0, symName: __ZNSt3__19allocatorIPNS_5tupleIJyyyPyEEEE9constructB8ue170006IS4_JS4_EEEvPT_DpOT0_, symObjAddr: 0x26954, symBinAddr: 0x100027298, symSize: 0x28 }
  - { offsetInCU: 0x584BC, offset: 0x584BC, size: 0x8, addend: 0x0, symName: __ZNSt3__117__compressed_pairIPPNS_5tupleIJyyyPyEEERNS_9allocatorIS4_EEE6secondB8ue170006Ev, symObjAddr: 0x2697C, symBinAddr: 0x1000272C0, symSize: 0x28 }
  - { offsetInCU: 0x584E2, offset: 0x584E2, size: 0x8, addend: 0x0, symName: __ZNSt3__122__compressed_pair_elemIRNS_9allocatorIPNS_5tupleIJyyyPyEEEEELi1ELb0EE5__getB8ue170006Ev, symObjAddr: 0x269A4, symBinAddr: 0x1000272E8, symSize: 0x18 }
  - { offsetInCU: 0x58508, offset: 0x58508, size: 0x8, addend: 0x0, symName: __ZNSt3__114__split_bufferIPNS_5tupleIJyyyPyEEERNS_9allocatorIS4_EEE21_ConstructTransactionD2B8ue170006Ev, symObjAddr: 0x269BC, symBinAddr: 0x100027300, symSize: 0x20 }
  - { offsetInCU: 0x58532, offset: 0x58532, size: 0x8, addend: 0x0, symName: __ZNKSt3__113move_iteratorIPPNS_5tupleIJyyyPyEEEE4baseB8ue170006Ev, symObjAddr: 0x26A54, symBinAddr: 0x100027398, symSize: 0x18 }
  - { offsetInCU: 0x58558, offset: 0x58558, size: 0x8, addend: 0x0, symName: __ZNSt3__113move_iteratorIPPNS_5tupleIJyyyPyEEEEC2B8ue170006ES5_, symObjAddr: 0x26A6C, symBinAddr: 0x1000273B0, symSize: 0x20 }
  - { offsetInCU: 0x58590, offset: 0x58590, size: 0x8, addend: 0x0, symName: __ZNSt3__19allocatorIPNS_5tupleIJyyyPyEEEE9constructB8ue170006IS4_JRKS4_EEEvPT_DpOT0_, symObjAddr: 0x26A8C, symBinAddr: 0x1000273D0, symSize: 0x28 }
  - { offsetInCU: 0x585E6, offset: 0x585E6, size: 0x8, addend: 0x0, symName: __ZNKSt3__114__split_bufferIPNS_5tupleIJyyyPyEEENS_9allocatorIS4_EEE9__end_capB8ue170006Ev, symObjAddr: 0x26AB4, symBinAddr: 0x1000273F8, symSize: 0x28 }
  - { offsetInCU: 0x5860C, offset: 0x5860C, size: 0x8, addend: 0x0, symName: __ZNKSt3__117__compressed_pairIPPNS_5tupleIJyyyPyEEENS_9allocatorIS4_EEE5firstB8ue170006Ev, symObjAddr: 0x26ADC, symBinAddr: 0x100027420, symSize: 0x24 }
  - { offsetInCU: 0x58632, offset: 0x58632, size: 0x8, addend: 0x0, symName: __ZNKSt3__122__compressed_pair_elemIPPNS_5tupleIJyyyPyEEELi0ELb0EE5__getB8ue170006Ev, symObjAddr: 0x26B00, symBinAddr: 0x100027444, symSize: 0x14 }
  - { offsetInCU: 0x58658, offset: 0x58658, size: 0x8, addend: 0x0, symName: __ZNSt3__19allocatorINS_5tupleIJyyyPyEEEE8allocateB8ue170006Em, symObjAddr: 0x26B14, symBinAddr: 0x100027458, symSize: 0x58 }
  - { offsetInCU: 0x58697, offset: 0x58697, size: 0x8, addend: 0x0, symName: __ZNSt3__116allocator_traitsINS_9allocatorINS_5tupleIJyyyPyEEEEEE8max_sizeB8ue170006IS5_vEEmRKS5_, symObjAddr: 0x26B6C, symBinAddr: 0x1000274B0, symSize: 0x24 }
  - { offsetInCU: 0x586C5, offset: 0x586C5, size: 0x8, addend: 0x0, symName: __ZNKSt3__19allocatorINS_5tupleIJyyyPyEEEE8max_sizeB8ue170006Ev, symObjAddr: 0x26B90, symBinAddr: 0x1000274D4, symSize: 0x14 }
  - { offsetInCU: 0x586F5, offset: 0x586F5, size: 0x8, addend: 0x0, symName: __ZNKSt3__123__move_backward_trivialclB8ue170006IPNS_5tupleIJyyyPyEEES5_Li0EEENS_4pairIPT_PT0_EES8_S8_SA_, symObjAddr: 0x26D20, symBinAddr: 0x100027664, symSize: 0x48 }
  - { offsetInCU: 0x5875D, offset: 0x5875D, size: 0x8, addend: 0x0, symName: __ZNSt3__14pairIPPNS_5tupleIJyyyPyEEES5_EC1B8ue170006IRS5_S8_LPv0EEEOT_OT0_, symObjAddr: 0x26E30, symBinAddr: 0x100027774, symSize: 0x3C }
  - { offsetInCU: 0x587BB, offset: 0x587BB, size: 0x8, addend: 0x0, symName: __ZNSt3__14pairIPPNS_5tupleIJyyyPyEEES5_EC2B8ue170006IRS5_S8_LPv0EEEOT_OT0_, symObjAddr: 0x26E6C, symBinAddr: 0x1000277B0, symSize: 0x34 }
  - { offsetInCU: 0x58819, offset: 0x58819, size: 0x8, addend: 0x0, symName: __ZNKSt3__15dequeINS_5tupleIJyyyPyEEENS_9allocatorIS3_EEE23__annotate_poison_blockB8ue170006EPKvS8_, symObjAddr: 0x26EA0, symBinAddr: 0x1000277E4, symSize: 0x44 }
  - { offsetInCU: 0x5885D, offset: 0x5885D, size: 0x8, addend: 0x0, symName: __ZNSt3__117__compressed_pairIPPNS_5tupleIJyyyPyEEENS_9allocatorIS4_EEE6secondB8ue170006Ev, symObjAddr: 0x26EE4, symBinAddr: 0x100027828, symSize: 0x24 }
  - { offsetInCU: 0x58883, offset: 0x58883, size: 0x8, addend: 0x0, symName: __ZNSt3__122__compressed_pair_elemINS_9allocatorIPNS_5tupleIJyyyPyEEEEELi1ELb1EE5__getB8ue170006Ev, symObjAddr: 0x26F08, symBinAddr: 0x10002784C, symSize: 0x14 }
  - { offsetInCU: 0x588A9, offset: 0x588A9, size: 0x8, addend: 0x0, symName: __ZNSt3__114__split_bufferIPNS_5tupleIJyyyPyEEERNS_9allocatorIS4_EEEC2EmmS7_, symObjAddr: 0x26F1C, symBinAddr: 0x100027860, symSize: 0xD4 }
  - { offsetInCU: 0x5891C, offset: 0x5891C, size: 0x8, addend: 0x0, symName: __ZNSt3__117__compressed_pairIPPNS_5tupleIJyyyPyEEERNS_9allocatorIS4_EEEC1B8ue170006IDnS8_EEOT_OT0_, symObjAddr: 0x26FF0, symBinAddr: 0x100027934, symSize: 0x3C }
  - { offsetInCU: 0x58974, offset: 0x58974, size: 0x8, addend: 0x0, symName: __ZNSt3__117__compressed_pairIPPNS_5tupleIJyyyPyEEERNS_9allocatorIS4_EEEC2B8ue170006IDnS8_EEOT_OT0_, symObjAddr: 0x2706C, symBinAddr: 0x1000279B0, symSize: 0x48 }
  - { offsetInCU: 0x589CC, offset: 0x589CC, size: 0x8, addend: 0x0, symName: __ZNSt3__122__compressed_pair_elemIRNS_9allocatorIPNS_5tupleIJyyyPyEEEEELi1ELb0EEC2B8ue170006IS7_vEEOT_, symObjAddr: 0x270B4, symBinAddr: 0x1000279F8, symSize: 0x20 }
  - { offsetInCU: 0x58A0E, offset: 0x58A0E, size: 0x8, addend: 0x0, symName: __ZNSt3__19allocatorIPNS_5tupleIJyyyPyEEEE8allocateB8ue170006Em, symObjAddr: 0x270D4, symBinAddr: 0x100027A18, symSize: 0x58 }
  - { offsetInCU: 0x58A4D, offset: 0x58A4D, size: 0x8, addend: 0x0, symName: __ZNSt3__116allocator_traitsINS_9allocatorIPNS_5tupleIJyyyPyEEEEEE8max_sizeB8ue170006IS6_vEEmRKS6_, symObjAddr: 0x2712C, symBinAddr: 0x100027A70, symSize: 0x24 }
  - { offsetInCU: 0x58A7B, offset: 0x58A7B, size: 0x8, addend: 0x0, symName: __ZNKSt3__19allocatorIPNS_5tupleIJyyyPyEEEE8max_sizeB8ue170006Ev, symObjAddr: 0x27150, symBinAddr: 0x100027A94, symSize: 0x14 }
  - { offsetInCU: 0x58AA1, offset: 0x58AA1, size: 0x8, addend: 0x0, symName: __ZNSt3__122__allocator_destructorINS_9allocatorINS_5tupleIJyyyPyEEEEEEC2B8ue170006ERS5_m, symObjAddr: 0x27164, symBinAddr: 0x100027AA8, symSize: 0x2C }
  - { offsetInCU: 0x58AE7, offset: 0x58AE7, size: 0x8, addend: 0x0, symName: __ZNSt3__110unique_ptrIPNS_5tupleIJyyyPyEEENS_22__allocator_destructorINS_9allocatorIS3_EEEEEC2B8ue170006ILb1EvEES4_NS_16__dependent_typeINS_27__unique_ptr_deleter_sfinaeIS8_EEXT_EE20__good_rval_ref_typeE, symObjAddr: 0x27190, symBinAddr: 0x100027AD4, symSize: 0x48 }
  - { offsetInCU: 0x58B38, offset: 0x58B38, size: 0x8, addend: 0x0, symName: __ZNSt3__117__compressed_pairIPNS_5tupleIJyyyPyEEENS_22__allocator_destructorINS_9allocatorIS3_EEEEEC1B8ue170006IRS4_S8_EEOT_OT0_, symObjAddr: 0x271D8, symBinAddr: 0x100027B1C, symSize: 0x3C }
  - { offsetInCU: 0x58B90, offset: 0x58B90, size: 0x8, addend: 0x0, symName: __ZNSt3__117__compressed_pairIPNS_5tupleIJyyyPyEEENS_22__allocator_destructorINS_9allocatorIS3_EEEEEC2B8ue170006IRS4_S8_EEOT_OT0_, symObjAddr: 0x27214, symBinAddr: 0x100027B58, symSize: 0x48 }
  - { offsetInCU: 0x58BE8, offset: 0x58BE8, size: 0x8, addend: 0x0, symName: __ZNSt3__122__compressed_pair_elemIPNS_5tupleIJyyyPyEEELi0ELb0EEC2B8ue170006IRS4_vEEOT_, symObjAddr: 0x2725C, symBinAddr: 0x100027BA0, symSize: 0x24 }
  - { offsetInCU: 0x58C2A, offset: 0x58C2A, size: 0x8, addend: 0x0, symName: __ZNSt3__122__compressed_pair_elemINS_22__allocator_destructorINS_9allocatorINS_5tupleIJyyyPyEEEEEEELi1ELb0EEC2B8ue170006IS7_vEEOT_, symObjAddr: 0x27280, symBinAddr: 0x100027BC4, symSize: 0x24 }
  - { offsetInCU: 0x58C6C, offset: 0x58C6C, size: 0x8, addend: 0x0, symName: __ZNKSt3__117__compressed_pairIPNS_5tupleIJyyyPyEEENS_22__allocator_destructorINS_9allocatorIS3_EEEEE5firstB8ue170006Ev, symObjAddr: 0x272A4, symBinAddr: 0x100027BE8, symSize: 0x24 }
  - { offsetInCU: 0x58C92, offset: 0x58C92, size: 0x8, addend: 0x0, symName: __ZNKSt3__122__compressed_pair_elemIPNS_5tupleIJyyyPyEEELi0ELb0EE5__getB8ue170006Ev, symObjAddr: 0x272C8, symBinAddr: 0x100027C0C, symSize: 0x14 }
  - { offsetInCU: 0x58CB8, offset: 0x58CB8, size: 0x8, addend: 0x0, symName: __ZNSt3__117__compressed_pairIPNS_5tupleIJyyyPyEEENS_22__allocator_destructorINS_9allocatorIS3_EEEEE5firstB8ue170006Ev, symObjAddr: 0x272DC, symBinAddr: 0x100027C20, symSize: 0x24 }
  - { offsetInCU: 0x58CDE, offset: 0x58CDE, size: 0x8, addend: 0x0, symName: __ZNSt3__122__compressed_pair_elemIPNS_5tupleIJyyyPyEEELi0ELb0EE5__getB8ue170006Ev, symObjAddr: 0x27300, symBinAddr: 0x100027C44, symSize: 0x14 }
  - { offsetInCU: 0x58D04, offset: 0x58D04, size: 0x8, addend: 0x0, symName: __ZNSt3__117__compressed_pairIPPNS_5tupleIJyyyPyEEENS_9allocatorIS4_EEE5firstB8ue170006Ev, symObjAddr: 0x27314, symBinAddr: 0x100027C58, symSize: 0x24 }
  - { offsetInCU: 0x58D2A, offset: 0x58D2A, size: 0x8, addend: 0x0, symName: __ZNSt3__122__compressed_pair_elemIPPNS_5tupleIJyyyPyEEELi0ELb0EE5__getB8ue170006Ev, symObjAddr: 0x27338, symBinAddr: 0x100027C7C, symSize: 0x14 }
  - { offsetInCU: 0x58D50, offset: 0x58D50, size: 0x8, addend: 0x0, symName: __ZNSt3__117__compressed_pairIPPNS_5tupleIJyyyPyEEERNS_9allocatorIS4_EEE5firstB8ue170006Ev, symObjAddr: 0x2734C, symBinAddr: 0x100027C90, symSize: 0x24 }
  - { offsetInCU: 0x58D76, offset: 0x58D76, size: 0x8, addend: 0x0, symName: __ZNSt3__110unique_ptrIPNS_5tupleIJyyyPyEEENS_22__allocator_destructorINS_9allocatorIS3_EEEEED2B8ue170006Ev, symObjAddr: 0x27370, symBinAddr: 0x100027CB4, symSize: 0x30 }
  - { offsetInCU: 0x58DA0, offset: 0x58DA0, size: 0x8, addend: 0x0, symName: __ZNSt3__110unique_ptrIPNS_5tupleIJyyyPyEEENS_22__allocator_destructorINS_9allocatorIS3_EEEEE5resetB8ue170006ES4_, symObjAddr: 0x273A0, symBinAddr: 0x100027CE4, symSize: 0x78 }
  - { offsetInCU: 0x58DE4, offset: 0x58DE4, size: 0x8, addend: 0x0, symName: __ZNSt3__117__compressed_pairIPNS_5tupleIJyyyPyEEENS_22__allocator_destructorINS_9allocatorIS3_EEEEE6secondB8ue170006Ev, symObjAddr: 0x27418, symBinAddr: 0x100027D5C, symSize: 0x28 }
  - { offsetInCU: 0x58E0A, offset: 0x58E0A, size: 0x8, addend: 0x0, symName: __ZNSt3__122__allocator_destructorINS_9allocatorINS_5tupleIJyyyPyEEEEEEclB8ue170006EPS4_, symObjAddr: 0x27440, symBinAddr: 0x100027D84, symSize: 0x34 }
  - { offsetInCU: 0x58E3E, offset: 0x58E3E, size: 0x8, addend: 0x0, symName: __ZNSt3__122__compressed_pair_elemINS_22__allocator_destructorINS_9allocatorINS_5tupleIJyyyPyEEEEEEELi1ELb0EE5__getB8ue170006Ev, symObjAddr: 0x27474, symBinAddr: 0x100027DB8, symSize: 0x14 }
  - { offsetInCU: 0x58E64, offset: 0x58E64, size: 0x8, addend: 0x0, symName: __ZNSt3__116allocator_traitsINS_9allocatorINS_5tupleIJyyyPyEEEEEE10deallocateB8ue170006ERS5_PS4_m, symObjAddr: 0x27488, symBinAddr: 0x100027DCC, symSize: 0x34 }
  - { offsetInCU: 0x58EA6, offset: 0x58EA6, size: 0x8, addend: 0x0, symName: __ZNSt3__19allocatorINS_5tupleIJyyyPyEEEE10deallocateB8ue170006EPS3_m, symObjAddr: 0x274BC, symBinAddr: 0x100027E00, symSize: 0x40 }
  - { offsetInCU: 0x58EE8, offset: 0x58EE8, size: 0x8, addend: 0x0, symName: __ZNSt3__114__split_bufferIPNS_5tupleIJyyyPyEEERNS_9allocatorIS4_EEED2Ev, symObjAddr: 0x274FC, symBinAddr: 0x100027E40, symSize: 0x8C }
  - { offsetInCU: 0x58F14, offset: 0x58F14, size: 0x8, addend: 0x0, symName: __ZNSt3__114__split_bufferIPNS_5tupleIJyyyPyEEERNS_9allocatorIS4_EEE5clearB8ue170006Ev, symObjAddr: 0x27588, symBinAddr: 0x100027ECC, symSize: 0x28 }
  - { offsetInCU: 0x58F3A, offset: 0x58F3A, size: 0x8, addend: 0x0, symName: __ZNSt3__116allocator_traitsINS_9allocatorIPNS_5tupleIJyyyPyEEEEEE10deallocateB8ue170006ERS6_PS5_m, symObjAddr: 0x275B0, symBinAddr: 0x100027EF4, symSize: 0x34 }
  - { offsetInCU: 0x58F7C, offset: 0x58F7C, size: 0x8, addend: 0x0, symName: __ZNKSt3__114__split_bufferIPNS_5tupleIJyyyPyEEERNS_9allocatorIS4_EEE8capacityB8ue170006Ev, symObjAddr: 0x275E4, symBinAddr: 0x100027F28, symSize: 0x40 }
  - { offsetInCU: 0x58FA2, offset: 0x58FA2, size: 0x8, addend: 0x0, symName: __ZNSt3__114__split_bufferIPNS_5tupleIJyyyPyEEERNS_9allocatorIS4_EEE17__destruct_at_endB8ue170006EPS4_, symObjAddr: 0x27624, symBinAddr: 0x100027F68, symSize: 0x2C }
  - { offsetInCU: 0x58FD6, offset: 0x58FD6, size: 0x8, addend: 0x0, symName: __ZNSt3__114__split_bufferIPNS_5tupleIJyyyPyEEERNS_9allocatorIS4_EEE17__destruct_at_endB8ue170006EPS4_NS_17integral_constantIbLb0EEE, symObjAddr: 0x27650, symBinAddr: 0x100027F94, symSize: 0x80 }
  - { offsetInCU: 0x59017, offset: 0x59017, size: 0x8, addend: 0x0, symName: __ZNSt3__116allocator_traitsINS_9allocatorIPNS_5tupleIJyyyPyEEEEEE7destroyB8ue170006IS5_vEEvRS6_PT_, symObjAddr: 0x276D0, symBinAddr: 0x100028014, symSize: 0x2C }
  - { offsetInCU: 0x59054, offset: 0x59054, size: 0x8, addend: 0x0, symName: __ZNSt3__19allocatorIPNS_5tupleIJyyyPyEEEE7destroyB8ue170006EPS4_, symObjAddr: 0x276FC, symBinAddr: 0x100028040, symSize: 0x14 }
  - { offsetInCU: 0x59088, offset: 0x59088, size: 0x8, addend: 0x0, symName: __ZNSt3__19allocatorIPNS_5tupleIJyyyPyEEEE10deallocateB8ue170006EPS4_m, symObjAddr: 0x27710, symBinAddr: 0x100028054, symSize: 0x40 }
  - { offsetInCU: 0x590CA, offset: 0x590CA, size: 0x8, addend: 0x0, symName: __ZNKSt3__114__split_bufferIPNS_5tupleIJyyyPyEEERNS_9allocatorIS4_EEE9__end_capB8ue170006Ev, symObjAddr: 0x27750, symBinAddr: 0x100028094, symSize: 0x28 }
  - { offsetInCU: 0x590F0, offset: 0x590F0, size: 0x8, addend: 0x0, symName: __ZNKSt3__117__compressed_pairIPPNS_5tupleIJyyyPyEEERNS_9allocatorIS4_EEE5firstB8ue170006Ev, symObjAddr: 0x27778, symBinAddr: 0x1000280BC, symSize: 0x24 }
  - { offsetInCU: 0x59116, offset: 0x59116, size: 0x8, addend: 0x0, symName: __ZNSt3__19allocatorINS_5tupleIJyyyPyEEEE9constructB8ue170006IS3_JS3_EEEvPT_DpOT0_, symObjAddr: 0x2779C, symBinAddr: 0x1000280E0, symSize: 0x30 }
  - { offsetInCU: 0x5916C, offset: 0x5916C, size: 0x8, addend: 0x0, symName: __ZNKSt3__114__split_bufferIPNS_5tupleIJyyyPyEEENS_9allocatorIS4_EEE5emptyB8ue170006Ev, symObjAddr: 0x277CC, symBinAddr: 0x100028110, symSize: 0x28 }
  - { offsetInCU: 0x59192, offset: 0x59192, size: 0x8, addend: 0x0, symName: __ZNSt3__116__deque_iteratorINS_5tupleIJyyyPyEEEPS3_RS3_PS4_lLl128EEC1B8ue170006ES6_S4_, symObjAddr: 0x277F4, symBinAddr: 0x100028138, symSize: 0x3C }
  - { offsetInCU: 0x591DA, offset: 0x591DA, size: 0x8, addend: 0x0, symName: __ZNSt3__116__deque_iteratorINS_5tupleIJyyyPyEEEPS3_RS3_PS4_lLl128EEC2B8ue170006ES6_S4_, symObjAddr: 0x27830, symBinAddr: 0x100028174, symSize: 0x2C }
  - { offsetInCU: 0x59222, offset: 0x59222, size: 0x8, addend: 0x0, symName: __ZNSt3__117__compressed_pairImNS_9allocatorINS_5tupleIJyyyPyEEEEEE5firstB8ue170006Ev, symObjAddr: 0x2785C, symBinAddr: 0x1000281A0, symSize: 0x24 }
  - { offsetInCU: 0x59248, offset: 0x59248, size: 0x8, addend: 0x0, symName: __ZNSt3__15tupleIJyyyPyEEC2B8ue170006IJimRyRS1_ELi0EEEDpOT_, symObjAddr: 0x27880, symBinAddr: 0x1000281C4, symSize: 0x4C }
  - { offsetInCU: 0x592CE, offset: 0x592CE, size: 0x8, addend: 0x0, symName: __ZNSt3__112__tuple_implINS_15__tuple_indicesIJLm0ELm1ELm2ELm3EEEEJyyyPyEEC1B8ue170006IJLm0ELm1ELm2ELm3EEJyyyS3_EJEJEJimRyRS3_EEENS1_IJXspT_EEEENS_13__tuple_typesIJDpT0_EEENS1_IJXspT1_EEEENS9_IJDpT2_EEEDpOT3_, symObjAddr: 0x278CC, symBinAddr: 0x100028210, symSize: 0x4C }
  - { offsetInCU: 0x593C0, offset: 0x593C0, size: 0x8, addend: 0x0, symName: __ZNSt3__112__tuple_implINS_15__tuple_indicesIJLm0ELm1ELm2ELm3EEEEJyyyPyEEC2B8ue170006IJLm0ELm1ELm2ELm3EEJyyyS3_EJEJEJimRyRS3_EEENS1_IJXspT_EEEENS_13__tuple_typesIJDpT0_EEENS1_IJXspT1_EEEENS9_IJDpT2_EEEDpOT3_, symObjAddr: 0x27918, symBinAddr: 0x10002825C, symSize: 0x70 }
  - { offsetInCU: 0x594B2, offset: 0x594B2, size: 0x8, addend: 0x0, symName: __ZNSt3__112__tuple_leafILm0EyLb0EEC2B8ue170006IivEEOT_, symObjAddr: 0x27988, symBinAddr: 0x1000282CC, symSize: 0x24 }
  - { offsetInCU: 0x594F5, offset: 0x594F5, size: 0x8, addend: 0x0, symName: __ZNSt3__112__tuple_leafILm1EyLb0EEC2B8ue170006ImvEEOT_, symObjAddr: 0x279AC, symBinAddr: 0x1000282F0, symSize: 0x24 }
  - { offsetInCU: 0x59538, offset: 0x59538, size: 0x8, addend: 0x0, symName: __ZNSt3__112__tuple_leafILm2EyLb0EEC2B8ue170006IRyvEEOT_, symObjAddr: 0x279D0, symBinAddr: 0x100028314, symSize: 0x24 }
  - { offsetInCU: 0x5957B, offset: 0x5957B, size: 0x8, addend: 0x0, symName: __ZNSt3__112__tuple_leafILm3EPyLb0EEC2B8ue170006IRS1_vEEOT_, symObjAddr: 0x279F4, symBinAddr: 0x100028338, symSize: 0x24 }
  - { offsetInCU: 0x595BE, offset: 0x595BE, size: 0x8, addend: 0x0, symName: __ZNSt3__15dequeINS_5tupleIJyyyPyEEENS_9allocatorIS3_EEE5frontEv, symObjAddr: 0x27A18, symBinAddr: 0x10002835C, symSize: 0x50 }
  - { offsetInCU: 0x595E6, offset: 0x595E6, size: 0x8, addend: 0x0, symName: __ZNSt3__15tupleIJRyS1_S1_RPyEEC1B8ue170006INS_4_AndELi0EEES1_S1_S1_S3_, symObjAddr: 0x27A68, symBinAddr: 0x1000283AC, symSize: 0x4C }
  - { offsetInCU: 0x5965B, offset: 0x5965B, size: 0x8, addend: 0x0, symName: __ZNSt3__15tupleIJRyS1_S1_RPyEEC2B8ue170006INS_4_AndELi0EEES1_S1_S1_S3_, symObjAddr: 0x27AB4, symBinAddr: 0x1000283F8, symSize: 0x4C }
  - { offsetInCU: 0x596D0, offset: 0x596D0, size: 0x8, addend: 0x0, symName: __ZNSt3__112__tuple_implINS_15__tuple_indicesIJLm0ELm1ELm2ELm3EEEEJRyS3_S3_RPyEEC1B8ue170006IJLm0ELm1ELm2ELm3EEJS3_S3_S3_S5_EJEJEJS3_S3_S3_S5_EEENS1_IJXspT_EEEENS_13__tuple_typesIJDpT0_EEENS1_IJXspT1_EEEENS9_IJDpT2_EEEDpOT3_, symObjAddr: 0x27B00, symBinAddr: 0x100028444, symSize: 0x4C }
  - { offsetInCU: 0x597C2, offset: 0x597C2, size: 0x8, addend: 0x0, symName: __ZNSt3__112__tuple_implINS_15__tuple_indicesIJLm0ELm1ELm2ELm3EEEEJRyS3_S3_RPyEEC2B8ue170006IJLm0ELm1ELm2ELm3EEJS3_S3_S3_S5_EJEJEJS3_S3_S3_S5_EEENS1_IJXspT_EEEENS_13__tuple_typesIJDpT0_EEENS1_IJXspT1_EEEENS9_IJDpT2_EEEDpOT3_, symObjAddr: 0x27B4C, symBinAddr: 0x100028490, symSize: 0x70 }
  - { offsetInCU: 0x598B4, offset: 0x598B4, size: 0x8, addend: 0x0, symName: __ZNSt3__112__tuple_leafILm0ERyLb0EEC2B8ue170006IS1_vEEOT_, symObjAddr: 0x27BBC, symBinAddr: 0x100028500, symSize: 0x20 }
  - { offsetInCU: 0x598F7, offset: 0x598F7, size: 0x8, addend: 0x0, symName: __ZNSt3__112__tuple_leafILm1ERyLb0EEC2B8ue170006IS1_vEEOT_, symObjAddr: 0x27BDC, symBinAddr: 0x100028520, symSize: 0x20 }
  - { offsetInCU: 0x5993A, offset: 0x5993A, size: 0x8, addend: 0x0, symName: __ZNSt3__112__tuple_leafILm2ERyLb0EEC2B8ue170006IS1_vEEOT_, symObjAddr: 0x27BFC, symBinAddr: 0x100028540, symSize: 0x20 }
  - { offsetInCU: 0x5997D, offset: 0x5997D, size: 0x8, addend: 0x0, symName: __ZNSt3__112__tuple_leafILm3ERPyLb0EEC2B8ue170006IS2_vEEOT_, symObjAddr: 0x27C1C, symBinAddr: 0x100028560, symSize: 0x20 }
  - { offsetInCU: 0x599C0, offset: 0x599C0, size: 0x8, addend: 0x0, symName: __ZNKSt3__112__tuple_leafILm0EyLb0EE3getB8ue170006Ev, symObjAddr: 0x27E70, symBinAddr: 0x1000287B4, symSize: 0x14 }
  - { offsetInCU: 0x599E6, offset: 0x599E6, size: 0x8, addend: 0x0, symName: __ZNSt3__112__tuple_leafILm0ERyLb0EE3getB8ue170006Ev, symObjAddr: 0x27E84, symBinAddr: 0x1000287C8, symSize: 0x18 }
  - { offsetInCU: 0x59A0C, offset: 0x59A0C, size: 0x8, addend: 0x0, symName: __ZNKSt3__112__tuple_leafILm1EyLb0EE3getB8ue170006Ev, symObjAddr: 0x27E9C, symBinAddr: 0x1000287E0, symSize: 0x14 }
  - { offsetInCU: 0x59A32, offset: 0x59A32, size: 0x8, addend: 0x0, symName: __ZNSt3__112__tuple_leafILm1ERyLb0EE3getB8ue170006Ev, symObjAddr: 0x27EB0, symBinAddr: 0x1000287F4, symSize: 0x18 }
  - { offsetInCU: 0x59A58, offset: 0x59A58, size: 0x8, addend: 0x0, symName: __ZNKSt3__112__tuple_leafILm2EyLb0EE3getB8ue170006Ev, symObjAddr: 0x27EC8, symBinAddr: 0x10002880C, symSize: 0x14 }
  - { offsetInCU: 0x59A7E, offset: 0x59A7E, size: 0x8, addend: 0x0, symName: __ZNSt3__112__tuple_leafILm2ERyLb0EE3getB8ue170006Ev, symObjAddr: 0x27EDC, symBinAddr: 0x100028820, symSize: 0x18 }
  - { offsetInCU: 0x59AA4, offset: 0x59AA4, size: 0x8, addend: 0x0, symName: __ZNKSt3__112__tuple_leafILm3EPyLb0EE3getB8ue170006Ev, symObjAddr: 0x27EF4, symBinAddr: 0x100028838, symSize: 0x14 }
  - { offsetInCU: 0x59ACA, offset: 0x59ACA, size: 0x8, addend: 0x0, symName: __ZNSt3__112__tuple_leafILm3ERPyLb0EE3getB8ue170006Ev, symObjAddr: 0x27F08, symBinAddr: 0x10002884C, symSize: 0x18 }
  - { offsetInCU: 0x59AF0, offset: 0x59AF0, size: 0x8, addend: 0x0, symName: __ZNSt3__15dequeINS_5tupleIJyyyPyEEENS_9allocatorIS3_EEE9pop_frontEv, symObjAddr: 0x27F20, symBinAddr: 0x100028864, symSize: 0xD4 }
  - { offsetInCU: 0x59B45, offset: 0x59B45, size: 0x8, addend: 0x0, symName: __ZNSt3__116allocator_traitsINS_9allocatorINS_5tupleIJyyyPyEEEEEE7destroyB8ue170006IS4_vEEvRS5_PT_, symObjAddr: 0x27FF4, symBinAddr: 0x100028938, symSize: 0x2C }
  - { offsetInCU: 0x59B82, offset: 0x59B82, size: 0x8, addend: 0x0, symName: __ZNKSt3__15dequeINS_5tupleIJyyyPyEEENS_9allocatorIS3_EEE23__annotate_shrink_frontB8ue170006Emm, symObjAddr: 0x28020, symBinAddr: 0x100028964, symSize: 0x70 }
  - { offsetInCU: 0x59BC6, offset: 0x59BC6, size: 0x8, addend: 0x0, symName: __ZNSt3__15dequeINS_5tupleIJyyyPyEEENS_9allocatorIS3_EEE26__maybe_remove_front_spareB8ue170006Eb, symObjAddr: 0x28090, symBinAddr: 0x1000289D4, symSize: 0xEC }
  - { offsetInCU: 0x59BFB, offset: 0x59BFB, size: 0x8, addend: 0x0, symName: __ZNSt3__19allocatorINS_5tupleIJyyyPyEEEE7destroyB8ue170006EPS3_, symObjAddr: 0x2817C, symBinAddr: 0x100028AC0, symSize: 0x14 }
  - { offsetInCU: 0x59C2F, offset: 0x59C2F, size: 0x8, addend: 0x0, symName: __ZNKSt3__15dequeINS_5tupleIJyyyPyEEENS_9allocatorIS3_EEE20__front_spare_blocksB8ue170006Ev, symObjAddr: 0x28190, symBinAddr: 0x100028AD4, symSize: 0x2C }
  - { offsetInCU: 0x59C55, offset: 0x59C55, size: 0x8, addend: 0x0, symName: __ZNSt3__15tupleIJyyyPyEEC2B8ue170006IJRyS4_yRS1_ELi0EEEDpOT_, symObjAddr: 0x281BC, symBinAddr: 0x100028B00, symSize: 0x4C }
  - { offsetInCU: 0x59CDB, offset: 0x59CDB, size: 0x8, addend: 0x0, symName: __ZNSt3__112__tuple_implINS_15__tuple_indicesIJLm0ELm1ELm2ELm3EEEEJyyyPyEEC1B8ue170006IJLm0ELm1ELm2ELm3EEJyyyS3_EJEJEJRyS6_yRS3_EEENS1_IJXspT_EEEENS_13__tuple_typesIJDpT0_EEENS1_IJXspT1_EEEENS9_IJDpT2_EEEDpOT3_, symObjAddr: 0x28208, symBinAddr: 0x100028B4C, symSize: 0x4C }
  - { offsetInCU: 0x59DCD, offset: 0x59DCD, size: 0x8, addend: 0x0, symName: __ZNSt3__112__tuple_implINS_15__tuple_indicesIJLm0ELm1ELm2ELm3EEEEJyyyPyEEC2B8ue170006IJLm0ELm1ELm2ELm3EEJyyyS3_EJEJEJRyS6_yRS3_EEENS1_IJXspT_EEEENS_13__tuple_typesIJDpT0_EEENS1_IJXspT1_EEEENS9_IJDpT2_EEEDpOT3_, symObjAddr: 0x28254, symBinAddr: 0x100028B98, symSize: 0x70 }
  - { offsetInCU: 0x59EBF, offset: 0x59EBF, size: 0x8, addend: 0x0, symName: __ZNSt3__112__tuple_leafILm0EyLb0EEC2B8ue170006IRyvEEOT_, symObjAddr: 0x282C4, symBinAddr: 0x100028C08, symSize: 0x24 }
  - { offsetInCU: 0x59F02, offset: 0x59F02, size: 0x8, addend: 0x0, symName: __ZNSt3__112__tuple_leafILm1EyLb0EEC2B8ue170006IRyvEEOT_, symObjAddr: 0x282E8, symBinAddr: 0x100028C2C, symSize: 0x24 }
  - { offsetInCU: 0x59F45, offset: 0x59F45, size: 0x8, addend: 0x0, symName: __ZNSt3__112__tuple_leafILm2EyLb0EEC2B8ue170006IyvEEOT_, symObjAddr: 0x2830C, symBinAddr: 0x100028C50, symSize: 0x24 }
  - { offsetInCU: 0x59F88, offset: 0x59F88, size: 0x8, addend: 0x0, symName: __ZNKSt3__111__wrap_iterIPNS_6vectorIyNS_9allocatorIyEEEEEdeB8ue170006Ev, symObjAddr: 0x2835C, symBinAddr: 0x100028CA0, symSize: 0x18 }
  - { offsetInCU: 0x59FAE, offset: 0x59FAE, size: 0x8, addend: 0x0, symName: __ZNSt3__16vectorIyNS_9allocatorIyEEE4swapERS3_, symObjAddr: 0x28374, symBinAddr: 0x100028CB8, symSize: 0x84 }
  - { offsetInCU: 0x59FE5, offset: 0x59FE5, size: 0x8, addend: 0x0, symName: __ZNSt3__16vectorINS0_IyNS_9allocatorIyEEEENS1_IS3_EEE11__make_iterB8ue170006EPS3_, symObjAddr: 0x2840C, symBinAddr: 0x100028D50, symSize: 0x30 }
  - { offsetInCU: 0x5A01A, offset: 0x5A01A, size: 0x8, addend: 0x0, symName: __ZNSt3__111__wrap_iterIPNS_6vectorIyNS_9allocatorIyEEEEEC1B8ue170006ES5_, symObjAddr: 0x2843C, symBinAddr: 0x100028D80, symSize: 0x34 }
  - { offsetInCU: 0x5A052, offset: 0x5A052, size: 0x8, addend: 0x0, symName: __ZNSt3__111__wrap_iterIPNS_6vectorIyNS_9allocatorIyEEEEEC2B8ue170006ES5_, symObjAddr: 0x28470, symBinAddr: 0x100028DB4, symSize: 0x20 }
  - { offsetInCU: 0x5A08A, offset: 0x5A08A, size: 0x8, addend: 0x0, symName: __ZNSt3__111__wrap_iterIPNS_6vectorIyNS_9allocatorIyEEEEEpLB8ue170006El, symObjAddr: 0x28490, symBinAddr: 0x100028DD4, symSize: 0x30 }
  - { offsetInCU: 0x5A0BE, offset: 0x5A0BE, size: 0x8, addend: 0x0, symName: __ZNSt3__15queueINS_5tupleIJyyyPyEEENS_5dequeIS3_NS_9allocatorIS3_EEEEED2Ev, symObjAddr: 0x284C0, symBinAddr: 0x100028E04, symSize: 0x2C }
  - { offsetInCU: 0x5A0EB, offset: 0x5A0EB, size: 0x8, addend: 0x0, symName: __ZNSt3__15dequeINS_5tupleIJyyyPyEEENS_9allocatorIS3_EEED1B8ue170006Ev, symObjAddr: 0x284EC, symBinAddr: 0x100028E30, symSize: 0x2C }
  - { offsetInCU: 0x5A115, offset: 0x5A115, size: 0x8, addend: 0x0, symName: __ZNSt3__15dequeINS_5tupleIJyyyPyEEENS_9allocatorIS3_EEED2B8ue170006Ev, symObjAddr: 0x28518, symBinAddr: 0x100028E5C, symSize: 0xA4 }
  - { offsetInCU: 0x5A16B, offset: 0x5A16B, size: 0x8, addend: 0x0, symName: __ZNSt3__15dequeINS_5tupleIJyyyPyEEENS_9allocatorIS3_EEE5clearEv, symObjAddr: 0x285BC, symBinAddr: 0x100028F00, symSize: 0x170 }
  - { offsetInCU: 0x5A1C6, offset: 0x5A1C6, size: 0x8, addend: 0x0, symName: __ZNKSt3__15dequeINS_5tupleIJyyyPyEEENS_9allocatorIS3_EEE17__annotate_deleteB8ue170006Ev, symObjAddr: 0x2872C, symBinAddr: 0x100029070, symSize: 0xE8 }
  - { offsetInCU: 0x5A209, offset: 0x5A209, size: 0x8, addend: 0x0, symName: __ZNSt3__114__split_bufferIPNS_5tupleIJyyyPyEEENS_9allocatorIS4_EEED1Ev, symObjAddr: 0x28814, symBinAddr: 0x100029158, symSize: 0x2C }
  - { offsetInCU: 0x5A235, offset: 0x5A235, size: 0x8, addend: 0x0, symName: __ZNSt3__15dequeINS_5tupleIJyyyPyEEENS_9allocatorIS3_EEE5beginB8ue170006Ev, symObjAddr: 0x28840, symBinAddr: 0x100029184, symSize: 0xA8 }
  - { offsetInCU: 0x5A26A, offset: 0x5A26A, size: 0x8, addend: 0x0, symName: __ZNSt3__116__deque_iteratorINS_5tupleIJyyyPyEEEPS3_RS3_PS4_lLl128EEppB8ue170006Ev, symObjAddr: 0x2891C, symBinAddr: 0x100029260, symSize: 0x70 }
  - { offsetInCU: 0x5A290, offset: 0x5A290, size: 0x8, addend: 0x0, symName: __ZNSt3__114__split_bufferIPNS_5tupleIJyyyPyEEENS_9allocatorIS4_EEED2Ev, symObjAddr: 0x289BC, symBinAddr: 0x100029300, symSize: 0x80 }
  - { offsetInCU: 0x5A2BC, offset: 0x5A2BC, size: 0x8, addend: 0x0, symName: __ZNSt3__114__split_bufferIPNS_5tupleIJyyyPyEEENS_9allocatorIS4_EEE5clearB8ue170006Ev, symObjAddr: 0x28A3C, symBinAddr: 0x100029380, symSize: 0x28 }
  - { offsetInCU: 0x5A2E2, offset: 0x5A2E2, size: 0x8, addend: 0x0, symName: __ZNSt3__114__split_bufferIPNS_5tupleIJyyyPyEEENS_9allocatorIS4_EEE17__destruct_at_endB8ue170006EPS4_, symObjAddr: 0x28A64, symBinAddr: 0x1000293A8, symSize: 0x2C }
  - { offsetInCU: 0x5A316, offset: 0x5A316, size: 0x8, addend: 0x0, symName: __ZNSt3__114__split_bufferIPNS_5tupleIJyyyPyEEENS_9allocatorIS4_EEE17__destruct_at_endB8ue170006EPS4_NS_17integral_constantIbLb0EEE, symObjAddr: 0x28A90, symBinAddr: 0x1000293D4, symSize: 0x80 }
  - { offsetInCU: 0x5A357, offset: 0x5A357, size: 0x8, addend: 0x0, symName: __ZNSt3__16vectorINS_4pairIyyEENS_9allocatorIS2_EEED2B8ue170006Ev, symObjAddr: 0x28B10, symBinAddr: 0x100029454, symSize: 0x40 }
  - { offsetInCU: 0x5A381, offset: 0x5A381, size: 0x8, addend: 0x0, symName: __ZN10qdag_dfudsC2ERNSt3__16vectorINS1_IyNS0_9allocatorIyEEEENS2_IS4_EEEERS4_yhh, symObjAddr: 0x28B50, symBinAddr: 0x100029494, symSize: 0x400 }
  - { offsetInCU: 0x5A433, offset: 0x5A433, size: 0x8, addend: 0x0, symName: __ZN17se_quadtree_dfudsC1ERNSt3__16vectorINS1_IyNS0_9allocatorIyEEEENS2_IS4_EEEEyhh, symObjAddr: 0x28F50, symBinAddr: 0x100029894, symSize: 0x4C }
  - { offsetInCU: 0x5A499, offset: 0x5A499, size: 0x8, addend: 0x0, symName: __ZN17se_quadtree_dfudsC2ERNSt3__16vectorINS1_IyNS0_9allocatorIyEEEENS2_IS4_EEEEyhh, symObjAddr: 0x28F9C, symBinAddr: 0x1000298E0, symSize: 0x8C }
  - { offsetInCU: 0x5A4FF, offset: 0x5A4FF, size: 0x8, addend: 0x0, symName: __ZN3asu18bp_support_sada_v2ILj256ELj32EN4sdsl15rank_support_v5ILh1ELh1EEENS1_18select_support_mclILh1ELh1EEEEC1Ev, symObjAddr: 0x29028, symBinAddr: 0x10002996C, symSize: 0x2C }
  - { offsetInCU: 0x5A529, offset: 0x5A529, size: 0x8, addend: 0x0, symName: __ZN17se_quadtree_dfuds20build_from_edges_dfsERNSt3__16vectorINS1_IyNS0_9allocatorIyEEEENS2_IS4_EEEEyhh, symObjAddr: 0x29054, symBinAddr: 0x100029998, symSize: 0x12CC }
  - { offsetInCU: 0x5A7DF, offset: 0x5A7DF, size: 0x8, addend: 0x0, symName: __ZN3asu18bp_support_sada_v2ILj256ELj32EN4sdsl15rank_support_v5ILh1ELh1EEENS1_18select_support_mclILh1ELh1EEEED1Ev, symObjAddr: 0x2A320, symBinAddr: 0x10002AC64, symSize: 0x2C }
  - { offsetInCU: 0x5A80B, offset: 0x5A80B, size: 0x8, addend: 0x0, symName: __ZN3asu18bp_support_sada_v2ILj256ELj32EN4sdsl15rank_support_v5ILh1ELh1EEENS1_18select_support_mclILh1ELh1EEEEC2Ev, symObjAddr: 0x2A34C, symBinAddr: 0x10002AC90, symSize: 0x114 }
  - { offsetInCU: 0x5A835, offset: 0x5A835, size: 0x8, addend: 0x0, symName: __ZN4sdsl15rank_support_v5ILh1ELh1EEC1EPKNS_10int_vectorILh1EEE, symObjAddr: 0x2A460, symBinAddr: 0x10002ADA4, symSize: 0x34 }
  - { offsetInCU: 0x5A86D, offset: 0x5A86D, size: 0x8, addend: 0x0, symName: __ZN4sdsl18select_support_mclILh1ELh1EEC1EPKNS_10int_vectorILh1EEE, symObjAddr: 0x2A494, symBinAddr: 0x10002ADD8, symSize: 0x34 }
  - { offsetInCU: 0x5A8A6, offset: 0x5A8A6, size: 0x8, addend: 0x0, symName: __ZN4sdsl10int_vectorILh0EEC1Ey, symObjAddr: 0x2A4C8, symBinAddr: 0x10002AE0C, symSize: 0x3C }
  - { offsetInCU: 0x5A8DF, offset: 0x5A8DF, size: 0x8, addend: 0x0, symName: __ZN4sdsl18select_support_mclILh1ELh1EED1Ev, symObjAddr: 0x2A504, symBinAddr: 0x10002AE48, symSize: 0x2C }
  - { offsetInCU: 0x5A90A, offset: 0x5A90A, size: 0x8, addend: 0x0, symName: __ZN4sdsl15rank_support_v5ILh1ELh1EED1Ev, symObjAddr: 0x2A530, symBinAddr: 0x10002AE74, symSize: 0x2C }
  - { offsetInCU: 0x5A936, offset: 0x5A936, size: 0x8, addend: 0x0, symName: __ZN4sdsl15rank_support_v5ILh1ELh1EEC2EPKNS_10int_vectorILh1EEE, symObjAddr: 0x2A55C, symBinAddr: 0x10002AEA0, symSize: 0x550 }
  - { offsetInCU: 0x5A9EC, offset: 0x5A9EC, size: 0x8, addend: 0x0, symName: __ZN4sdsl12rank_supportC2EPKNS_10int_vectorILh1EEE, symObjAddr: 0x2AAAC, symBinAddr: 0x10002B3F0, symSize: 0x30 }
  - { offsetInCU: 0x5AA25, offset: 0x5AA25, size: 0x8, addend: 0x0, symName: __ZN4sdsl10int_vectorILh64EEC1Ey, symObjAddr: 0x2AADC, symBinAddr: 0x10002B420, symSize: 0x3C }
  - { offsetInCU: 0x5AA5E, offset: 0x5AA5E, size: 0x8, addend: 0x0, symName: __ZN4sdsl10int_vectorILh64EEC1Eyyh, symObjAddr: 0x2AB18, symBinAddr: 0x10002B45C, symSize: 0x44 }
  - { offsetInCU: 0x5AAB7, offset: 0x5AAB7, size: 0x8, addend: 0x0, symName: __ZN4sdsl10int_vectorILh64EEaSEOS1_, symObjAddr: 0x2AB5C, symBinAddr: 0x10002B4A0, symSize: 0x34 }
  - { offsetInCU: 0x5AAEE, offset: 0x5AAEE, size: 0x8, addend: 0x0, symName: __ZN4sdsl10int_vectorILh64EED1Ev, symObjAddr: 0x2AB90, symBinAddr: 0x10002B4D4, symSize: 0x2C }
  - { offsetInCU: 0x5AB1A, offset: 0x5AB1A, size: 0x8, addend: 0x0, symName: __ZN4sdsl10int_vectorILh64EE6resizeEy, symObjAddr: 0x2ABBC, symBinAddr: 0x10002B500, symSize: 0x50 }
  - { offsetInCU: 0x5AB4F, offset: 0x5AB4F, size: 0x8, addend: 0x0, symName: __ZNK4sdsl10int_vectorILh64EE5emptyEv, symObjAddr: 0x2AC0C, symBinAddr: 0x10002B550, symSize: 0x28 }
  - { offsetInCU: 0x5AB75, offset: 0x5AB75, size: 0x8, addend: 0x0, symName: __ZN4sdsl10int_vectorILh64EEixERKy, symObjAddr: 0x2AC34, symBinAddr: 0x10002B578, symSize: 0x28 }
  - { offsetInCU: 0x5ABAA, offset: 0x5ABAA, size: 0x8, addend: 0x0, symName: __ZN4sdsl18rank_support_traitILh1ELh1EE10init_carryEv, symObjAddr: 0x2AC5C, symBinAddr: 0x10002B5A0, symSize: 0x8 }
  - { offsetInCU: 0x5ABBE, offset: 0x5ABBE, size: 0x8, addend: 0x0, symName: __ZN4sdsl18rank_support_traitILh1ELh1EE16args_in_the_wordEyRy, symObjAddr: 0x2AC64, symBinAddr: 0x10002B5A8, symSize: 0x28 }
  - { offsetInCU: 0x5ABEC, offset: 0x5ABEC, size: 0x8, addend: 0x0, symName: __ZN4sdsl12rank_supportD2Ev, symObjAddr: 0x2AC8C, symBinAddr: 0x10002B5D0, symSize: 0x14 }
  - { offsetInCU: 0x5AC16, offset: 0x5AC16, size: 0x8, addend: 0x0, symName: __ZN4sdsl15rank_support_v5ILh1ELh1EED0Ev, symObjAddr: 0x2ACA0, symBinAddr: 0x10002B5E4, symSize: 0x30 }
  - { offsetInCU: 0x5AC42, offset: 0x5AC42, size: 0x8, addend: 0x0, symName: __ZNK4sdsl15rank_support_v5ILh1ELh1EE4rankEy, symObjAddr: 0x2ACD0, symBinAddr: 0x10002B614, symSize: 0x140 }
  - { offsetInCU: 0x5ACA0, offset: 0x5ACA0, size: 0x8, addend: 0x0, symName: __ZNK4sdsl15rank_support_v5ILh1ELh1EE9serializeERNSt3__113basic_ostreamIcNS2_11char_traitsIcEEEEPNS_19structure_tree_nodeENS2_12basic_stringIcS5_NS2_9allocatorIcEEEE, symObjAddr: 0x2AE10, symBinAddr: 0x10002B754, symSize: 0x128 }
  - { offsetInCU: 0x5AD0D, offset: 0x5AD0D, size: 0x8, addend: 0x0, symName: __ZN4sdsl15rank_support_v5ILh1ELh1EE4loadERNSt3__113basic_istreamIcNS2_11char_traitsIcEEEEPKNS_10int_vectorILh1EEE, symObjAddr: 0x2AF38, symBinAddr: 0x10002B87C, symSize: 0x4C }
  - { offsetInCU: 0x5AD4F, offset: 0x5AD4F, size: 0x8, addend: 0x0, symName: __ZN4sdsl15rank_support_v5ILh1ELh1EE10set_vectorEPKNS_10int_vectorILh1EEE, symObjAddr: 0x2AF84, symBinAddr: 0x10002B8C8, symSize: 0x20 }
  - { offsetInCU: 0x5AD83, offset: 0x5AD83, size: 0x8, addend: 0x0, symName: __ZN4sdsl12rank_supportD1Ev, symObjAddr: 0x2AFA4, symBinAddr: 0x10002B8E8, symSize: 0x14 }
  - { offsetInCU: 0x5ADAD, offset: 0x5ADAD, size: 0x8, addend: 0x0, symName: __ZN4sdsl12rank_supportD0Ev, symObjAddr: 0x2AFB8, symBinAddr: 0x10002B8FC, symSize: 0xC }
  - { offsetInCU: 0x5ADD7, offset: 0x5ADD7, size: 0x8, addend: 0x0, symName: __ZN4sdsl10int_vectorILh64EEC2Eyyh, symObjAddr: 0x2AFC4, symBinAddr: 0x10002B908, symSize: 0x70 }
  - { offsetInCU: 0x5AE30, offset: 0x5AE30, size: 0x8, addend: 0x0, symName: __ZN4sdsl10int_vectorILh64EE11raw_wrapperC1ERKS1_, symObjAddr: 0x2B034, symBinAddr: 0x10002B978, symSize: 0x34 }
  - { offsetInCU: 0x5AE69, offset: 0x5AE69, size: 0x8, addend: 0x0, symName: __ZN4sdsl10int_vectorILh64EE5widthEh, symObjAddr: 0x2B068, symBinAddr: 0x10002B9AC, symSize: 0x30 }
  - { offsetInCU: 0x5AE9E, offset: 0x5AE9E, size: 0x8, addend: 0x0, symName: __ZN4sdsl10int_vectorILh64EE11raw_wrapperC2ERKS1_, symObjAddr: 0x2B39C, symBinAddr: 0x10002BCE0, symSize: 0x20 }
  - { offsetInCU: 0x5AED7, offset: 0x5AED7, size: 0x8, addend: 0x0, symName: __ZN4sdsl16int_vector_traitILh64EE9set_widthEhh, symObjAddr: 0x2B3BC, symBinAddr: 0x10002BD00, symSize: 0x14 }
  - { offsetInCU: 0x5AF02, offset: 0x5AF02, size: 0x8, addend: 0x0, symName: __ZN4sdsl10int_vectorILh64EE4dataEv, symObjAddr: 0x2B3D0, symBinAddr: 0x10002BD14, symSize: 0x18 }
  - { offsetInCU: 0x5AF28, offset: 0x5AF28, size: 0x8, addend: 0x0, symName: __ZNK4sdsl10int_vectorILh64EE5widthEv, symObjAddr: 0x2B3E8, symBinAddr: 0x10002BD2C, symSize: 0x18 }
  - { offsetInCU: 0x5AF4E, offset: 0x5AF4E, size: 0x8, addend: 0x0, symName: __ZNK4sdsl10int_vectorILh64EE8capacityEv, symObjAddr: 0x2B538, symBinAddr: 0x10002BE7C, symSize: 0x24 }
  - { offsetInCU: 0x5AF74, offset: 0x5AF74, size: 0x8, addend: 0x0, symName: __ZN4sdsl10int_vectorILh64EE4swapERS1_, symObjAddr: 0x2B55C, symBinAddr: 0x10002BEA0, symSize: 0xA4 }
  - { offsetInCU: 0x5AFE6, offset: 0x5AFE6, size: 0x8, addend: 0x0, symName: __ZN4sdsl10int_vectorILh64EED2Ev, symObjAddr: 0x2B600, symBinAddr: 0x10002BF44, symSize: 0x34 }
  - { offsetInCU: 0x5B012, offset: 0x5B012, size: 0x8, addend: 0x0, symName: __ZN4sdsl14memory_manager5clearINS_10int_vectorILh64EEEEEvRT_, symObjAddr: 0x2B634, symBinAddr: 0x10002BF78, symSize: 0x70 }
  - { offsetInCU: 0x5B04E, offset: 0x5B04E, size: 0x8, addend: 0x0, symName: __ZN4sdsl10int_vectorILh64EE10bit_resizeEy, symObjAddr: 0x2B6A4, symBinAddr: 0x10002BFE8, symSize: 0x2C }
  - { offsetInCU: 0x5B08A, offset: 0x5B08A, size: 0x8, addend: 0x0, symName: __ZN4sdsl14memory_manager6resizeINS_10int_vectorILh64EEEEEvRT_NS4_9size_typeE, symObjAddr: 0x2B6D0, symBinAddr: 0x10002C014, symSize: 0x21C }
  - { offsetInCU: 0x5B13C, offset: 0x5B13C, size: 0x8, addend: 0x0, symName: __ZNK4sdsl10int_vectorILh64EE8bit_sizeEv, symObjAddr: 0x2B8EC, symBinAddr: 0x10002C230, symSize: 0x18 }
  - { offsetInCU: 0x5B162, offset: 0x5B162, size: 0x8, addend: 0x0, symName: __ZNK4sdsl10int_vectorILh64EE4dataEv, symObjAddr: 0x2B904, symBinAddr: 0x10002C248, symSize: 0x18 }
  - { offsetInCU: 0x5B188, offset: 0x5B188, size: 0x8, addend: 0x0, symName: __ZN4sdsl18rank_support_traitILh1ELh1EE9word_rankEPKyy, symObjAddr: 0x2B91C, symBinAddr: 0x10002C260, symSize: 0x4C }
  - { offsetInCU: 0x5B1B9, offset: 0x5B1B9, size: 0x8, addend: 0x0, symName: __ZN4sdsl18rank_support_traitILh1ELh1EE14full_word_rankEPKyy, symObjAddr: 0x2B968, symBinAddr: 0x10002C2AC, symSize: 0x34 }
  - { offsetInCU: 0x5B1EA, offset: 0x5B1EA, size: 0x8, addend: 0x0, symName: __ZN4sdsl14structure_tree9add_childEPNS_19structure_tree_nodeERKNSt3__112basic_stringIcNS3_11char_traitsIcEENS3_9allocatorIcEEEESB_, symObjAddr: 0x2B99C, symBinAddr: 0x10002C2E0, symSize: 0x5C }
  - { offsetInCU: 0x5B229, offset: 0x5B229, size: 0x8, addend: 0x0, symName: __ZNK4sdsl10int_vectorILh64EE9serializeERNSt3__113basic_ostreamIcNS2_11char_traitsIcEEEEPNS_19structure_tree_nodeENS2_12basic_stringIcS5_NS2_9allocatorIcEEEEb, symObjAddr: 0x2BB20, symBinAddr: 0x10002C464, symSize: 0x118 }
  - { offsetInCU: 0x5B2AC, offset: 0x5B2AC, size: 0x8, addend: 0x0, symName: __ZN4sdsl14structure_tree8add_sizeEPNS_19structure_tree_nodeEy, symObjAddr: 0x2BC38, symBinAddr: 0x10002C57C, symSize: 0x44 }
  - { offsetInCU: 0x5B2DD, offset: 0x5B2DD, size: 0x8, addend: 0x0, symName: __ZN4sdsl19structure_tree_node9add_childERKNSt3__112basic_stringIcNS1_11char_traitsIcEENS1_9allocatorIcEEEES9_, symObjAddr: 0x2BC7C, symBinAddr: 0x10002C5C0, symSize: 0x19C }
  - { offsetInCU: 0x5B350, offset: 0x5B350, size: 0x8, addend: 0x0, symName: __ZNSt3__113unordered_mapINS_12basic_stringIcNS_11char_traitsIcEENS_9allocatorIcEEEENS_10unique_ptrIN4sdsl19structure_tree_nodeENS_14default_deleteIS9_EEEENS_4hashIS6_EENS_8equal_toIS6_EENS4_INS_4pairIKS6_SC_EEEEE4findB8ue170006ERSI_, symObjAddr: 0x2BF4C, symBinAddr: 0x10002C890, symSize: 0x40 }
  - { offsetInCU: 0x5B385, offset: 0x5B385, size: 0x8, addend: 0x0, symName: __ZNSt3__113unordered_mapINS_12basic_stringIcNS_11char_traitsIcEENS_9allocatorIcEEEENS_10unique_ptrIN4sdsl19structure_tree_nodeENS_14default_deleteIS9_EEEENS_4hashIS6_EENS_8equal_toIS6_EENS4_INS_4pairIKS6_SC_EEEEE3endB8ue170006Ev, symObjAddr: 0x2BFBC, symBinAddr: 0x10002C900, symSize: 0x38 }
  - { offsetInCU: 0x5B3AB, offset: 0x5B3AB, size: 0x8, addend: 0x0, symName: __ZN4sdsl19structure_tree_nodeC1ERKNSt3__112basic_stringIcNS1_11char_traitsIcEENS1_9allocatorIcEEEES9_, symObjAddr: 0x2BFF4, symBinAddr: 0x10002C938, symSize: 0x3C }
  - { offsetInCU: 0x5B3F1, offset: 0x5B3F1, size: 0x8, addend: 0x0, symName: __ZNSt3__110unique_ptrIN4sdsl19structure_tree_nodeENS_14default_deleteIS2_EEEC1B8ue170006ILb1EvEEPS2_, symObjAddr: 0x2C030, symBinAddr: 0x10002C974, symSize: 0x34 }
  - { offsetInCU: 0x5B434, offset: 0x5B434, size: 0x8, addend: 0x0, symName: __ZNSt3__113unordered_mapINS_12basic_stringIcNS_11char_traitsIcEENS_9allocatorIcEEEENS_10unique_ptrIN4sdsl19structure_tree_nodeENS_14default_deleteIS9_EEEENS_4hashIS6_EENS_8equal_toIS6_EENS4_INS_4pairIKS6_SC_EEEEEixERSI_, symObjAddr: 0x2C064, symBinAddr: 0x10002C9A8, symSize: 0x80 }
  - { offsetInCU: 0x5B46B, offset: 0x5B46B, size: 0x8, addend: 0x0, symName: __ZNSt3__110unique_ptrIN4sdsl19structure_tree_nodeENS_14default_deleteIS2_EEEaSB8ue170006EOS5_, symObjAddr: 0x2C0E4, symBinAddr: 0x10002CA28, symSize: 0x50 }
  - { offsetInCU: 0x5B49F, offset: 0x5B49F, size: 0x8, addend: 0x0, symName: __ZNSt3__110unique_ptrIN4sdsl19structure_tree_nodeENS_14default_deleteIS2_EEED1B8ue170006Ev, symObjAddr: 0x2C134, symBinAddr: 0x10002CA78, symSize: 0x2C }
  - { offsetInCU: 0x5B4C9, offset: 0x5B4C9, size: 0x8, addend: 0x0, symName: __ZNKSt3__119__hash_map_iteratorINS_15__hash_iteratorIPNS_11__hash_nodeINS_17__hash_value_typeINS_12basic_stringIcNS_11char_traitsIcEENS_9allocatorIcEEEENS_10unique_ptrIN4sdsl19structure_tree_nodeENS_14default_deleteISC_EEEEEEPvEEEEEdeB8ue170006Ev, symObjAddr: 0x2C160, symBinAddr: 0x10002CAA4, symSize: 0x28 }
  - { offsetInCU: 0x5B4EF, offset: 0x5B4EF, size: 0x8, addend: 0x0, symName: __ZNKSt3__110unique_ptrIN4sdsl19structure_tree_nodeENS_14default_deleteIS2_EEE3getB8ue170006Ev, symObjAddr: 0x2C188, symBinAddr: 0x10002CACC, symSize: 0x28 }
  - { offsetInCU: 0x5B515, offset: 0x5B515, size: 0x8, addend: 0x0, symName: __ZNKSt3__112basic_stringIcNS_11char_traitsIcEENS_9allocatorIcEEE4sizeB8ue170006Ev, symObjAddr: 0x2C1B0, symBinAddr: 0x10002CAF4, symSize: 0x54 }
  - { offsetInCU: 0x5B546, offset: 0x5B546, size: 0x8, addend: 0x0, symName: __ZNSt3__116allocator_traitsINS_9allocatorIcEEE37select_on_container_copy_constructionB8ue170006IS2_vvEES2_RKS2_, symObjAddr: 0x2C204, symBinAddr: 0x10002CB48, symSize: 0x10 }
  - { offsetInCU: 0x5B575, offset: 0x5B575, size: 0x8, addend: 0x0, symName: __ZNKSt3__112basic_stringIcNS_11char_traitsIcEENS_9allocatorIcEEE13get_allocatorB8ue170006Ev, symObjAddr: 0x2C214, symBinAddr: 0x10002CB58, symSize: 0x24 }
  - { offsetInCU: 0x5B59B, offset: 0x5B59B, size: 0x8, addend: 0x0, symName: __ZNSt3__112basic_stringIcNS_11char_traitsIcEENS_9allocatorIcEEEC1B8ue170006ENS_24__uninitialized_size_tagEmRKS4_, symObjAddr: 0x2C238, symBinAddr: 0x10002CB7C, symSize: 0x3C }
  - { offsetInCU: 0x5B5EF, offset: 0x5B5EF, size: 0x8, addend: 0x0, symName: __ZNSt3__112basic_stringIcNS_11char_traitsIcEENS_9allocatorIcEEE13__get_pointerB8ue170006Ev, symObjAddr: 0x2C288, symBinAddr: 0x10002CBCC, symSize: 0x54 }
  - { offsetInCU: 0x5B615, offset: 0x5B615, size: 0x8, addend: 0x0, symName: __ZNSt3__111char_traitsIcE4copyB8ue170006EPcPKcm, symObjAddr: 0x2C2DC, symBinAddr: 0x10002CC20, symSize: 0x40 }
  - { offsetInCU: 0x5B654, offset: 0x5B654, size: 0x8, addend: 0x0, symName: __ZNKSt3__112basic_stringIcNS_11char_traitsIcEENS_9allocatorIcEEE4dataB8ue170006Ev, symObjAddr: 0x2C31C, symBinAddr: 0x10002CC60, symSize: 0x28 }
  - { offsetInCU: 0x5B67A, offset: 0x5B67A, size: 0x8, addend: 0x0, symName: __ZNSt3__111char_traitsIcE6assignB8ue170006EPcmc, symObjAddr: 0x2C344, symBinAddr: 0x10002CC88, symSize: 0x44 }
  - { offsetInCU: 0x5B6B9, offset: 0x5B6B9, size: 0x8, addend: 0x0, symName: __ZNKSt3__112basic_stringIcNS_11char_traitsIcEENS_9allocatorIcEEE9__is_longB8ue170006Ev, symObjAddr: 0x2C388, symBinAddr: 0x10002CCCC, symSize: 0x38 }
  - { offsetInCU: 0x5B6DF, offset: 0x5B6DF, size: 0x8, addend: 0x0, symName: __ZNKSt3__112basic_stringIcNS_11char_traitsIcEENS_9allocatorIcEEE15__get_long_sizeB8ue170006Ev, symObjAddr: 0x2C3C0, symBinAddr: 0x10002CD04, symSize: 0x28 }
  - { offsetInCU: 0x5B705, offset: 0x5B705, size: 0x8, addend: 0x0, symName: __ZNKSt3__112basic_stringIcNS_11char_traitsIcEENS_9allocatorIcEEE16__get_short_sizeB8ue170006Ev, symObjAddr: 0x2C3E8, symBinAddr: 0x10002CD2C, symSize: 0x34 }
  - { offsetInCU: 0x5B72B, offset: 0x5B72B, size: 0x8, addend: 0x0, symName: __ZNKSt3__117__compressed_pairINS_12basic_stringIcNS_11char_traitsIcEENS_9allocatorIcEEE5__repES5_E5firstB8ue170006Ev, symObjAddr: 0x2C41C, symBinAddr: 0x10002CD60, symSize: 0x24 }
  - { offsetInCU: 0x5B751, offset: 0x5B751, size: 0x8, addend: 0x0, symName: __ZNKSt3__122__compressed_pair_elemINS_12basic_stringIcNS_11char_traitsIcEENS_9allocatorIcEEE5__repELi0ELb0EE5__getB8ue170006Ev, symObjAddr: 0x2C440, symBinAddr: 0x10002CD84, symSize: 0x14 }
  - { offsetInCU: 0x5B777, offset: 0x5B777, size: 0x8, addend: 0x0, symName: __ZNKSt3__112basic_stringIcNS_11char_traitsIcEENS_9allocatorIcEEE7__allocB8ue170006Ev, symObjAddr: 0x2C454, symBinAddr: 0x10002CD98, symSize: 0x24 }
  - { offsetInCU: 0x5B79D, offset: 0x5B79D, size: 0x8, addend: 0x0, symName: __ZNKSt3__117__compressed_pairINS_12basic_stringIcNS_11char_traitsIcEENS_9allocatorIcEEE5__repES5_E6secondB8ue170006Ev, symObjAddr: 0x2C478, symBinAddr: 0x10002CDBC, symSize: 0x24 }
  - { offsetInCU: 0x5B7C3, offset: 0x5B7C3, size: 0x8, addend: 0x0, symName: __ZNKSt3__122__compressed_pair_elemINS_9allocatorIcEELi1ELb1EE5__getB8ue170006Ev, symObjAddr: 0x2C49C, symBinAddr: 0x10002CDE0, symSize: 0x14 }
  - { offsetInCU: 0x5B7E9, offset: 0x5B7E9, size: 0x8, addend: 0x0, symName: __ZNSt3__112basic_stringIcNS_11char_traitsIcEENS_9allocatorIcEEEC2B8ue170006ENS_24__uninitialized_size_tagEmRKS4_, symObjAddr: 0x2C4B0, symBinAddr: 0x10002CDF4, symSize: 0x110 }
  - { offsetInCU: 0x5B869, offset: 0x5B869, size: 0x8, addend: 0x0, symName: __ZNSt3__117__compressed_pairINS_12basic_stringIcNS_11char_traitsIcEENS_9allocatorIcEEE5__repES5_EC1B8ue170006INS_18__default_init_tagERKS5_EEOT_OT0_, symObjAddr: 0x2C5C0, symBinAddr: 0x10002CF04, symSize: 0x3C }
  - { offsetInCU: 0x5B8C1, offset: 0x5B8C1, size: 0x8, addend: 0x0, symName: __ZNKSt3__112basic_stringIcNS_11char_traitsIcEENS_9allocatorIcEEE8max_sizeB8ue170006Ev, symObjAddr: 0x2C5FC, symBinAddr: 0x10002CF40, symSize: 0xAC }
  - { offsetInCU: 0x5B913, offset: 0x5B913, size: 0x8, addend: 0x0, symName: __ZNKSt3__112basic_stringIcNS_11char_traitsIcEENS_9allocatorIcEEE20__throw_length_errorB8ue170006Ev, symObjAddr: 0x2C6A8, symBinAddr: 0x10002CFEC, symSize: 0x1C }
  - { offsetInCU: 0x5B939, offset: 0x5B939, size: 0x8, addend: 0x0, symName: __ZNSt3__112basic_stringIcNS_11char_traitsIcEENS_9allocatorIcEEE13__fits_in_ssoB8ue170006Em, symObjAddr: 0x2C6C4, symBinAddr: 0x10002D008, symSize: 0x20 }
  - { offsetInCU: 0x5B95D, offset: 0x5B95D, size: 0x8, addend: 0x0, symName: __ZNSt3__112basic_stringIcNS_11char_traitsIcEENS_9allocatorIcEEE16__set_short_sizeB8ue170006Em, symObjAddr: 0x2C6E4, symBinAddr: 0x10002D028, symSize: 0x78 }
  - { offsetInCU: 0x5B992, offset: 0x5B992, size: 0x8, addend: 0x0, symName: __ZNSt3__112basic_stringIcNS_11char_traitsIcEENS_9allocatorIcEEE11__recommendB8ue170006Em, symObjAddr: 0x2C75C, symBinAddr: 0x10002D0A0, symSize: 0x84 }
  - { offsetInCU: 0x5B9C5, offset: 0x5B9C5, size: 0x8, addend: 0x0, symName: __ZNSt3__116allocator_traitsINS_9allocatorIcEEE8allocateB8ue170006ERS2_m, symObjAddr: 0x2C7E0, symBinAddr: 0x10002D124, symSize: 0x2C }
  - { offsetInCU: 0x5B9F8, offset: 0x5B9F8, size: 0x8, addend: 0x0, symName: __ZNSt3__112basic_stringIcNS_11char_traitsIcEENS_9allocatorIcEEE7__allocB8ue170006Ev, symObjAddr: 0x2C80C, symBinAddr: 0x10002D150, symSize: 0x24 }
  - { offsetInCU: 0x5BA1E, offset: 0x5BA1E, size: 0x8, addend: 0x0, symName: __ZNSt3__112basic_stringIcNS_11char_traitsIcEENS_9allocatorIcEEE16__begin_lifetimeB8ue170006EPcm, symObjAddr: 0x2C830, symBinAddr: 0x10002D174, symSize: 0x14 }
  - { offsetInCU: 0x5BA51, offset: 0x5BA51, size: 0x8, addend: 0x0, symName: __ZNSt3__112basic_stringIcNS_11char_traitsIcEENS_9allocatorIcEEE14__set_long_capB8ue170006Em, symObjAddr: 0x2C844, symBinAddr: 0x10002D188, symSize: 0x70 }
  - { offsetInCU: 0x5BA86, offset: 0x5BA86, size: 0x8, addend: 0x0, symName: __ZNSt3__112basic_stringIcNS_11char_traitsIcEENS_9allocatorIcEEE18__set_long_pointerB8ue170006EPc, symObjAddr: 0x2C8B4, symBinAddr: 0x10002D1F8, symSize: 0x38 }
  - { offsetInCU: 0x5BABB, offset: 0x5BABB, size: 0x8, addend: 0x0, symName: __ZNSt3__112basic_stringIcNS_11char_traitsIcEENS_9allocatorIcEEE15__set_long_sizeB8ue170006Em, symObjAddr: 0x2C8EC, symBinAddr: 0x10002D230, symSize: 0x38 }
  - { offsetInCU: 0x5BAF0, offset: 0x5BAF0, size: 0x8, addend: 0x0, symName: __ZNSt3__117__compressed_pairINS_12basic_stringIcNS_11char_traitsIcEENS_9allocatorIcEEE5__repES5_EC2B8ue170006INS_18__default_init_tagERKS5_EEOT_OT0_, symObjAddr: 0x2C924, symBinAddr: 0x10002D268, symSize: 0x40 }
  - { offsetInCU: 0x5BB48, offset: 0x5BB48, size: 0x8, addend: 0x0, symName: __ZNSt3__122__compressed_pair_elemINS_12basic_stringIcNS_11char_traitsIcEENS_9allocatorIcEEE5__repELi0ELb0EEC2B8ue170006ENS_18__default_init_tagE, symObjAddr: 0x2C964, symBinAddr: 0x10002D2A8, symSize: 0x14 }
  - { offsetInCU: 0x5BB7D, offset: 0x5BB7D, size: 0x8, addend: 0x0, symName: __ZNSt3__122__compressed_pair_elemINS_9allocatorIcEELi1ELb1EEC2B8ue170006IRKS2_vEEOT_, symObjAddr: 0x2C978, symBinAddr: 0x10002D2BC, symSize: 0x18 }
  - { offsetInCU: 0x5BBBF, offset: 0x5BBBF, size: 0x8, addend: 0x0, symName: __ZNSt3__116allocator_traitsINS_9allocatorIcEEE8max_sizeB8ue170006IS2_vEEmRKS2_, symObjAddr: 0x2C990, symBinAddr: 0x10002D2D4, symSize: 0x24 }
  - { offsetInCU: 0x5BBED, offset: 0x5BBED, size: 0x8, addend: 0x0, symName: __ZNSt3__114numeric_limitsImE3maxB8ue170006Ev, symObjAddr: 0x2C9B4, symBinAddr: 0x10002D2F8, symSize: 0x14 }
  - { offsetInCU: 0x5BC01, offset: 0x5BC01, size: 0x8, addend: 0x0, symName: __ZNKSt3__19allocatorIcE8max_sizeB8ue170006Ev, symObjAddr: 0x2C9C8, symBinAddr: 0x10002D30C, symSize: 0x14 }
  - { offsetInCU: 0x5BC27, offset: 0x5BC27, size: 0x8, addend: 0x0, symName: __ZNSt3__123__libcpp_numeric_limitsImLb1EE3maxB8ue170006Ev, symObjAddr: 0x2C9DC, symBinAddr: 0x10002D320, symSize: 0x8 }
  - { offsetInCU: 0x5BC3B, offset: 0x5BC3B, size: 0x8, addend: 0x0, symName: __ZNSt3__112basic_stringIcNS_11char_traitsIcEENS_9allocatorIcEEE10__align_itB8ue170006ILm16EEEmm, symObjAddr: 0x2C9E4, symBinAddr: 0x10002D328, symSize: 0x1C }
  - { offsetInCU: 0x5BC69, offset: 0x5BC69, size: 0x8, addend: 0x0, symName: __ZNSt3__19allocatorIcE8allocateB8ue170006Em, symObjAddr: 0x2CA00, symBinAddr: 0x10002D344, symSize: 0x58 }
  - { offsetInCU: 0x5BC9D, offset: 0x5BC9D, size: 0x8, addend: 0x0, symName: __ZNSt3__117__compressed_pairINS_12basic_stringIcNS_11char_traitsIcEENS_9allocatorIcEEE5__repES5_E6secondB8ue170006Ev, symObjAddr: 0x2CA58, symBinAddr: 0x10002D39C, symSize: 0x24 }
  - { offsetInCU: 0x5BCC3, offset: 0x5BCC3, size: 0x8, addend: 0x0, symName: __ZNSt3__122__compressed_pair_elemINS_9allocatorIcEELi1ELb1EE5__getB8ue170006Ev, symObjAddr: 0x2CA7C, symBinAddr: 0x10002D3C0, symSize: 0x14 }
  - { offsetInCU: 0x5BCE9, offset: 0x5BCE9, size: 0x8, addend: 0x0, symName: __ZNSt3__112basic_stringIcNS_11char_traitsIcEENS_9allocatorIcEEE18__get_long_pointerB8ue170006Ev, symObjAddr: 0x2CA90, symBinAddr: 0x10002D3D4, symSize: 0x28 }
  - { offsetInCU: 0x5BD0F, offset: 0x5BD0F, size: 0x8, addend: 0x0, symName: __ZNSt3__112basic_stringIcNS_11char_traitsIcEENS_9allocatorIcEEE19__get_short_pointerB8ue170006Ev, symObjAddr: 0x2CAB8, symBinAddr: 0x10002D3FC, symSize: 0x28 }
  - { offsetInCU: 0x5BD35, offset: 0x5BD35, size: 0x8, addend: 0x0, symName: __ZNSt3__114pointer_traitsIPcE10pointer_toB8ue170006ERc, symObjAddr: 0x2CAE0, symBinAddr: 0x10002D424, symSize: 0x14 }
  - { offsetInCU: 0x5BD74, offset: 0x5BD74, size: 0x8, addend: 0x0, symName: __ZNKSt3__114__copy_trivialclB8ue170006IKccLi0EEENS_4pairIPT_PT0_EES5_S5_S7_, symObjAddr: 0x2CD14, symBinAddr: 0x10002D658, symSize: 0x48 }
  - { offsetInCU: 0x5BDFE, offset: 0x5BDFE, size: 0x8, addend: 0x0, symName: __ZNSt3__14pairIPKcS2_EC1B8ue170006IS2_S2_LPv0EEEOT_OT0_, symObjAddr: 0x2CE7C, symBinAddr: 0x10002D7C0, symSize: 0x3C }
  - { offsetInCU: 0x5BE5C, offset: 0x5BE5C, size: 0x8, addend: 0x0, symName: __ZNSt3__14pairIPKcS2_EC2B8ue170006IS2_S2_LPv0EEEOT_OT0_, symObjAddr: 0x2CEB8, symBinAddr: 0x10002D7FC, symSize: 0x34 }
  - { offsetInCU: 0x5BEBA, offset: 0x5BEBA, size: 0x8, addend: 0x0, symName: __ZNSt3__118__unwrap_iter_implIPKcLb1EE8__unwrapB8ue170006ES2_, symObjAddr: 0x2CEEC, symBinAddr: 0x10002D830, symSize: 0x24 }
  - { offsetInCU: 0x5BEE9, offset: 0x5BEE9, size: 0x8, addend: 0x0, symName: __ZNSt3__14pairIPKcPcEC1B8ue170006IRS2_S3_LPv0EEEOT_OT0_, symObjAddr: 0x2D038, symBinAddr: 0x10002D97C, symSize: 0x3C }
  - { offsetInCU: 0x5BF47, offset: 0x5BF47, size: 0x8, addend: 0x0, symName: __ZNSt3__14pairIPKcPcEC2B8ue170006IRS2_S3_LPv0EEEOT_OT0_, symObjAddr: 0x2D074, symBinAddr: 0x10002D9B8, symSize: 0x34 }
  - { offsetInCU: 0x5BFA5, offset: 0x5BFA5, size: 0x8, addend: 0x0, symName: __ZNSt3__118__unwrap_iter_implIPcLb1EE8__unwrapB8ue170006ES1_, symObjAddr: 0x2D0A8, symBinAddr: 0x10002D9EC, symSize: 0x24 }
  - { offsetInCU: 0x5BFC8, offset: 0x5BFC8, size: 0x8, addend: 0x0, symName: __ZNSt3__14pairIPKcPcEC1B8ue170006IS2_S3_LPv0EEEOT_OT0_, symObjAddr: 0x2D0CC, symBinAddr: 0x10002DA10, symSize: 0x3C }
  - { offsetInCU: 0x5C026, offset: 0x5C026, size: 0x8, addend: 0x0, symName: __ZNSt3__14pairIPKcPcEC2B8ue170006IS2_S3_LPv0EEEOT_OT0_, symObjAddr: 0x2D108, symBinAddr: 0x10002DA4C, symSize: 0x34 }
  - { offsetInCU: 0x5C084, offset: 0x5C084, size: 0x8, addend: 0x0, symName: __ZNSt3__118__unwrap_iter_implIPKcLb1EE8__rewrapB8ue170006ES2_S2_, symObjAddr: 0x2D178, symBinAddr: 0x10002DABC, symSize: 0x48 }
  - { offsetInCU: 0x5C0B5, offset: 0x5C0B5, size: 0x8, addend: 0x0, symName: __ZNSt3__118__unwrap_iter_implIPcLb1EE8__rewrapB8ue170006ES1_S1_, symObjAddr: 0x2D1C0, symBinAddr: 0x10002DB04, symSize: 0x48 }
  - { offsetInCU: 0x5C0E6, offset: 0x5C0E6, size: 0x8, addend: 0x0, symName: __ZNKSt3__112basic_stringIcNS_11char_traitsIcEENS_9allocatorIcEEE13__get_pointerB8ue170006Ev, symObjAddr: 0x2D208, symBinAddr: 0x10002DB4C, symSize: 0x54 }
  - { offsetInCU: 0x5C10C, offset: 0x5C10C, size: 0x8, addend: 0x0, symName: __ZNKSt3__112basic_stringIcNS_11char_traitsIcEENS_9allocatorIcEEE18__get_long_pointerB8ue170006Ev, symObjAddr: 0x2D25C, symBinAddr: 0x10002DBA0, symSize: 0x28 }
  - { offsetInCU: 0x5C132, offset: 0x5C132, size: 0x8, addend: 0x0, symName: __ZNKSt3__112basic_stringIcNS_11char_traitsIcEENS_9allocatorIcEEE19__get_short_pointerB8ue170006Ev, symObjAddr: 0x2D284, symBinAddr: 0x10002DBC8, symSize: 0x28 }
  - { offsetInCU: 0x5C158, offset: 0x5C158, size: 0x8, addend: 0x0, symName: __ZNSt3__114pointer_traitsIPKcE10pointer_toB8ue170006ERS1_, symObjAddr: 0x2D2AC, symBinAddr: 0x10002DBF0, symSize: 0x14 }
  - { offsetInCU: 0x5C17B, offset: 0x5C17B, size: 0x8, addend: 0x0, symName: __ZNSt3__112__hash_tableINS_17__hash_value_typeINS_12basic_stringIcNS_11char_traitsIcEENS_9allocatorIcEEEENS_10unique_ptrIN4sdsl19structure_tree_nodeENS_14default_deleteISA_EEEEEENS_22__unordered_map_hasherIS7_SE_NS_4hashIS7_EENS_8equal_toIS7_EELb1EEENS_21__unordered_map_equalIS7_SE_SJ_SH_Lb1EEENS5_ISE_EEE4findIS7_EENS_15__hash_iteratorIPNS_11__hash_nodeISE_PvEEEERKT_, symObjAddr: 0x2D37C, symBinAddr: 0x10002DCC0, symSize: 0x1B0 }
  - { offsetInCU: 0x5C205, offset: 0x5C205, size: 0x8, addend: 0x0, symName: __ZNSt3__119__hash_map_iteratorINS_15__hash_iteratorIPNS_11__hash_nodeINS_17__hash_value_typeINS_12basic_stringIcNS_11char_traitsIcEENS_9allocatorIcEEEENS_10unique_ptrIN4sdsl19structure_tree_nodeENS_14default_deleteISC_EEEEEEPvEEEEEC1B8ue170006ESK_, symObjAddr: 0x2D52C, symBinAddr: 0x10002DE70, symSize: 0x34 }
  - { offsetInCU: 0x5C23E, offset: 0x5C23E, size: 0x8, addend: 0x0, symName: __ZNSt3__112__hash_tableINS_17__hash_value_typeINS_12basic_stringIcNS_11char_traitsIcEENS_9allocatorIcEEEENS_10unique_ptrIN4sdsl19structure_tree_nodeENS_14default_deleteISA_EEEEEENS_22__unordered_map_hasherIS7_SE_NS_4hashIS7_EENS_8equal_toIS7_EELb1EEENS_21__unordered_map_equalIS7_SE_SJ_SH_Lb1EEENS5_ISE_EEE13hash_functionB8ue170006Ev, symObjAddr: 0x2D560, symBinAddr: 0x10002DEA4, symSize: 0x28 }
  - { offsetInCU: 0x5C264, offset: 0x5C264, size: 0x8, addend: 0x0, symName: __ZNKSt3__122__unordered_map_hasherINS_12basic_stringIcNS_11char_traitsIcEENS_9allocatorIcEEEENS_17__hash_value_typeIS6_NS_10unique_ptrIN4sdsl19structure_tree_nodeENS_14default_deleteISA_EEEEEENS_4hashIS6_EENS_8equal_toIS6_EELb1EEclB8ue170006ERKS6_, symObjAddr: 0x2D588, symBinAddr: 0x10002DECC, symSize: 0x2C }
  - { offsetInCU: 0x5C299, offset: 0x5C299, size: 0x8, addend: 0x0, symName: __ZNKSt3__112__hash_tableINS_17__hash_value_typeINS_12basic_stringIcNS_11char_traitsIcEENS_9allocatorIcEEEENS_10unique_ptrIN4sdsl19structure_tree_nodeENS_14default_deleteISA_EEEEEENS_22__unordered_map_hasherIS7_SE_NS_4hashIS7_EENS_8equal_toIS7_EELb1EEENS_21__unordered_map_equalIS7_SE_SJ_SH_Lb1EEENS5_ISE_EEE12bucket_countB8ue170006Ev, symObjAddr: 0x2D5B4, symBinAddr: 0x10002DEF8, symSize: 0x28 }
  - { offsetInCU: 0x5C2BF, offset: 0x5C2BF, size: 0x8, addend: 0x0, symName: __ZNKSt3__110unique_ptrIA_PNS_16__hash_node_baseIPNS_11__hash_nodeINS_17__hash_value_typeINS_12basic_stringIcNS_11char_traitsIcEENS_9allocatorIcEEEENS0_IN4sdsl19structure_tree_nodeENS_14default_deleteISB_EEEEEEPvEEEENS_25__bucket_list_deallocatorINS7_ISK_EEEEEixB8ue170006Em, symObjAddr: 0x2D674, symBinAddr: 0x10002DFB8, symSize: 0x34 }
  - { offsetInCU: 0x5C2F4, offset: 0x5C2F4, size: 0x8, addend: 0x0, symName: __ZNKSt3__116__hash_node_baseIPNS_11__hash_nodeINS_17__hash_value_typeINS_12basic_stringIcNS_11char_traitsIcEENS_9allocatorIcEEEENS_10unique_ptrIN4sdsl19structure_tree_nodeENS_14default_deleteISB_EEEEEEPvEEE6__hashB8ue170006Ev, symObjAddr: 0x2D6A8, symBinAddr: 0x10002DFEC, symSize: 0x18 }
  - { offsetInCU: 0x5C31A, offset: 0x5C31A, size: 0x8, addend: 0x0, symName: __ZNSt3__112__hash_tableINS_17__hash_value_typeINS_12basic_stringIcNS_11char_traitsIcEENS_9allocatorIcEEEENS_10unique_ptrIN4sdsl19structure_tree_nodeENS_14default_deleteISA_EEEEEENS_22__unordered_map_hasherIS7_SE_NS_4hashIS7_EENS_8equal_toIS7_EELb1EEENS_21__unordered_map_equalIS7_SE_SJ_SH_Lb1EEENS5_ISE_EEE6key_eqB8ue170006Ev, symObjAddr: 0x2D6C0, symBinAddr: 0x10002E004, symSize: 0x28 }
  - { offsetInCU: 0x5C340, offset: 0x5C340, size: 0x8, addend: 0x0, symName: __ZNKSt3__121__unordered_map_equalINS_12basic_stringIcNS_11char_traitsIcEENS_9allocatorIcEEEENS_17__hash_value_typeIS6_NS_10unique_ptrIN4sdsl19structure_tree_nodeENS_14default_deleteISA_EEEEEENS_8equal_toIS6_EENS_4hashIS6_EELb1EEclB8ue170006ERKSE_RKS6_, symObjAddr: 0x2D6E8, symBinAddr: 0x10002E02C, symSize: 0x48 }
  - { offsetInCU: 0x5C384, offset: 0x5C384, size: 0x8, addend: 0x0, symName: __ZNSt3__116__hash_node_baseIPNS_11__hash_nodeINS_17__hash_value_typeINS_12basic_stringIcNS_11char_traitsIcEENS_9allocatorIcEEEENS_10unique_ptrIN4sdsl19structure_tree_nodeENS_14default_deleteISB_EEEEEEPvEEE8__upcastB8ue170006Ev, symObjAddr: 0x2D730, symBinAddr: 0x10002E074, symSize: 0x24 }
  - { offsetInCU: 0x5C3AA, offset: 0x5C3AA, size: 0x8, addend: 0x0, symName: __ZNSt3__115__hash_iteratorIPNS_11__hash_nodeINS_17__hash_value_typeINS_12basic_stringIcNS_11char_traitsIcEENS_9allocatorIcEEEENS_10unique_ptrIN4sdsl19structure_tree_nodeENS_14default_deleteISB_EEEEEEPvEEEC1B8ue170006EPNS_16__hash_node_baseISI_EE, symObjAddr: 0x2D754, symBinAddr: 0x10002E098, symSize: 0x34 }
  - { offsetInCU: 0x5C3E3, offset: 0x5C3E3, size: 0x8, addend: 0x0, symName: __ZNSt3__112__hash_tableINS_17__hash_value_typeINS_12basic_stringIcNS_11char_traitsIcEENS_9allocatorIcEEEENS_10unique_ptrIN4sdsl19structure_tree_nodeENS_14default_deleteISA_EEEEEENS_22__unordered_map_hasherIS7_SE_NS_4hashIS7_EENS_8equal_toIS7_EELb1EEENS_21__unordered_map_equalIS7_SE_SJ_SH_Lb1EEENS5_ISE_EEE3endEv, symObjAddr: 0x2D788, symBinAddr: 0x10002E0CC, symSize: 0x2C }
  - { offsetInCU: 0x5C40B, offset: 0x5C40B, size: 0x8, addend: 0x0, symName: __ZNSt3__117__compressed_pairImNS_22__unordered_map_hasherINS_12basic_stringIcNS_11char_traitsIcEENS_9allocatorIcEEEENS_17__hash_value_typeIS7_NS_10unique_ptrIN4sdsl19structure_tree_nodeENS_14default_deleteISB_EEEEEENS_4hashIS7_EENS_8equal_toIS7_EELb1EEEE6secondB8ue170006Ev, symObjAddr: 0x2D7B4, symBinAddr: 0x10002E0F8, symSize: 0x24 }
  - { offsetInCU: 0x5C431, offset: 0x5C431, size: 0x8, addend: 0x0, symName: __ZNSt3__122__compressed_pair_elemINS_22__unordered_map_hasherINS_12basic_stringIcNS_11char_traitsIcEENS_9allocatorIcEEEENS_17__hash_value_typeIS7_NS_10unique_ptrIN4sdsl19structure_tree_nodeENS_14default_deleteISB_EEEEEENS_4hashIS7_EENS_8equal_toIS7_EELb1EEELi1ELb1EE5__getB8ue170006Ev, symObjAddr: 0x2D7D8, symBinAddr: 0x10002E11C, symSize: 0x14 }
  - { offsetInCU: 0x5C457, offset: 0x5C457, size: 0x8, addend: 0x0, symName: __ZNKSt3__113__string_hashIcNS_9allocatorIcEEEclB8ue170006ERKNS_12basic_stringIcNS_11char_traitsIcEES2_EE, symObjAddr: 0x2D7EC, symBinAddr: 0x10002E130, symSize: 0x64 }
  - { offsetInCU: 0x5C48C, offset: 0x5C48C, size: 0x8, addend: 0x0, symName: __ZNKSt3__121__murmur2_or_cityhashImLm64EEclB8ue170006EPKvm, symObjAddr: 0x2D88C, symBinAddr: 0x10002E1D0, symSize: 0x410 }
  - { offsetInCU: 0x5C526, offset: 0x5C526, size: 0x8, addend: 0x0, symName: __ZNSt3__121__murmur2_or_cityhashImLm64EE18__hash_len_0_to_16B8ue170006EPKcm, symObjAddr: 0x2DC9C, symBinAddr: 0x10002E5E0, symSize: 0x1C0 }
  - { offsetInCU: 0x5C5FF, offset: 0x5C5FF, size: 0x8, addend: 0x0, symName: __ZNSt3__121__murmur2_or_cityhashImLm64EE19__hash_len_17_to_32B8ue170006EPKcm, symObjAddr: 0x2DE5C, symBinAddr: 0x10002E7A0, symSize: 0x130 }
  - { offsetInCU: 0x5C668, offset: 0x5C668, size: 0x8, addend: 0x0, symName: __ZNSt3__121__murmur2_or_cityhashImLm64EE19__hash_len_33_to_64B8ue170006EPKcm, symObjAddr: 0x2DF8C, symBinAddr: 0x10002E8D0, symSize: 0x2B8 }
  - { offsetInCU: 0x5C71D, offset: 0x5C71D, size: 0x8, addend: 0x0, symName: __ZNSt3__121__murmur2_or_cityhashImLm64EE13__hash_len_16B8ue170006Emm, symObjAddr: 0x2E264, symBinAddr: 0x10002EBA8, symSize: 0x80 }
  - { offsetInCU: 0x5C778, offset: 0x5C778, size: 0x8, addend: 0x0, symName: __ZNSt3__121__murmur2_or_cityhashImLm64EE29__weak_hash_len_32_with_seedsB8ue170006EPKcmm, symObjAddr: 0x2E2E4, symBinAddr: 0x10002EC28, symSize: 0x88 }
  - { offsetInCU: 0x5C7B7, offset: 0x5C7B7, size: 0x8, addend: 0x0, symName: __ZNSt3__121__murmur2_or_cityhashImLm64EE8__rotateB8ue170006Emi, symObjAddr: 0x2E36C, symBinAddr: 0x10002ECB0, symSize: 0x64 }
  - { offsetInCU: 0x5C7E8, offset: 0x5C7E8, size: 0x8, addend: 0x0, symName: __ZNSt3__14pairImmEaSB8ue170006EOS1_, symObjAddr: 0x2E3D0, symBinAddr: 0x10002ED14, symSize: 0x30 }
  - { offsetInCU: 0x5C81D, offset: 0x5C81D, size: 0x8, addend: 0x0, symName: __ZNSt3__121__murmur2_or_cityhashImLm64EE11__shift_mixB8ue170006Em, symObjAddr: 0x2E43C, symBinAddr: 0x10002ED80, symSize: 0x1C }
  - { offsetInCU: 0x5C840, offset: 0x5C840, size: 0x8, addend: 0x0, symName: __ZNSt3__121__murmur2_or_cityhashImLm64EE22__rotate_by_at_least_1B8ue170006Emi, symObjAddr: 0x2E458, symBinAddr: 0x10002ED9C, symSize: 0x38 }
  - { offsetInCU: 0x5C871, offset: 0x5C871, size: 0x8, addend: 0x0, symName: __ZNSt3__121__murmur2_or_cityhashImLm64EE29__weak_hash_len_32_with_seedsB8ue170006Emmmmmm, symObjAddr: 0x2E4B0, symBinAddr: 0x10002EDF4, symSize: 0xD8 }
  - { offsetInCU: 0x5C8E8, offset: 0x5C8E8, size: 0x8, addend: 0x0, symName: __ZNSt3__14pairImmEC1B8ue170006ImmLPv0EEEOT_OT0_, symObjAddr: 0x2E588, symBinAddr: 0x10002EECC, symSize: 0x3C }
  - { offsetInCU: 0x5C946, offset: 0x5C946, size: 0x8, addend: 0x0, symName: __ZNSt3__14pairImmEC2B8ue170006ImmLPv0EEEOT_OT0_, symObjAddr: 0x2E5C4, symBinAddr: 0x10002EF08, symSize: 0x34 }
  - { offsetInCU: 0x5C9A4, offset: 0x5C9A4, size: 0x8, addend: 0x0, symName: __ZNKSt3__110unique_ptrIA_PNS_16__hash_node_baseIPNS_11__hash_nodeINS_17__hash_value_typeINS_12basic_stringIcNS_11char_traitsIcEENS_9allocatorIcEEEENS0_IN4sdsl19structure_tree_nodeENS_14default_deleteISB_EEEEEEPvEEEENS_25__bucket_list_deallocatorINS7_ISK_EEEEE11get_deleterB8ue170006Ev, symObjAddr: 0x2E5F8, symBinAddr: 0x10002EF3C, symSize: 0x24 }
  - { offsetInCU: 0x5C9CA, offset: 0x5C9CA, size: 0x8, addend: 0x0, symName: __ZNKSt3__125__bucket_list_deallocatorINS_9allocatorIPNS_16__hash_node_baseIPNS_11__hash_nodeINS_17__hash_value_typeINS_12basic_stringIcNS_11char_traitsIcEENS1_IcEEEENS_10unique_ptrIN4sdsl19structure_tree_nodeENS_14default_deleteISC_EEEEEEPvEEEEEEE4sizeB8ue170006Ev, symObjAddr: 0x2E61C, symBinAddr: 0x10002EF60, symSize: 0x28 }
  - { offsetInCU: 0x5C9F0, offset: 0x5C9F0, size: 0x8, addend: 0x0, symName: __ZNKSt3__117__compressed_pairIPPNS_16__hash_node_baseIPNS_11__hash_nodeINS_17__hash_value_typeINS_12basic_stringIcNS_11char_traitsIcEENS_9allocatorIcEEEENS_10unique_ptrIN4sdsl19structure_tree_nodeENS_14default_deleteISC_EEEEEEPvEEEENS_25__bucket_list_deallocatorINS7_ISL_EEEEE6secondB8ue170006Ev, symObjAddr: 0x2E644, symBinAddr: 0x10002EF88, symSize: 0x28 }
  - { offsetInCU: 0x5CA16, offset: 0x5CA16, size: 0x8, addend: 0x0, symName: __ZNKSt3__122__compressed_pair_elemINS_25__bucket_list_deallocatorINS_9allocatorIPNS_16__hash_node_baseIPNS_11__hash_nodeINS_17__hash_value_typeINS_12basic_stringIcNS_11char_traitsIcEENS2_IcEEEENS_10unique_ptrIN4sdsl19structure_tree_nodeENS_14default_deleteISD_EEEEEEPvEEEEEEEELi1ELb0EE5__getB8ue170006Ev, symObjAddr: 0x2E66C, symBinAddr: 0x10002EFB0, symSize: 0x14 }
  - { offsetInCU: 0x5CA3C, offset: 0x5CA3C, size: 0x8, addend: 0x0, symName: __ZNKSt3__117__compressed_pairImNS_9allocatorIPNS_16__hash_node_baseIPNS_11__hash_nodeINS_17__hash_value_typeINS_12basic_stringIcNS_11char_traitsIcEENS1_IcEEEENS_10unique_ptrIN4sdsl19structure_tree_nodeENS_14default_deleteISC_EEEEEEPvEEEEEEE5firstB8ue170006Ev, symObjAddr: 0x2E680, symBinAddr: 0x10002EFC4, symSize: 0x24 }
  - { offsetInCU: 0x5CA62, offset: 0x5CA62, size: 0x8, addend: 0x0, symName: __ZNKSt3__117__compressed_pairIPPNS_16__hash_node_baseIPNS_11__hash_nodeINS_17__hash_value_typeINS_12basic_stringIcNS_11char_traitsIcEENS_9allocatorIcEEEENS_10unique_ptrIN4sdsl19structure_tree_nodeENS_14default_deleteISC_EEEEEEPvEEEENS_25__bucket_list_deallocatorINS7_ISL_EEEEE5firstB8ue170006Ev, symObjAddr: 0x2E6A4, symBinAddr: 0x10002EFE8, symSize: 0x24 }
  - { offsetInCU: 0x5CA88, offset: 0x5CA88, size: 0x8, addend: 0x0, symName: __ZNKSt3__122__compressed_pair_elemIPPNS_16__hash_node_baseIPNS_11__hash_nodeINS_17__hash_value_typeINS_12basic_stringIcNS_11char_traitsIcEENS_9allocatorIcEEEENS_10unique_ptrIN4sdsl19structure_tree_nodeENS_14default_deleteISC_EEEEEEPvEEEELi0ELb0EE5__getB8ue170006Ev, symObjAddr: 0x2E6C8, symBinAddr: 0x10002F00C, symSize: 0x14 }
  - { offsetInCU: 0x5CAAE, offset: 0x5CAAE, size: 0x8, addend: 0x0, symName: __ZNSt3__117__compressed_pairIfNS_21__unordered_map_equalINS_12basic_stringIcNS_11char_traitsIcEENS_9allocatorIcEEEENS_17__hash_value_typeIS7_NS_10unique_ptrIN4sdsl19structure_tree_nodeENS_14default_deleteISB_EEEEEENS_8equal_toIS7_EENS_4hashIS7_EELb1EEEE6secondB8ue170006Ev, symObjAddr: 0x2E6DC, symBinAddr: 0x10002F020, symSize: 0x24 }
  - { offsetInCU: 0x5CAD4, offset: 0x5CAD4, size: 0x8, addend: 0x0, symName: __ZNSt3__122__compressed_pair_elemINS_21__unordered_map_equalINS_12basic_stringIcNS_11char_traitsIcEENS_9allocatorIcEEEENS_17__hash_value_typeIS7_NS_10unique_ptrIN4sdsl19structure_tree_nodeENS_14default_deleteISB_EEEEEENS_8equal_toIS7_EENS_4hashIS7_EELb1EEELi1ELb1EE5__getB8ue170006Ev, symObjAddr: 0x2E700, symBinAddr: 0x10002F044, symSize: 0x14 }
  - { offsetInCU: 0x5CAFA, offset: 0x5CAFA, size: 0x8, addend: 0x0, symName: __ZNKSt3__18equal_toINS_12basic_stringIcNS_11char_traitsIcEENS_9allocatorIcEEEEEclB8ue170006ERKS6_S9_, symObjAddr: 0x2E714, symBinAddr: 0x10002F058, symSize: 0x34 }
  - { offsetInCU: 0x5CB3E, offset: 0x5CB3E, size: 0x8, addend: 0x0, symName: __ZNKSt3__117__hash_value_typeINS_12basic_stringIcNS_11char_traitsIcEENS_9allocatorIcEEEENS_10unique_ptrIN4sdsl19structure_tree_nodeENS_14default_deleteIS9_EEEEE11__get_valueB8ue170006Ev, symObjAddr: 0x2E748, symBinAddr: 0x10002F08C, symSize: 0x14 }
  - { offsetInCU: 0x5CB64, offset: 0x5CB64, size: 0x8, addend: 0x0, symName: __ZNSt3__111char_traitsIcE7compareB8ue170006EPKcS3_m, symObjAddr: 0x2E8A4, symBinAddr: 0x10002F1E8, symSize: 0x34 }
  - { offsetInCU: 0x5CBA3, offset: 0x5CBA3, size: 0x8, addend: 0x0, symName: __ZNSt3__114pointer_traitsIPNS_16__hash_node_baseIPNS_11__hash_nodeINS_17__hash_value_typeINS_12basic_stringIcNS_11char_traitsIcEENS_9allocatorIcEEEENS_10unique_ptrIN4sdsl19structure_tree_nodeENS_14default_deleteISC_EEEEEEPvEEEEE10pointer_toB8ue170006ERSK_, symObjAddr: 0x2E8D8, symBinAddr: 0x10002F21C, symSize: 0x14 }
  - { offsetInCU: 0x5CBC6, offset: 0x5CBC6, size: 0x8, addend: 0x0, symName: __ZNSt3__115__hash_iteratorIPNS_11__hash_nodeINS_17__hash_value_typeINS_12basic_stringIcNS_11char_traitsIcEENS_9allocatorIcEEEENS_10unique_ptrIN4sdsl19structure_tree_nodeENS_14default_deleteISB_EEEEEEPvEEEC2B8ue170006EPNS_16__hash_node_baseISI_EE, symObjAddr: 0x2E8EC, symBinAddr: 0x10002F230, symSize: 0x20 }
  - { offsetInCU: 0x5CBFF, offset: 0x5CBFF, size: 0x8, addend: 0x0, symName: __ZNSt3__119__hash_map_iteratorINS_15__hash_iteratorIPNS_11__hash_nodeINS_17__hash_value_typeINS_12basic_stringIcNS_11char_traitsIcEENS_9allocatorIcEEEENS_10unique_ptrIN4sdsl19structure_tree_nodeENS_14default_deleteISC_EEEEEEPvEEEEEC2B8ue170006ESK_, symObjAddr: 0x2E90C, symBinAddr: 0x10002F250, symSize: 0x20 }
  - { offsetInCU: 0x5CC38, offset: 0x5CC38, size: 0x8, addend: 0x0, symName: __ZN4sdsl19structure_tree_nodeC2ERKNSt3__112basic_stringIcNS1_11char_traitsIcEENS1_9allocatorIcEEEES9_, symObjAddr: 0x2E95C, symBinAddr: 0x10002F2A0, symSize: 0xAC }
  - { offsetInCU: 0x5CC7E, offset: 0x5CC7E, size: 0x8, addend: 0x0, symName: __ZNSt3__113unordered_mapINS_12basic_stringIcNS_11char_traitsIcEENS_9allocatorIcEEEENS_10unique_ptrIN4sdsl19structure_tree_nodeENS_14default_deleteIS9_EEEENS_4hashIS6_EENS_8equal_toIS6_EENS4_INS_4pairIKS6_SC_EEEEEC1B8ue170006Ev, symObjAddr: 0x2EA08, symBinAddr: 0x10002F34C, symSize: 0x2C }
  - { offsetInCU: 0x5CCA8, offset: 0x5CCA8, size: 0x8, addend: 0x0, symName: __ZNSt3__113unordered_mapINS_12basic_stringIcNS_11char_traitsIcEENS_9allocatorIcEEEENS_10unique_ptrIN4sdsl19structure_tree_nodeENS_14default_deleteIS9_EEEENS_4hashIS6_EENS_8equal_toIS6_EENS4_INS_4pairIKS6_SC_EEEEED1B8ue170006Ev, symObjAddr: 0x2EA34, symBinAddr: 0x10002F378, symSize: 0x2C }
  - { offsetInCU: 0x5CCD2, offset: 0x5CCD2, size: 0x8, addend: 0x0, symName: __ZNSt3__113unordered_mapINS_12basic_stringIcNS_11char_traitsIcEENS_9allocatorIcEEEENS_10unique_ptrIN4sdsl19structure_tree_nodeENS_14default_deleteIS9_EEEENS_4hashIS6_EENS_8equal_toIS6_EENS4_INS_4pairIKS6_SC_EEEEEC2B8ue170006Ev, symObjAddr: 0x2EA60, symBinAddr: 0x10002F3A4, symSize: 0x2C }
  - { offsetInCU: 0x5CCFC, offset: 0x5CCFC, size: 0x8, addend: 0x0, symName: __ZNSt3__112__hash_tableINS_17__hash_value_typeINS_12basic_stringIcNS_11char_traitsIcEENS_9allocatorIcEEEENS_10unique_ptrIN4sdsl19structure_tree_nodeENS_14default_deleteISA_EEEEEENS_22__unordered_map_hasherIS7_SE_NS_4hashIS7_EENS_8equal_toIS7_EELb1EEENS_21__unordered_map_equalIS7_SE_SJ_SH_Lb1EEENS5_ISE_EEEC1Ev, symObjAddr: 0x2EA8C, symBinAddr: 0x10002F3D0, symSize: 0x2C }
  - { offsetInCU: 0x5CD28, offset: 0x5CD28, size: 0x8, addend: 0x0, symName: __ZNSt3__112__hash_tableINS_17__hash_value_typeINS_12basic_stringIcNS_11char_traitsIcEENS_9allocatorIcEEEENS_10unique_ptrIN4sdsl19structure_tree_nodeENS_14default_deleteISA_EEEEEENS_22__unordered_map_hasherIS7_SE_NS_4hashIS7_EENS_8equal_toIS7_EELb1EEENS_21__unordered_map_equalIS7_SE_SJ_SH_Lb1EEENS5_ISE_EEEC2Ev, symObjAddr: 0x2EAB8, symBinAddr: 0x10002F3FC, symSize: 0x7C }
  - { offsetInCU: 0x5CD54, offset: 0x5CD54, size: 0x8, addend: 0x0, symName: __ZNSt3__110unique_ptrIA_PNS_16__hash_node_baseIPNS_11__hash_nodeINS_17__hash_value_typeINS_12basic_stringIcNS_11char_traitsIcEENS_9allocatorIcEEEENS0_IN4sdsl19structure_tree_nodeENS_14default_deleteISB_EEEEEEPvEEEENS_25__bucket_list_deallocatorINS7_ISK_EEEEEC1B8ue170006ILb1EvEEv, symObjAddr: 0x2EB34, symBinAddr: 0x10002F478, symSize: 0x2C }
  - { offsetInCU: 0x5CD89, offset: 0x5CD89, size: 0x8, addend: 0x0, symName: __ZNSt3__117__compressed_pairINS_16__hash_node_baseIPNS_11__hash_nodeINS_17__hash_value_typeINS_12basic_stringIcNS_11char_traitsIcEENS_9allocatorIcEEEENS_10unique_ptrIN4sdsl19structure_tree_nodeENS_14default_deleteISC_EEEEEEPvEEEENS7_ISI_EEEC1B8ue170006ILb1EvEEv, symObjAddr: 0x2EB60, symBinAddr: 0x10002F4A4, symSize: 0x2C }
  - { offsetInCU: 0x5CDBE, offset: 0x5CDBE, size: 0x8, addend: 0x0, symName: __ZNSt3__117__compressed_pairImNS_22__unordered_map_hasherINS_12basic_stringIcNS_11char_traitsIcEENS_9allocatorIcEEEENS_17__hash_value_typeIS7_NS_10unique_ptrIN4sdsl19structure_tree_nodeENS_14default_deleteISB_EEEEEENS_4hashIS7_EENS_8equal_toIS7_EELb1EEEEC1B8ue170006IiNS_18__default_init_tagEEEOT_OT0_, symObjAddr: 0x2EB8C, symBinAddr: 0x10002F4D0, symSize: 0x3C }
  - { offsetInCU: 0x5CE1C, offset: 0x5CE1C, size: 0x8, addend: 0x0, symName: __ZNSt3__117__compressed_pairIfNS_21__unordered_map_equalINS_12basic_stringIcNS_11char_traitsIcEENS_9allocatorIcEEEENS_17__hash_value_typeIS7_NS_10unique_ptrIN4sdsl19structure_tree_nodeENS_14default_deleteISB_EEEEEENS_8equal_toIS7_EENS_4hashIS7_EELb1EEEEC1B8ue170006IfNS_18__default_init_tagEEEOT_OT0_, symObjAddr: 0x2EBC8, symBinAddr: 0x10002F50C, symSize: 0x3C }
  - { offsetInCU: 0x5CE74, offset: 0x5CE74, size: 0x8, addend: 0x0, symName: __ZNSt3__110unique_ptrIA_PNS_16__hash_node_baseIPNS_11__hash_nodeINS_17__hash_value_typeINS_12basic_stringIcNS_11char_traitsIcEENS_9allocatorIcEEEENS0_IN4sdsl19structure_tree_nodeENS_14default_deleteISB_EEEEEEPvEEEENS_25__bucket_list_deallocatorINS7_ISK_EEEEEC2B8ue170006ILb1EvEEv, symObjAddr: 0x2EC04, symBinAddr: 0x10002F548, symSize: 0x3C }
  - { offsetInCU: 0x5CEAF, offset: 0x5CEAF, size: 0x8, addend: 0x0, symName: __ZNSt3__117__compressed_pairIPPNS_16__hash_node_baseIPNS_11__hash_nodeINS_17__hash_value_typeINS_12basic_stringIcNS_11char_traitsIcEENS_9allocatorIcEEEENS_10unique_ptrIN4sdsl19structure_tree_nodeENS_14default_deleteISC_EEEEEEPvEEEENS_25__bucket_list_deallocatorINS7_ISL_EEEEEC1B8ue170006INS_16__value_init_tagESS_EEOT_OT0_, symObjAddr: 0x2EC40, symBinAddr: 0x10002F584, symSize: 0x3C }
  - { offsetInCU: 0x5CF07, offset: 0x5CF07, size: 0x8, addend: 0x0, symName: __ZNSt3__117__compressed_pairIPPNS_16__hash_node_baseIPNS_11__hash_nodeINS_17__hash_value_typeINS_12basic_stringIcNS_11char_traitsIcEENS_9allocatorIcEEEENS_10unique_ptrIN4sdsl19structure_tree_nodeENS_14default_deleteISC_EEEEEEPvEEEENS_25__bucket_list_deallocatorINS7_ISL_EEEEEC2B8ue170006INS_16__value_init_tagESS_EEOT_OT0_, symObjAddr: 0x2EC7C, symBinAddr: 0x10002F5C0, symSize: 0x40 }
  - { offsetInCU: 0x5CF5F, offset: 0x5CF5F, size: 0x8, addend: 0x0, symName: __ZNSt3__122__compressed_pair_elemIPPNS_16__hash_node_baseIPNS_11__hash_nodeINS_17__hash_value_typeINS_12basic_stringIcNS_11char_traitsIcEENS_9allocatorIcEEEENS_10unique_ptrIN4sdsl19structure_tree_nodeENS_14default_deleteISC_EEEEEEPvEEEELi0ELb0EEC2B8ue170006ENS_16__value_init_tagE, symObjAddr: 0x2ECBC, symBinAddr: 0x10002F600, symSize: 0x18 }
  - { offsetInCU: 0x5CF94, offset: 0x5CF94, size: 0x8, addend: 0x0, symName: __ZNSt3__122__compressed_pair_elemINS_25__bucket_list_deallocatorINS_9allocatorIPNS_16__hash_node_baseIPNS_11__hash_nodeINS_17__hash_value_typeINS_12basic_stringIcNS_11char_traitsIcEENS2_IcEEEENS_10unique_ptrIN4sdsl19structure_tree_nodeENS_14default_deleteISD_EEEEEEPvEEEEEEEELi1ELb0EEC2B8ue170006ENS_16__value_init_tagE, symObjAddr: 0x2ECD4, symBinAddr: 0x10002F618, symSize: 0x2C }
  - { offsetInCU: 0x5CFC9, offset: 0x5CFC9, size: 0x8, addend: 0x0, symName: __ZNSt3__125__bucket_list_deallocatorINS_9allocatorIPNS_16__hash_node_baseIPNS_11__hash_nodeINS_17__hash_value_typeINS_12basic_stringIcNS_11char_traitsIcEENS1_IcEEEENS_10unique_ptrIN4sdsl19structure_tree_nodeENS_14default_deleteISC_EEEEEEPvEEEEEEEC1B8ue170006Ev, symObjAddr: 0x2ED00, symBinAddr: 0x10002F644, symSize: 0x2C }
  - { offsetInCU: 0x5CFF3, offset: 0x5CFF3, size: 0x8, addend: 0x0, symName: __ZNSt3__125__bucket_list_deallocatorINS_9allocatorIPNS_16__hash_node_baseIPNS_11__hash_nodeINS_17__hash_value_typeINS_12basic_stringIcNS_11char_traitsIcEENS1_IcEEEENS_10unique_ptrIN4sdsl19structure_tree_nodeENS_14default_deleteISC_EEEEEEPvEEEEEEEC2B8ue170006Ev, symObjAddr: 0x2ED2C, symBinAddr: 0x10002F670, symSize: 0x40 }
  - { offsetInCU: 0x5D01D, offset: 0x5D01D, size: 0x8, addend: 0x0, symName: __ZNSt3__117__compressed_pairImNS_9allocatorIPNS_16__hash_node_baseIPNS_11__hash_nodeINS_17__hash_value_typeINS_12basic_stringIcNS_11char_traitsIcEENS1_IcEEEENS_10unique_ptrIN4sdsl19structure_tree_nodeENS_14default_deleteISC_EEEEEEPvEEEEEEEC1B8ue170006IiNS_18__default_init_tagEEEOT_OT0_, symObjAddr: 0x2ED6C, symBinAddr: 0x10002F6B0, symSize: 0x3C }
  - { offsetInCU: 0x5D075, offset: 0x5D075, size: 0x8, addend: 0x0, symName: __ZNSt3__117__compressed_pairImNS_9allocatorIPNS_16__hash_node_baseIPNS_11__hash_nodeINS_17__hash_value_typeINS_12basic_stringIcNS_11char_traitsIcEENS1_IcEEEENS_10unique_ptrIN4sdsl19structure_tree_nodeENS_14default_deleteISC_EEEEEEPvEEEEEEEC2B8ue170006IiNS_18__default_init_tagEEEOT_OT0_, symObjAddr: 0x2EDA8, symBinAddr: 0x10002F6EC, symSize: 0x40 }
  - { offsetInCU: 0x5D0CD, offset: 0x5D0CD, size: 0x8, addend: 0x0, symName: __ZNSt3__122__compressed_pair_elemINS_9allocatorIPNS_16__hash_node_baseIPNS_11__hash_nodeINS_17__hash_value_typeINS_12basic_stringIcNS_11char_traitsIcEENS1_IcEEEENS_10unique_ptrIN4sdsl19structure_tree_nodeENS_14default_deleteISC_EEEEEEPvEEEEEELi1ELb1EEC2B8ue170006ENS_18__default_init_tagE, symObjAddr: 0x2EDE8, symBinAddr: 0x10002F72C, symSize: 0x2C }
  - { offsetInCU: 0x5D102, offset: 0x5D102, size: 0x8, addend: 0x0, symName: __ZNSt3__19allocatorIPNS_16__hash_node_baseIPNS_11__hash_nodeINS_17__hash_value_typeINS_12basic_stringIcNS_11char_traitsIcEENS0_IcEEEENS_10unique_ptrIN4sdsl19structure_tree_nodeENS_14default_deleteISB_EEEEEEPvEEEEEC2B8ue170006Ev, symObjAddr: 0x2EE14, symBinAddr: 0x10002F758, symSize: 0x2C }
  - { offsetInCU: 0x5D12C, offset: 0x5D12C, size: 0x8, addend: 0x0, symName: __ZNSt3__116__non_trivial_ifILb1ENS_9allocatorIPNS_16__hash_node_baseIPNS_11__hash_nodeINS_17__hash_value_typeINS_12basic_stringIcNS_11char_traitsIcEENS1_IcEEEENS_10unique_ptrIN4sdsl19structure_tree_nodeENS_14default_deleteISC_EEEEEEPvEEEEEEEC2B8ue170006Ev, symObjAddr: 0x2EE40, symBinAddr: 0x10002F784, symSize: 0x14 }
  - { offsetInCU: 0x5D156, offset: 0x5D156, size: 0x8, addend: 0x0, symName: __ZNSt3__117__compressed_pairINS_16__hash_node_baseIPNS_11__hash_nodeINS_17__hash_value_typeINS_12basic_stringIcNS_11char_traitsIcEENS_9allocatorIcEEEENS_10unique_ptrIN4sdsl19structure_tree_nodeENS_14default_deleteISC_EEEEEEPvEEEENS7_ISI_EEEC2B8ue170006ILb1EvEEv, symObjAddr: 0x2EE54, symBinAddr: 0x10002F798, symSize: 0x34 }
  - { offsetInCU: 0x5D18B, offset: 0x5D18B, size: 0x8, addend: 0x0, symName: __ZNSt3__122__compressed_pair_elemINS_16__hash_node_baseIPNS_11__hash_nodeINS_17__hash_value_typeINS_12basic_stringIcNS_11char_traitsIcEENS_9allocatorIcEEEENS_10unique_ptrIN4sdsl19structure_tree_nodeENS_14default_deleteISC_EEEEEEPvEEEELi0ELb0EEC2B8ue170006ENS_16__value_init_tagE, symObjAddr: 0x2EE88, symBinAddr: 0x10002F7CC, symSize: 0x2C }
  - { offsetInCU: 0x5D1C0, offset: 0x5D1C0, size: 0x8, addend: 0x0, symName: __ZNSt3__122__compressed_pair_elemINS_9allocatorINS_11__hash_nodeINS_17__hash_value_typeINS_12basic_stringIcNS_11char_traitsIcEENS1_IcEEEENS_10unique_ptrIN4sdsl19structure_tree_nodeENS_14default_deleteISB_EEEEEEPvEEEELi1ELb1EEC2B8ue170006ENS_16__value_init_tagE, symObjAddr: 0x2EEB4, symBinAddr: 0x10002F7F8, symSize: 0x2C }
  - { offsetInCU: 0x5D1F5, offset: 0x5D1F5, size: 0x8, addend: 0x0, symName: __ZNSt3__116__hash_node_baseIPNS_11__hash_nodeINS_17__hash_value_typeINS_12basic_stringIcNS_11char_traitsIcEENS_9allocatorIcEEEENS_10unique_ptrIN4sdsl19structure_tree_nodeENS_14default_deleteISB_EEEEEEPvEEEC1B8ue170006Ev, symObjAddr: 0x2EEE0, symBinAddr: 0x10002F824, symSize: 0x2C }
  - { offsetInCU: 0x5D21F, offset: 0x5D21F, size: 0x8, addend: 0x0, symName: __ZNSt3__116__hash_node_baseIPNS_11__hash_nodeINS_17__hash_value_typeINS_12basic_stringIcNS_11char_traitsIcEENS_9allocatorIcEEEENS_10unique_ptrIN4sdsl19structure_tree_nodeENS_14default_deleteISB_EEEEEEPvEEEC2B8ue170006Ev, symObjAddr: 0x2EF0C, symBinAddr: 0x10002F850, symSize: 0x18 }
  - { offsetInCU: 0x5D249, offset: 0x5D249, size: 0x8, addend: 0x0, symName: __ZNSt3__19allocatorINS_11__hash_nodeINS_17__hash_value_typeINS_12basic_stringIcNS_11char_traitsIcEENS0_IcEEEENS_10unique_ptrIN4sdsl19structure_tree_nodeENS_14default_deleteISA_EEEEEEPvEEEC2B8ue170006Ev, symObjAddr: 0x2EF24, symBinAddr: 0x10002F868, symSize: 0x2C }
  - { offsetInCU: 0x5D273, offset: 0x5D273, size: 0x8, addend: 0x0, symName: __ZNSt3__116__non_trivial_ifILb1ENS_9allocatorINS_11__hash_nodeINS_17__hash_value_typeINS_12basic_stringIcNS_11char_traitsIcEENS1_IcEEEENS_10unique_ptrIN4sdsl19structure_tree_nodeENS_14default_deleteISB_EEEEEEPvEEEEEC2B8ue170006Ev, symObjAddr: 0x2EF50, symBinAddr: 0x10002F894, symSize: 0x14 }
  - { offsetInCU: 0x5D29D, offset: 0x5D29D, size: 0x8, addend: 0x0, symName: __ZNSt3__117__compressed_pairImNS_22__unordered_map_hasherINS_12basic_stringIcNS_11char_traitsIcEENS_9allocatorIcEEEENS_17__hash_value_typeIS7_NS_10unique_ptrIN4sdsl19structure_tree_nodeENS_14default_deleteISB_EEEEEENS_4hashIS7_EENS_8equal_toIS7_EELb1EEEEC2B8ue170006IiNS_18__default_init_tagEEEOT_OT0_, symObjAddr: 0x2EF64, symBinAddr: 0x10002F8A8, symSize: 0x40 }
  - { offsetInCU: 0x5D2F5, offset: 0x5D2F5, size: 0x8, addend: 0x0, symName: __ZNSt3__122__compressed_pair_elemINS_22__unordered_map_hasherINS_12basic_stringIcNS_11char_traitsIcEENS_9allocatorIcEEEENS_17__hash_value_typeIS7_NS_10unique_ptrIN4sdsl19structure_tree_nodeENS_14default_deleteISB_EEEEEENS_4hashIS7_EENS_8equal_toIS7_EELb1EEELi1ELb1EEC2B8ue170006ENS_18__default_init_tagE, symObjAddr: 0x2EFA4, symBinAddr: 0x10002F8E8, symSize: 0x2C }
  - { offsetInCU: 0x5D32A, offset: 0x5D32A, size: 0x8, addend: 0x0, symName: __ZNSt3__122__unordered_map_hasherINS_12basic_stringIcNS_11char_traitsIcEENS_9allocatorIcEEEENS_17__hash_value_typeIS6_NS_10unique_ptrIN4sdsl19structure_tree_nodeENS_14default_deleteISA_EEEEEENS_4hashIS6_EENS_8equal_toIS6_EELb1EEC2B8ue170006Ev, symObjAddr: 0x2EFD0, symBinAddr: 0x10002F914, symSize: 0x14 }
  - { offsetInCU: 0x5D354, offset: 0x5D354, size: 0x8, addend: 0x0, symName: __ZNSt3__117__compressed_pairIfNS_21__unordered_map_equalINS_12basic_stringIcNS_11char_traitsIcEENS_9allocatorIcEEEENS_17__hash_value_typeIS7_NS_10unique_ptrIN4sdsl19structure_tree_nodeENS_14default_deleteISB_EEEEEENS_8equal_toIS7_EENS_4hashIS7_EELb1EEEEC2B8ue170006IfNS_18__default_init_tagEEEOT_OT0_, symObjAddr: 0x2EFE4, symBinAddr: 0x10002F928, symSize: 0x40 }
  - { offsetInCU: 0x5D3AC, offset: 0x5D3AC, size: 0x8, addend: 0x0, symName: __ZNSt3__122__compressed_pair_elemIfLi0ELb0EEC2B8ue170006IfvEEOT_, symObjAddr: 0x2F024, symBinAddr: 0x10002F968, symSize: 0x24 }
  - { offsetInCU: 0x5D3EE, offset: 0x5D3EE, size: 0x8, addend: 0x0, symName: __ZNSt3__122__compressed_pair_elemINS_21__unordered_map_equalINS_12basic_stringIcNS_11char_traitsIcEENS_9allocatorIcEEEENS_17__hash_value_typeIS7_NS_10unique_ptrIN4sdsl19structure_tree_nodeENS_14default_deleteISB_EEEEEENS_8equal_toIS7_EENS_4hashIS7_EELb1EEELi1ELb1EEC2B8ue170006ENS_18__default_init_tagE, symObjAddr: 0x2F048, symBinAddr: 0x10002F98C, symSize: 0x2C }
  - { offsetInCU: 0x5D423, offset: 0x5D423, size: 0x8, addend: 0x0, symName: __ZNSt3__121__unordered_map_equalINS_12basic_stringIcNS_11char_traitsIcEENS_9allocatorIcEEEENS_17__hash_value_typeIS6_NS_10unique_ptrIN4sdsl19structure_tree_nodeENS_14default_deleteISA_EEEEEENS_8equal_toIS6_EENS_4hashIS6_EELb1EEC2B8ue170006Ev, symObjAddr: 0x2F074, symBinAddr: 0x10002F9B8, symSize: 0x14 }
  - { offsetInCU: 0x5D44D, offset: 0x5D44D, size: 0x8, addend: 0x0, symName: __ZNSt3__113unordered_mapINS_12basic_stringIcNS_11char_traitsIcEENS_9allocatorIcEEEENS_10unique_ptrIN4sdsl19structure_tree_nodeENS_14default_deleteIS9_EEEENS_4hashIS6_EENS_8equal_toIS6_EENS4_INS_4pairIKS6_SC_EEEEED2B8ue170006Ev, symObjAddr: 0x2F088, symBinAddr: 0x10002F9CC, symSize: 0x2C }
  - { offsetInCU: 0x5D477, offset: 0x5D477, size: 0x8, addend: 0x0, symName: __ZNSt3__112__hash_tableINS_17__hash_value_typeINS_12basic_stringIcNS_11char_traitsIcEENS_9allocatorIcEEEENS_10unique_ptrIN4sdsl19structure_tree_nodeENS_14default_deleteISA_EEEEEENS_22__unordered_map_hasherIS7_SE_NS_4hashIS7_EENS_8equal_toIS7_EELb1EEENS_21__unordered_map_equalIS7_SE_SJ_SH_Lb1EEENS5_ISE_EEED1Ev, symObjAddr: 0x2F0B4, symBinAddr: 0x10002F9F8, symSize: 0x2C }
  - { offsetInCU: 0x5D4A3, offset: 0x5D4A3, size: 0x8, addend: 0x0, symName: __ZNSt3__112__hash_tableINS_17__hash_value_typeINS_12basic_stringIcNS_11char_traitsIcEENS_9allocatorIcEEEENS_10unique_ptrIN4sdsl19structure_tree_nodeENS_14default_deleteISA_EEEEEENS_22__unordered_map_hasherIS7_SE_NS_4hashIS7_EENS_8equal_toIS7_EELb1EEENS_21__unordered_map_equalIS7_SE_SJ_SH_Lb1EEENS5_ISE_EEED2Ev, symObjAddr: 0x2F0E0, symBinAddr: 0x10002FA24, symSize: 0x48 }
  - { offsetInCU: 0x5D4CF, offset: 0x5D4CF, size: 0x8, addend: 0x0, symName: __ZNSt3__112__hash_tableINS_17__hash_value_typeINS_12basic_stringIcNS_11char_traitsIcEENS_9allocatorIcEEEENS_10unique_ptrIN4sdsl19structure_tree_nodeENS_14default_deleteISA_EEEEEENS_22__unordered_map_hasherIS7_SE_NS_4hashIS7_EENS_8equal_toIS7_EELb1EEENS_21__unordered_map_equalIS7_SE_SJ_SH_Lb1EEENS5_ISE_EEE17__deallocate_nodeEPNS_16__hash_node_baseIPNS_11__hash_nodeISE_PvEEEE, symObjAddr: 0x2F128, symBinAddr: 0x10002FA6C, symSize: 0xA8 }
  - { offsetInCU: 0x5D539, offset: 0x5D539, size: 0x8, addend: 0x0, symName: __ZNSt3__117__compressed_pairINS_16__hash_node_baseIPNS_11__hash_nodeINS_17__hash_value_typeINS_12basic_stringIcNS_11char_traitsIcEENS_9allocatorIcEEEENS_10unique_ptrIN4sdsl19structure_tree_nodeENS_14default_deleteISC_EEEEEEPvEEEENS7_ISI_EEE5firstB8ue170006Ev, symObjAddr: 0x2F1D0, symBinAddr: 0x10002FB14, symSize: 0x24 }
  - { offsetInCU: 0x5D55F, offset: 0x5D55F, size: 0x8, addend: 0x0, symName: __ZNSt3__110unique_ptrIA_PNS_16__hash_node_baseIPNS_11__hash_nodeINS_17__hash_value_typeINS_12basic_stringIcNS_11char_traitsIcEENS_9allocatorIcEEEENS0_IN4sdsl19structure_tree_nodeENS_14default_deleteISB_EEEEEEPvEEEENS_25__bucket_list_deallocatorINS7_ISK_EEEEED1B8ue170006Ev, symObjAddr: 0x2F1F4, symBinAddr: 0x10002FB38, symSize: 0x2C }
  - { offsetInCU: 0x5D589, offset: 0x5D589, size: 0x8, addend: 0x0, symName: __ZNSt3__112__hash_tableINS_17__hash_value_typeINS_12basic_stringIcNS_11char_traitsIcEENS_9allocatorIcEEEENS_10unique_ptrIN4sdsl19structure_tree_nodeENS_14default_deleteISA_EEEEEENS_22__unordered_map_hasherIS7_SE_NS_4hashIS7_EENS_8equal_toIS7_EELb1EEENS_21__unordered_map_equalIS7_SE_SJ_SH_Lb1EEENS5_ISE_EEE12__node_allocB8ue170006Ev, symObjAddr: 0x2F220, symBinAddr: 0x10002FB64, symSize: 0x28 }
  - { offsetInCU: 0x5D5AF, offset: 0x5D5AF, size: 0x8, addend: 0x0, symName: __ZNSt3__116allocator_traitsINS_9allocatorINS_11__hash_nodeINS_17__hash_value_typeINS_12basic_stringIcNS_11char_traitsIcEENS1_IcEEEENS_10unique_ptrIN4sdsl19structure_tree_nodeENS_14default_deleteISB_EEEEEEPvEEEEE7destroyB8ue170006INS_4pairIKS8_SE_EEvvEEvRSI_PT_, symObjAddr: 0x2F248, symBinAddr: 0x10002FB8C, symSize: 0x28 }
  - { offsetInCU: 0x5D5EA, offset: 0x5D5EA, size: 0x8, addend: 0x0, symName: __ZNSt3__122__hash_key_value_typesINS_17__hash_value_typeINS_12basic_stringIcNS_11char_traitsIcEENS_9allocatorIcEEEENS_10unique_ptrIN4sdsl19structure_tree_nodeENS_14default_deleteISA_EEEEEEE9__get_ptrB8ue170006ERSE_, symObjAddr: 0x2F270, symBinAddr: 0x10002FBB4, symSize: 0x24 }
  - { offsetInCU: 0x5D60D, offset: 0x5D60D, size: 0x8, addend: 0x0, symName: __ZNSt3__116allocator_traitsINS_9allocatorINS_11__hash_nodeINS_17__hash_value_typeINS_12basic_stringIcNS_11char_traitsIcEENS1_IcEEEENS_10unique_ptrIN4sdsl19structure_tree_nodeENS_14default_deleteISB_EEEEEEPvEEEEE10deallocateB8ue170006ERSI_PSH_m, symObjAddr: 0x2F294, symBinAddr: 0x10002FBD8, symSize: 0x34 }
  - { offsetInCU: 0x5D64F, offset: 0x5D64F, size: 0x8, addend: 0x0, symName: __ZNSt3__117__compressed_pairINS_16__hash_node_baseIPNS_11__hash_nodeINS_17__hash_value_typeINS_12basic_stringIcNS_11char_traitsIcEENS_9allocatorIcEEEENS_10unique_ptrIN4sdsl19structure_tree_nodeENS_14default_deleteISC_EEEEEEPvEEEENS7_ISI_EEE6secondB8ue170006Ev, symObjAddr: 0x2F2C8, symBinAddr: 0x10002FC0C, symSize: 0x24 }
  - { offsetInCU: 0x5D675, offset: 0x5D675, size: 0x8, addend: 0x0, symName: __ZNSt3__122__compressed_pair_elemINS_9allocatorINS_11__hash_nodeINS_17__hash_value_typeINS_12basic_stringIcNS_11char_traitsIcEENS1_IcEEEENS_10unique_ptrIN4sdsl19structure_tree_nodeENS_14default_deleteISB_EEEEEEPvEEEELi1ELb1EE5__getB8ue170006Ev, symObjAddr: 0x2F2EC, symBinAddr: 0x10002FC30, symSize: 0x14 }
  - { offsetInCU: 0x5D69B, offset: 0x5D69B, size: 0x8, addend: 0x0, symName: __ZNSt3__14pairIKNS_12basic_stringIcNS_11char_traitsIcEENS_9allocatorIcEEEENS_10unique_ptrIN4sdsl19structure_tree_nodeENS_14default_deleteISA_EEEEED1Ev, symObjAddr: 0x2F300, symBinAddr: 0x10002FC44, symSize: 0x2C }
  - { offsetInCU: 0x5D6C7, offset: 0x5D6C7, size: 0x8, addend: 0x0, symName: __ZNSt3__14pairIKNS_12basic_stringIcNS_11char_traitsIcEENS_9allocatorIcEEEENS_10unique_ptrIN4sdsl19structure_tree_nodeENS_14default_deleteISA_EEEEED2Ev, symObjAddr: 0x2F32C, symBinAddr: 0x10002FC70, symSize: 0x38 }
  - { offsetInCU: 0x5D6F3, offset: 0x5D6F3, size: 0x8, addend: 0x0, symName: __ZNSt3__117__hash_value_typeINS_12basic_stringIcNS_11char_traitsIcEENS_9allocatorIcEEEENS_10unique_ptrIN4sdsl19structure_tree_nodeENS_14default_deleteIS9_EEEEE11__get_valueB8ue170006Ev, symObjAddr: 0x2F364, symBinAddr: 0x10002FCA8, symSize: 0x14 }
  - { offsetInCU: 0x5D719, offset: 0x5D719, size: 0x8, addend: 0x0, symName: __ZNSt3__19allocatorINS_11__hash_nodeINS_17__hash_value_typeINS_12basic_stringIcNS_11char_traitsIcEENS0_IcEEEENS_10unique_ptrIN4sdsl19structure_tree_nodeENS_14default_deleteISA_EEEEEEPvEEE10deallocateB8ue170006EPSG_m, symObjAddr: 0x2F378, symBinAddr: 0x10002FCBC, symSize: 0x44 }
  - { offsetInCU: 0x5D75B, offset: 0x5D75B, size: 0x8, addend: 0x0, symName: __ZNSt3__122__compressed_pair_elemINS_16__hash_node_baseIPNS_11__hash_nodeINS_17__hash_value_typeINS_12basic_stringIcNS_11char_traitsIcEENS_9allocatorIcEEEENS_10unique_ptrIN4sdsl19structure_tree_nodeENS_14default_deleteISC_EEEEEEPvEEEELi0ELb0EE5__getB8ue170006Ev, symObjAddr: 0x2F3BC, symBinAddr: 0x10002FD00, symSize: 0x14 }
  - { offsetInCU: 0x5D781, offset: 0x5D781, size: 0x8, addend: 0x0, symName: __ZNSt3__110unique_ptrIA_PNS_16__hash_node_baseIPNS_11__hash_nodeINS_17__hash_value_typeINS_12basic_stringIcNS_11char_traitsIcEENS_9allocatorIcEEEENS0_IN4sdsl19structure_tree_nodeENS_14default_deleteISB_EEEEEEPvEEEENS_25__bucket_list_deallocatorINS7_ISK_EEEEED2B8ue170006Ev, symObjAddr: 0x2F3D0, symBinAddr: 0x10002FD14, symSize: 0x30 }
  - { offsetInCU: 0x5D7AB, offset: 0x5D7AB, size: 0x8, addend: 0x0, symName: __ZNSt3__110unique_ptrIA_PNS_16__hash_node_baseIPNS_11__hash_nodeINS_17__hash_value_typeINS_12basic_stringIcNS_11char_traitsIcEENS_9allocatorIcEEEENS0_IN4sdsl19structure_tree_nodeENS_14default_deleteISB_EEEEEEPvEEEENS_25__bucket_list_deallocatorINS7_ISK_EEEEE5resetB8ue170006EDn, symObjAddr: 0x2F400, symBinAddr: 0x10002FD44, symSize: 0x6C }
  - { offsetInCU: 0x5D7EC, offset: 0x5D7EC, size: 0x8, addend: 0x0, symName: __ZNSt3__117__compressed_pairIPPNS_16__hash_node_baseIPNS_11__hash_nodeINS_17__hash_value_typeINS_12basic_stringIcNS_11char_traitsIcEENS_9allocatorIcEEEENS_10unique_ptrIN4sdsl19structure_tree_nodeENS_14default_deleteISC_EEEEEEPvEEEENS_25__bucket_list_deallocatorINS7_ISL_EEEEE5firstB8ue170006Ev, symObjAddr: 0x2F46C, symBinAddr: 0x10002FDB0, symSize: 0x24 }
  - { offsetInCU: 0x5D812, offset: 0x5D812, size: 0x8, addend: 0x0, symName: __ZNSt3__117__compressed_pairIPPNS_16__hash_node_baseIPNS_11__hash_nodeINS_17__hash_value_typeINS_12basic_stringIcNS_11char_traitsIcEENS_9allocatorIcEEEENS_10unique_ptrIN4sdsl19structure_tree_nodeENS_14default_deleteISC_EEEEEEPvEEEENS_25__bucket_list_deallocatorINS7_ISL_EEEEE6secondB8ue170006Ev, symObjAddr: 0x2F490, symBinAddr: 0x10002FDD4, symSize: 0x28 }
  - { offsetInCU: 0x5D838, offset: 0x5D838, size: 0x8, addend: 0x0, symName: __ZNSt3__125__bucket_list_deallocatorINS_9allocatorIPNS_16__hash_node_baseIPNS_11__hash_nodeINS_17__hash_value_typeINS_12basic_stringIcNS_11char_traitsIcEENS1_IcEEEENS_10unique_ptrIN4sdsl19structure_tree_nodeENS_14default_deleteISC_EEEEEEPvEEEEEEEclB8ue170006EPSL_, symObjAddr: 0x2F4B8, symBinAddr: 0x10002FDFC, symSize: 0x58 }
  - { offsetInCU: 0x5D86D, offset: 0x5D86D, size: 0x8, addend: 0x0, symName: __ZNSt3__122__compressed_pair_elemIPPNS_16__hash_node_baseIPNS_11__hash_nodeINS_17__hash_value_typeINS_12basic_stringIcNS_11char_traitsIcEENS_9allocatorIcEEEENS_10unique_ptrIN4sdsl19structure_tree_nodeENS_14default_deleteISC_EEEEEEPvEEEELi0ELb0EE5__getB8ue170006Ev, symObjAddr: 0x2F510, symBinAddr: 0x10002FE54, symSize: 0x14 }
  - { offsetInCU: 0x5D893, offset: 0x5D893, size: 0x8, addend: 0x0, symName: __ZNSt3__122__compressed_pair_elemINS_25__bucket_list_deallocatorINS_9allocatorIPNS_16__hash_node_baseIPNS_11__hash_nodeINS_17__hash_value_typeINS_12basic_stringIcNS_11char_traitsIcEENS2_IcEEEENS_10unique_ptrIN4sdsl19structure_tree_nodeENS_14default_deleteISD_EEEEEEPvEEEEEEEELi1ELb0EE5__getB8ue170006Ev, symObjAddr: 0x2F524, symBinAddr: 0x10002FE68, symSize: 0x14 }
  - { offsetInCU: 0x5D8B9, offset: 0x5D8B9, size: 0x8, addend: 0x0, symName: __ZNSt3__116allocator_traitsINS_9allocatorIPNS_16__hash_node_baseIPNS_11__hash_nodeINS_17__hash_value_typeINS_12basic_stringIcNS_11char_traitsIcEENS1_IcEEEENS_10unique_ptrIN4sdsl19structure_tree_nodeENS_14default_deleteISC_EEEEEEPvEEEEEEE10deallocateB8ue170006ERSM_PSL_m, symObjAddr: 0x2F538, symBinAddr: 0x10002FE7C, symSize: 0x34 }
  - { offsetInCU: 0x5D8FB, offset: 0x5D8FB, size: 0x8, addend: 0x0, symName: __ZNSt3__125__bucket_list_deallocatorINS_9allocatorIPNS_16__hash_node_baseIPNS_11__hash_nodeINS_17__hash_value_typeINS_12basic_stringIcNS_11char_traitsIcEENS1_IcEEEENS_10unique_ptrIN4sdsl19structure_tree_nodeENS_14default_deleteISC_EEEEEEPvEEEEEEE7__allocB8ue170006Ev, symObjAddr: 0x2F56C, symBinAddr: 0x10002FEB0, symSize: 0x24 }
  - { offsetInCU: 0x5D921, offset: 0x5D921, size: 0x8, addend: 0x0, symName: __ZNSt3__125__bucket_list_deallocatorINS_9allocatorIPNS_16__hash_node_baseIPNS_11__hash_nodeINS_17__hash_value_typeINS_12basic_stringIcNS_11char_traitsIcEENS1_IcEEEENS_10unique_ptrIN4sdsl19structure_tree_nodeENS_14default_deleteISC_EEEEEEPvEEEEEEE4sizeB8ue170006Ev, symObjAddr: 0x2F590, symBinAddr: 0x10002FED4, symSize: 0x24 }
  - { offsetInCU: 0x5D947, offset: 0x5D947, size: 0x8, addend: 0x0, symName: __ZNSt3__19allocatorIPNS_16__hash_node_baseIPNS_11__hash_nodeINS_17__hash_value_typeINS_12basic_stringIcNS_11char_traitsIcEENS0_IcEEEENS_10unique_ptrIN4sdsl19structure_tree_nodeENS_14default_deleteISB_EEEEEEPvEEEEE10deallocateB8ue170006EPSK_m, symObjAddr: 0x2F5B4, symBinAddr: 0x10002FEF8, symSize: 0x40 }
  - { offsetInCU: 0x5D989, offset: 0x5D989, size: 0x8, addend: 0x0, symName: __ZNSt3__117__compressed_pairImNS_9allocatorIPNS_16__hash_node_baseIPNS_11__hash_nodeINS_17__hash_value_typeINS_12basic_stringIcNS_11char_traitsIcEENS1_IcEEEENS_10unique_ptrIN4sdsl19structure_tree_nodeENS_14default_deleteISC_EEEEEEPvEEEEEEE6secondB8ue170006Ev, symObjAddr: 0x2F5F4, symBinAddr: 0x10002FF38, symSize: 0x24 }
  - { offsetInCU: 0x5D9AF, offset: 0x5D9AF, size: 0x8, addend: 0x0, symName: __ZNSt3__122__compressed_pair_elemINS_9allocatorIPNS_16__hash_node_baseIPNS_11__hash_nodeINS_17__hash_value_typeINS_12basic_stringIcNS_11char_traitsIcEENS1_IcEEEENS_10unique_ptrIN4sdsl19structure_tree_nodeENS_14default_deleteISC_EEEEEEPvEEEEEELi1ELb1EE5__getB8ue170006Ev, symObjAddr: 0x2F618, symBinAddr: 0x10002FF5C, symSize: 0x14 }
  - { offsetInCU: 0x5D9D5, offset: 0x5D9D5, size: 0x8, addend: 0x0, symName: __ZNSt3__117__compressed_pairImNS_9allocatorIPNS_16__hash_node_baseIPNS_11__hash_nodeINS_17__hash_value_typeINS_12basic_stringIcNS_11char_traitsIcEENS1_IcEEEENS_10unique_ptrIN4sdsl19structure_tree_nodeENS_14default_deleteISC_EEEEEEPvEEEEEEE5firstB8ue170006Ev, symObjAddr: 0x2F62C, symBinAddr: 0x10002FF70, symSize: 0x24 }
  - { offsetInCU: 0x5D9FB, offset: 0x5D9FB, size: 0x8, addend: 0x0, symName: __ZNSt3__110unique_ptrIN4sdsl19structure_tree_nodeENS_14default_deleteIS2_EEEC2B8ue170006ILb1EvEEPS2_, symObjAddr: 0x2F650, symBinAddr: 0x10002FF94, symSize: 0x44 }
  - { offsetInCU: 0x5DA3E, offset: 0x5DA3E, size: 0x8, addend: 0x0, symName: __ZNSt3__117__compressed_pairIPN4sdsl19structure_tree_nodeENS_14default_deleteIS2_EEEC1B8ue170006IRS3_NS_16__value_init_tagEEEOT_OT0_, symObjAddr: 0x2F694, symBinAddr: 0x10002FFD8, symSize: 0x3C }
  - { offsetInCU: 0x5DA96, offset: 0x5DA96, size: 0x8, addend: 0x0, symName: __ZNSt3__117__compressed_pairIPN4sdsl19structure_tree_nodeENS_14default_deleteIS2_EEEC2B8ue170006IRS3_NS_16__value_init_tagEEEOT_OT0_, symObjAddr: 0x2F6D0, symBinAddr: 0x100030014, symSize: 0x40 }
  - { offsetInCU: 0x5DAEE, offset: 0x5DAEE, size: 0x8, addend: 0x0, symName: __ZNSt3__122__compressed_pair_elemIPN4sdsl19structure_tree_nodeELi0ELb0EEC2B8ue170006IRS3_vEEOT_, symObjAddr: 0x2F710, symBinAddr: 0x100030054, symSize: 0x24 }
  - { offsetInCU: 0x5DB30, offset: 0x5DB30, size: 0x8, addend: 0x0, symName: __ZNSt3__122__compressed_pair_elemINS_14default_deleteIN4sdsl19structure_tree_nodeEEELi1ELb1EEC2B8ue170006ENS_16__value_init_tagE, symObjAddr: 0x2F734, symBinAddr: 0x100030078, symSize: 0x14 }
  - { offsetInCU: 0x5DB7C, offset: 0x5DB7C, size: 0x8, addend: 0x0, symName: __ZNSt3__112__hash_tableINS_17__hash_value_typeINS_12basic_stringIcNS_11char_traitsIcEENS_9allocatorIcEEEENS_10unique_ptrIN4sdsl19structure_tree_nodeENS_14default_deleteISA_EEEEEENS_22__unordered_map_hasherIS7_SE_NS_4hashIS7_EENS_8equal_toIS7_EELb1EEENS_21__unordered_map_equalIS7_SE_SJ_SH_Lb1EEENS5_ISE_EEE25__emplace_unique_key_argsIS7_JRKNS_21piecewise_construct_tENS_5tupleIJRKS7_EEENST_IJEEEEEENS_4pairINS_15__hash_iteratorIPNS_11__hash_nodeISE_PvEEEEbEERKT_DpOT0_, symObjAddr: 0x2F748, symBinAddr: 0x10003008C, symSize: 0x4B8 }
  - { offsetInCU: 0x5DC86, offset: 0x5DC86, size: 0x8, addend: 0x0, symName: __ZNKSt3__115__hash_iteratorIPNS_11__hash_nodeINS_17__hash_value_typeINS_12basic_stringIcNS_11char_traitsIcEENS_9allocatorIcEEEENS_10unique_ptrIN4sdsl19structure_tree_nodeENS_14default_deleteISB_EEEEEEPvEEEptB8ue170006Ev, symObjAddr: 0x2FC30, symBinAddr: 0x100030574, symSize: 0x30 }
  - { offsetInCU: 0x5DCAC, offset: 0x5DCAC, size: 0x8, addend: 0x0, symName: __ZNSt3__112__hash_tableINS_17__hash_value_typeINS_12basic_stringIcNS_11char_traitsIcEENS_9allocatorIcEEEENS_10unique_ptrIN4sdsl19structure_tree_nodeENS_14default_deleteISA_EEEEEENS_22__unordered_map_hasherIS7_SE_NS_4hashIS7_EENS_8equal_toIS7_EELb1EEENS_21__unordered_map_equalIS7_SE_SJ_SH_Lb1EEENS5_ISE_EEE21__construct_node_hashIRKNS_21piecewise_construct_tEJNS_5tupleIJRKS7_EEENST_IJEEEEEENS8_INS_11__hash_nodeISE_PvEENS_22__hash_node_destructorINS5_IS10_EEEEEEmOT_DpOT0_, symObjAddr: 0x2FC60, symBinAddr: 0x1000305A4, symSize: 0x150 }
  - { offsetInCU: 0x5DD48, offset: 0x5DD48, size: 0x8, addend: 0x0, symName: __ZNSt3__112__hash_tableINS_17__hash_value_typeINS_12basic_stringIcNS_11char_traitsIcEENS_9allocatorIcEEEENS_10unique_ptrIN4sdsl19structure_tree_nodeENS_14default_deleteISA_EEEEEENS_22__unordered_map_hasherIS7_SE_NS_4hashIS7_EENS_8equal_toIS7_EELb1EEENS_21__unordered_map_equalIS7_SE_SJ_SH_Lb1EEENS5_ISE_EEE4sizeB8ue170006Ev, symObjAddr: 0x2FDB0, symBinAddr: 0x1000306F4, symSize: 0x28 }
  - { offsetInCU: 0x5DD6E, offset: 0x5DD6E, size: 0x8, addend: 0x0, symName: __ZNSt3__112__hash_tableINS_17__hash_value_typeINS_12basic_stringIcNS_11char_traitsIcEENS_9allocatorIcEEEENS_10unique_ptrIN4sdsl19structure_tree_nodeENS_14default_deleteISA_EEEEEENS_22__unordered_map_hasherIS7_SE_NS_4hashIS7_EENS_8equal_toIS7_EELb1EEENS_21__unordered_map_equalIS7_SE_SJ_SH_Lb1EEENS5_ISE_EEE15max_load_factorB8ue170006Ev, symObjAddr: 0x2FDD8, symBinAddr: 0x10003071C, symSize: 0x28 }
  - { offsetInCU: 0x5DD94, offset: 0x5DD94, size: 0x8, addend: 0x0, symName: __ZNSt3__112__hash_tableINS_17__hash_value_typeINS_12basic_stringIcNS_11char_traitsIcEENS_9allocatorIcEEEENS_10unique_ptrIN4sdsl19structure_tree_nodeENS_14default_deleteISA_EEEEEENS_22__unordered_map_hasherIS7_SE_NS_4hashIS7_EENS_8equal_toIS7_EELb1EEENS_21__unordered_map_equalIS7_SE_SJ_SH_Lb1EEENS5_ISE_EEE15__rehash_uniqueB8ue170006Em, symObjAddr: 0x2FE00, symBinAddr: 0x100030744, symSize: 0x2C }
  - { offsetInCU: 0x5DDC9, offset: 0x5DDC9, size: 0x8, addend: 0x0, symName: __Z4ceilB8ue170006f, symObjAddr: 0x2FE7C, symBinAddr: 0x1000307C0, symSize: 0x18 }
  - { offsetInCU: 0x5DDF8, offset: 0x5DDF8, size: 0x8, addend: 0x0, symName: __ZNSt3__116__hash_node_baseIPNS_11__hash_nodeINS_17__hash_value_typeINS_12basic_stringIcNS_11char_traitsIcEENS_9allocatorIcEEEENS_10unique_ptrIN4sdsl19structure_tree_nodeENS_14default_deleteISB_EEEEEEPvEEE5__ptrB8ue170006Ev, symObjAddr: 0x2FE94, symBinAddr: 0x1000307D8, symSize: 0x24 }
  - { offsetInCU: 0x5DE1E, offset: 0x5DE1E, size: 0x8, addend: 0x0, symName: __ZNKSt3__110unique_ptrINS_11__hash_nodeINS_17__hash_value_typeINS_12basic_stringIcNS_11char_traitsIcEENS_9allocatorIcEEEENS0_IN4sdsl19structure_tree_nodeENS_14default_deleteISA_EEEEEEPvEENS_22__hash_node_destructorINS6_ISG_EEEEEptB8ue170006Ev, symObjAddr: 0x2FEB8, symBinAddr: 0x1000307FC, symSize: 0x28 }
  - { offsetInCU: 0x5DE44, offset: 0x5DE44, size: 0x8, addend: 0x0, symName: __ZNKSt3__110unique_ptrINS_11__hash_nodeINS_17__hash_value_typeINS_12basic_stringIcNS_11char_traitsIcEENS_9allocatorIcEEEENS0_IN4sdsl19structure_tree_nodeENS_14default_deleteISA_EEEEEEPvEENS_22__hash_node_destructorINS6_ISG_EEEEE3getB8ue170006Ev, symObjAddr: 0x2FEE0, symBinAddr: 0x100030824, symSize: 0x28 }
  - { offsetInCU: 0x5DE6A, offset: 0x5DE6A, size: 0x8, addend: 0x0, symName: __ZNSt3__110unique_ptrINS_11__hash_nodeINS_17__hash_value_typeINS_12basic_stringIcNS_11char_traitsIcEENS_9allocatorIcEEEENS0_IN4sdsl19structure_tree_nodeENS_14default_deleteISA_EEEEEEPvEENS_22__hash_node_destructorINS6_ISG_EEEEE7releaseB8ue170006Ev, symObjAddr: 0x2FF08, symBinAddr: 0x10003084C, symSize: 0x44 }
  - { offsetInCU: 0x5DE9F, offset: 0x5DE9F, size: 0x8, addend: 0x0, symName: __ZNSt3__110unique_ptrINS_11__hash_nodeINS_17__hash_value_typeINS_12basic_stringIcNS_11char_traitsIcEENS_9allocatorIcEEEENS0_IN4sdsl19structure_tree_nodeENS_14default_deleteISA_EEEEEEPvEENS_22__hash_node_destructorINS6_ISG_EEEEED1B8ue170006Ev, symObjAddr: 0x2FF4C, symBinAddr: 0x100030890, symSize: 0x2C }
  - { offsetInCU: 0x5DECF, offset: 0x5DECF, size: 0x8, addend: 0x0, symName: __ZNSt3__14pairINS_15__hash_iteratorIPNS_11__hash_nodeINS_17__hash_value_typeINS_12basic_stringIcNS_11char_traitsIcEENS_9allocatorIcEEEENS_10unique_ptrIN4sdsl19structure_tree_nodeENS_14default_deleteISC_EEEEEEPvEEEEbEC1B8ue170006ISK_RbLSH_0EEEOT_OT0_, symObjAddr: 0x2FF78, symBinAddr: 0x1000308BC, symSize: 0x3C }
  - { offsetInCU: 0x5DF2D, offset: 0x5DF2D, size: 0x8, addend: 0x0, symName: __ZNSt3__116allocator_traitsINS_9allocatorINS_11__hash_nodeINS_17__hash_value_typeINS_12basic_stringIcNS_11char_traitsIcEENS1_IcEEEENS_10unique_ptrIN4sdsl19structure_tree_nodeENS_14default_deleteISB_EEEEEEPvEEEEE8allocateB8ue170006ERSI_m, symObjAddr: 0x2FFB4, symBinAddr: 0x1000308F8, symSize: 0x2C }
  - { offsetInCU: 0x5DF60, offset: 0x5DF60, size: 0x8, addend: 0x0, symName: __ZNSt3__122__hash_node_destructorINS_9allocatorINS_11__hash_nodeINS_17__hash_value_typeINS_12basic_stringIcNS_11char_traitsIcEENS1_IcEEEENS_10unique_ptrIN4sdsl19structure_tree_nodeENS_14default_deleteISB_EEEEEEPvEEEEEC1B8ue170006ERSI_b, symObjAddr: 0x2FFE0, symBinAddr: 0x100030924, symSize: 0x48 }
  - { offsetInCU: 0x5DFAE, offset: 0x5DFAE, size: 0x8, addend: 0x0, symName: __ZNSt3__110unique_ptrINS_11__hash_nodeINS_17__hash_value_typeINS_12basic_stringIcNS_11char_traitsIcEENS_9allocatorIcEEEENS0_IN4sdsl19structure_tree_nodeENS_14default_deleteISA_EEEEEEPvEENS_22__hash_node_destructorINS6_ISG_EEEEEC1B8ue170006ILb1EvEEPSG_NS_16__dependent_typeINS_27__unique_ptr_deleter_sfinaeISJ_EEXT_EE20__good_rval_ref_typeE, symObjAddr: 0x30028, symBinAddr: 0x10003096C, symSize: 0x3C }
  - { offsetInCU: 0x5DFFF, offset: 0x5DFFF, size: 0x8, addend: 0x0, symName: __ZNSt3__116allocator_traitsINS_9allocatorINS_11__hash_nodeINS_17__hash_value_typeINS_12basic_stringIcNS_11char_traitsIcEENS1_IcEEEENS_10unique_ptrIN4sdsl19structure_tree_nodeENS_14default_deleteISB_EEEEEEPvEEEEE9constructB8ue170006INS_4pairIKS8_SE_EEJRKNS_21piecewise_construct_tENS_5tupleIJRSM_EEENSR_IJEEEEvEEvRSI_PT_DpOT0_, symObjAddr: 0x30064, symBinAddr: 0x1000309A8, symSize: 0x44 }
  - { offsetInCU: 0x5E07E, offset: 0x5E07E, size: 0x8, addend: 0x0, symName: __ZNSt3__110unique_ptrINS_11__hash_nodeINS_17__hash_value_typeINS_12basic_stringIcNS_11char_traitsIcEENS_9allocatorIcEEEENS0_IN4sdsl19structure_tree_nodeENS_14default_deleteISA_EEEEEEPvEENS_22__hash_node_destructorINS6_ISG_EEEEE11get_deleterB8ue170006Ev, symObjAddr: 0x300A8, symBinAddr: 0x1000309EC, symSize: 0x24 }
  - { offsetInCU: 0x5E0A4, offset: 0x5E0A4, size: 0x8, addend: 0x0, symName: __ZNSt3__19allocatorINS_11__hash_nodeINS_17__hash_value_typeINS_12basic_stringIcNS_11char_traitsIcEENS0_IcEEEENS_10unique_ptrIN4sdsl19structure_tree_nodeENS_14default_deleteISA_EEEEEEPvEEE8allocateB8ue170006Em, symObjAddr: 0x300CC, symBinAddr: 0x100030A10, symSize: 0x5C }
  - { offsetInCU: 0x5E0E3, offset: 0x5E0E3, size: 0x8, addend: 0x0, symName: __ZNSt3__116allocator_traitsINS_9allocatorINS_11__hash_nodeINS_17__hash_value_typeINS_12basic_stringIcNS_11char_traitsIcEENS1_IcEEEENS_10unique_ptrIN4sdsl19structure_tree_nodeENS_14default_deleteISB_EEEEEEPvEEEEE8max_sizeB8ue170006ISI_vEEmRKSI_, symObjAddr: 0x30128, symBinAddr: 0x100030A6C, symSize: 0x24 }
  - { offsetInCU: 0x5E111, offset: 0x5E111, size: 0x8, addend: 0x0, symName: __ZNKSt3__19allocatorINS_11__hash_nodeINS_17__hash_value_typeINS_12basic_stringIcNS_11char_traitsIcEENS0_IcEEEENS_10unique_ptrIN4sdsl19structure_tree_nodeENS_14default_deleteISA_EEEEEEPvEEE8max_sizeB8ue170006Ev, symObjAddr: 0x3014C, symBinAddr: 0x100030A90, symSize: 0x18 }
  - { offsetInCU: 0x5E137, offset: 0x5E137, size: 0x8, addend: 0x0, symName: __ZNSt3__122__hash_node_destructorINS_9allocatorINS_11__hash_nodeINS_17__hash_value_typeINS_12basic_stringIcNS_11char_traitsIcEENS1_IcEEEENS_10unique_ptrIN4sdsl19structure_tree_nodeENS_14default_deleteISB_EEEEEEPvEEEEEC2B8ue170006ERSI_b, symObjAddr: 0x30164, symBinAddr: 0x100030AA8, symSize: 0x38 }
  - { offsetInCU: 0x5E17F, offset: 0x5E17F, size: 0x8, addend: 0x0, symName: __ZNSt3__110unique_ptrINS_11__hash_nodeINS_17__hash_value_typeINS_12basic_stringIcNS_11char_traitsIcEENS_9allocatorIcEEEENS0_IN4sdsl19structure_tree_nodeENS_14default_deleteISA_EEEEEEPvEENS_22__hash_node_destructorINS6_ISG_EEEEEC2B8ue170006ILb1EvEEPSG_NS_16__dependent_typeINS_27__unique_ptr_deleter_sfinaeISJ_EEXT_EE20__good_rval_ref_typeE, symObjAddr: 0x3019C, symBinAddr: 0x100030AE0, symSize: 0x48 }
  - { offsetInCU: 0x5E1D0, offset: 0x5E1D0, size: 0x8, addend: 0x0, symName: __ZNSt3__117__compressed_pairIPNS_11__hash_nodeINS_17__hash_value_typeINS_12basic_stringIcNS_11char_traitsIcEENS_9allocatorIcEEEENS_10unique_ptrIN4sdsl19structure_tree_nodeENS_14default_deleteISB_EEEEEEPvEENS_22__hash_node_destructorINS6_ISH_EEEEEC1B8ue170006IRSI_SL_EEOT_OT0_, symObjAddr: 0x301E4, symBinAddr: 0x100030B28, symSize: 0x3C }
  - { offsetInCU: 0x5E228, offset: 0x5E228, size: 0x8, addend: 0x0, symName: __ZNSt3__117__compressed_pairIPNS_11__hash_nodeINS_17__hash_value_typeINS_12basic_stringIcNS_11char_traitsIcEENS_9allocatorIcEEEENS_10unique_ptrIN4sdsl19structure_tree_nodeENS_14default_deleteISB_EEEEEEPvEENS_22__hash_node_destructorINS6_ISH_EEEEEC2B8ue170006IRSI_SL_EEOT_OT0_, symObjAddr: 0x30220, symBinAddr: 0x100030B64, symSize: 0x48 }
  - { offsetInCU: 0x5E280, offset: 0x5E280, size: 0x8, addend: 0x0, symName: __ZNSt3__122__compressed_pair_elemIPNS_11__hash_nodeINS_17__hash_value_typeINS_12basic_stringIcNS_11char_traitsIcEENS_9allocatorIcEEEENS_10unique_ptrIN4sdsl19structure_tree_nodeENS_14default_deleteISB_EEEEEEPvEELi0ELb0EEC2B8ue170006IRSI_vEEOT_, symObjAddr: 0x30268, symBinAddr: 0x100030BAC, symSize: 0x24 }
  - { offsetInCU: 0x5E2C2, offset: 0x5E2C2, size: 0x8, addend: 0x0, symName: __ZNSt3__122__compressed_pair_elemINS_22__hash_node_destructorINS_9allocatorINS_11__hash_nodeINS_17__hash_value_typeINS_12basic_stringIcNS_11char_traitsIcEENS2_IcEEEENS_10unique_ptrIN4sdsl19structure_tree_nodeENS_14default_deleteISC_EEEEEEPvEEEEEELi1ELb0EEC2B8ue170006ISK_vEEOT_, symObjAddr: 0x3028C, symBinAddr: 0x100030BD0, symSize: 0x24 }
  - { offsetInCU: 0x5E304, offset: 0x5E304, size: 0x8, addend: 0x0, symName: __ZNSt3__19allocatorINS_11__hash_nodeINS_17__hash_value_typeINS_12basic_stringIcNS_11char_traitsIcEENS0_IcEEEENS_10unique_ptrIN4sdsl19structure_tree_nodeENS_14default_deleteISA_EEEEEEPvEEE9constructB8ue170006INS_4pairIKS7_SD_EEJRKNS_21piecewise_construct_tENS_5tupleIJRSK_EEENSP_IJEEEEEEvPT_DpOT0_, symObjAddr: 0x302B0, symBinAddr: 0x100030BF4, symSize: 0x44 }
  - { offsetInCU: 0x5E380, offset: 0x5E380, size: 0x8, addend: 0x0, symName: __ZNSt3__14pairIKNS_12basic_stringIcNS_11char_traitsIcEENS_9allocatorIcEEEENS_10unique_ptrIN4sdsl19structure_tree_nodeENS_14default_deleteISA_EEEEEC1B8ue170006IJRS7_EJEEENS_21piecewise_construct_tENS_5tupleIJDpT_EEENSI_IJDpT0_EEE, symObjAddr: 0x302F4, symBinAddr: 0x100030C38, symSize: 0x3C }
  - { offsetInCU: 0x5E3E7, offset: 0x5E3E7, size: 0x8, addend: 0x0, symName: __ZNSt3__14pairIKNS_12basic_stringIcNS_11char_traitsIcEENS_9allocatorIcEEEENS_10unique_ptrIN4sdsl19structure_tree_nodeENS_14default_deleteISA_EEEEEC1B8ue170006IJRS7_EJEJLm0EEJEEENS_21piecewise_construct_tERNS_5tupleIJDpT_EEERNSI_IJDpT0_EEENS_15__tuple_indicesIJXspT1_EEEENSR_IJXspT2_EEEE, symObjAddr: 0x30330, symBinAddr: 0x100030C74, symSize: 0x3C }
  - { offsetInCU: 0x5E477, offset: 0x5E477, size: 0x8, addend: 0x0, symName: __ZNSt3__14pairIKNS_12basic_stringIcNS_11char_traitsIcEENS_9allocatorIcEEEENS_10unique_ptrIN4sdsl19structure_tree_nodeENS_14default_deleteISA_EEEEEC2B8ue170006IJRS7_EJEJLm0EEJEEENS_21piecewise_construct_tERNS_5tupleIJDpT_EEERNSI_IJDpT0_EEENS_15__tuple_indicesIJXspT1_EEEENSR_IJXspT2_EEEE, symObjAddr: 0x3036C, symBinAddr: 0x100030CB0, symSize: 0x50 }
  - { offsetInCU: 0x5E507, offset: 0x5E507, size: 0x8, addend: 0x0, symName: __ZNSt3__110unique_ptrIN4sdsl19structure_tree_nodeENS_14default_deleteIS2_EEEC1B8ue170006ILb1EvEEv, symObjAddr: 0x303E0, symBinAddr: 0x100030D24, symSize: 0x2C }
  - { offsetInCU: 0x5E53C, offset: 0x5E53C, size: 0x8, addend: 0x0, symName: __ZNSt3__112__tuple_leafILm0ERKNS_12basic_stringIcNS_11char_traitsIcEENS_9allocatorIcEEEELb0EE3getB8ue170006Ev, symObjAddr: 0x3040C, symBinAddr: 0x100030D50, symSize: 0x18 }
  - { offsetInCU: 0x5E562, offset: 0x5E562, size: 0x8, addend: 0x0, symName: __ZNSt3__110unique_ptrIN4sdsl19structure_tree_nodeENS_14default_deleteIS2_EEEC2B8ue170006ILb1EvEEv, symObjAddr: 0x30424, symBinAddr: 0x100030D68, symSize: 0x3C }
  - { offsetInCU: 0x5E597, offset: 0x5E597, size: 0x8, addend: 0x0, symName: __ZNSt3__117__compressed_pairIPN4sdsl19structure_tree_nodeENS_14default_deleteIS2_EEEC1B8ue170006INS_16__value_init_tagES8_EEOT_OT0_, symObjAddr: 0x30460, symBinAddr: 0x100030DA4, symSize: 0x3C }
  - { offsetInCU: 0x5E5EF, offset: 0x5E5EF, size: 0x8, addend: 0x0, symName: __ZNSt3__117__compressed_pairIPN4sdsl19structure_tree_nodeENS_14default_deleteIS2_EEEC2B8ue170006INS_16__value_init_tagES8_EEOT_OT0_, symObjAddr: 0x3049C, symBinAddr: 0x100030DE0, symSize: 0x3C }
  - { offsetInCU: 0x5E647, offset: 0x5E647, size: 0x8, addend: 0x0, symName: __ZNSt3__122__compressed_pair_elemIPN4sdsl19structure_tree_nodeELi0ELb0EEC2B8ue170006ENS_16__value_init_tagE, symObjAddr: 0x304D8, symBinAddr: 0x100030E1C, symSize: 0x18 }
  - { offsetInCU: 0x5E67C, offset: 0x5E67C, size: 0x8, addend: 0x0, symName: __ZNSt3__117__compressed_pairIPNS_11__hash_nodeINS_17__hash_value_typeINS_12basic_stringIcNS_11char_traitsIcEENS_9allocatorIcEEEENS_10unique_ptrIN4sdsl19structure_tree_nodeENS_14default_deleteISB_EEEEEEPvEENS_22__hash_node_destructorINS6_ISH_EEEEE6secondB8ue170006Ev, symObjAddr: 0x304F0, symBinAddr: 0x100030E34, symSize: 0x28 }
  - { offsetInCU: 0x5E6A2, offset: 0x5E6A2, size: 0x8, addend: 0x0, symName: __ZNSt3__122__compressed_pair_elemINS_22__hash_node_destructorINS_9allocatorINS_11__hash_nodeINS_17__hash_value_typeINS_12basic_stringIcNS_11char_traitsIcEENS2_IcEEEENS_10unique_ptrIN4sdsl19structure_tree_nodeENS_14default_deleteISC_EEEEEEPvEEEEEELi1ELb0EE5__getB8ue170006Ev, symObjAddr: 0x30518, symBinAddr: 0x100030E5C, symSize: 0x14 }
  - { offsetInCU: 0x5E6C8, offset: 0x5E6C8, size: 0x8, addend: 0x0, symName: __ZNSt3__117__compressed_pairImNS_22__unordered_map_hasherINS_12basic_stringIcNS_11char_traitsIcEENS_9allocatorIcEEEENS_17__hash_value_typeIS7_NS_10unique_ptrIN4sdsl19structure_tree_nodeENS_14default_deleteISB_EEEEEENS_4hashIS7_EENS_8equal_toIS7_EELb1EEEE5firstB8ue170006Ev, symObjAddr: 0x3052C, symBinAddr: 0x100030E70, symSize: 0x24 }
  - { offsetInCU: 0x5E6EE, offset: 0x5E6EE, size: 0x8, addend: 0x0, symName: __ZNSt3__117__compressed_pairIfNS_21__unordered_map_equalINS_12basic_stringIcNS_11char_traitsIcEENS_9allocatorIcEEEENS_17__hash_value_typeIS7_NS_10unique_ptrIN4sdsl19structure_tree_nodeENS_14default_deleteISB_EEEEEENS_8equal_toIS7_EENS_4hashIS7_EELb1EEEE5firstB8ue170006Ev, symObjAddr: 0x30550, symBinAddr: 0x100030E94, symSize: 0x24 }
  - { offsetInCU: 0x5E714, offset: 0x5E714, size: 0x8, addend: 0x0, symName: __ZNSt3__122__compressed_pair_elemIfLi0ELb0EE5__getB8ue170006Ev, symObjAddr: 0x30574, symBinAddr: 0x100030EB8, symSize: 0x14 }
  - { offsetInCU: 0x5E73A, offset: 0x5E73A, size: 0x8, addend: 0x0, symName: __ZNSt3__112__hash_tableINS_17__hash_value_typeINS_12basic_stringIcNS_11char_traitsIcEENS_9allocatorIcEEEENS_10unique_ptrIN4sdsl19structure_tree_nodeENS_14default_deleteISA_EEEEEENS_22__unordered_map_hasherIS7_SE_NS_4hashIS7_EENS_8equal_toIS7_EELb1EEENS_21__unordered_map_equalIS7_SE_SJ_SH_Lb1EEENS5_ISE_EEE8__rehashILb1EEEvm, symObjAddr: 0x30588, symBinAddr: 0x100030ECC, symSize: 0x1A8 }
  - { offsetInCU: 0x5E78A, offset: 0x5E78A, size: 0x8, addend: 0x0, symName: __ZNSt3__112__hash_tableINS_17__hash_value_typeINS_12basic_stringIcNS_11char_traitsIcEENS_9allocatorIcEEEENS_10unique_ptrIN4sdsl19structure_tree_nodeENS_14default_deleteISA_EEEEEENS_22__unordered_map_hasherIS7_SE_NS_4hashIS7_EENS_8equal_toIS7_EELb1EEENS_21__unordered_map_equalIS7_SE_SJ_SH_Lb1EEENS5_ISE_EEE11__do_rehashILb1EEEvm, symObjAddr: 0x30730, symBinAddr: 0x100031074, symSize: 0x288 }
  - { offsetInCU: 0x5E86D, offset: 0x5E86D, size: 0x8, addend: 0x0, symName: __ZNSt3__110unique_ptrIA_PNS_16__hash_node_baseIPNS_11__hash_nodeINS_17__hash_value_typeINS_12basic_stringIcNS_11char_traitsIcEENS_9allocatorIcEEEENS0_IN4sdsl19structure_tree_nodeENS_14default_deleteISB_EEEEEEPvEEEENS_25__bucket_list_deallocatorINS7_ISK_EEEEE11get_deleterB8ue170006Ev, symObjAddr: 0x30A24, symBinAddr: 0x100031368, symSize: 0x24 }
  - { offsetInCU: 0x5E893, offset: 0x5E893, size: 0x8, addend: 0x0, symName: __ZNSt3__110unique_ptrIA_PNS_16__hash_node_baseIPNS_11__hash_nodeINS_17__hash_value_typeINS_12basic_stringIcNS_11char_traitsIcEENS_9allocatorIcEEEENS0_IN4sdsl19structure_tree_nodeENS_14default_deleteISB_EEEEEEPvEEEENS_25__bucket_list_deallocatorINS7_ISK_EEEEE5resetB8ue170006IPSK_EENS_9enable_ifIXsr28_CheckArrayPointerConversionIT_EE5valueEvE4typeEST_, symObjAddr: 0x30A48, symBinAddr: 0x10003138C, symSize: 0x78 }
  - { offsetInCU: 0x5E8E0, offset: 0x5E8E0, size: 0x8, addend: 0x0, symName: __ZNSt3__116allocator_traitsINS_9allocatorIPNS_16__hash_node_baseIPNS_11__hash_nodeINS_17__hash_value_typeINS_12basic_stringIcNS_11char_traitsIcEENS1_IcEEEENS_10unique_ptrIN4sdsl19structure_tree_nodeENS_14default_deleteISC_EEEEEEPvEEEEEEE8allocateB8ue170006ERSM_m, symObjAddr: 0x30AC0, symBinAddr: 0x100031404, symSize: 0x2C }
  - { offsetInCU: 0x5E913, offset: 0x5E913, size: 0x8, addend: 0x0, symName: __ZNSt3__19allocatorIPNS_16__hash_node_baseIPNS_11__hash_nodeINS_17__hash_value_typeINS_12basic_stringIcNS_11char_traitsIcEENS0_IcEEEENS_10unique_ptrIN4sdsl19structure_tree_nodeENS_14default_deleteISB_EEEEEEPvEEEEE8allocateB8ue170006Em, symObjAddr: 0x30AEC, symBinAddr: 0x100031430, symSize: 0x58 }
  - { offsetInCU: 0x5E952, offset: 0x5E952, size: 0x8, addend: 0x0, symName: __ZNSt3__116allocator_traitsINS_9allocatorIPNS_16__hash_node_baseIPNS_11__hash_nodeINS_17__hash_value_typeINS_12basic_stringIcNS_11char_traitsIcEENS1_IcEEEENS_10unique_ptrIN4sdsl19structure_tree_nodeENS_14default_deleteISC_EEEEEEPvEEEEEEE8max_sizeB8ue170006ISM_vEEmRKSM_, symObjAddr: 0x30B44, symBinAddr: 0x100031488, symSize: 0x24 }
  - { offsetInCU: 0x5E980, offset: 0x5E980, size: 0x8, addend: 0x0, symName: __ZNKSt3__19allocatorIPNS_16__hash_node_baseIPNS_11__hash_nodeINS_17__hash_value_typeINS_12basic_stringIcNS_11char_traitsIcEENS0_IcEEEENS_10unique_ptrIN4sdsl19structure_tree_nodeENS_14default_deleteISB_EEEEEEPvEEEEE8max_sizeB8ue170006Ev, symObjAddr: 0x30B68, symBinAddr: 0x1000314AC, symSize: 0x14 }
  - { offsetInCU: 0x5E9A6, offset: 0x5E9A6, size: 0x8, addend: 0x0, symName: __ZNKSt3__117__compressed_pairIPNS_11__hash_nodeINS_17__hash_value_typeINS_12basic_stringIcNS_11char_traitsIcEENS_9allocatorIcEEEENS_10unique_ptrIN4sdsl19structure_tree_nodeENS_14default_deleteISB_EEEEEEPvEENS_22__hash_node_destructorINS6_ISH_EEEEE5firstB8ue170006Ev, symObjAddr: 0x30B7C, symBinAddr: 0x1000314C0, symSize: 0x24 }
  - { offsetInCU: 0x5E9CC, offset: 0x5E9CC, size: 0x8, addend: 0x0, symName: __ZNKSt3__122__compressed_pair_elemIPNS_11__hash_nodeINS_17__hash_value_typeINS_12basic_stringIcNS_11char_traitsIcEENS_9allocatorIcEEEENS_10unique_ptrIN4sdsl19structure_tree_nodeENS_14default_deleteISB_EEEEEEPvEELi0ELb0EE5__getB8ue170006Ev, symObjAddr: 0x30BA0, symBinAddr: 0x1000314E4, symSize: 0x14 }
  - { offsetInCU: 0x5E9F2, offset: 0x5E9F2, size: 0x8, addend: 0x0, symName: __ZNSt3__117__compressed_pairIPNS_11__hash_nodeINS_17__hash_value_typeINS_12basic_stringIcNS_11char_traitsIcEENS_9allocatorIcEEEENS_10unique_ptrIN4sdsl19structure_tree_nodeENS_14default_deleteISB_EEEEEEPvEENS_22__hash_node_destructorINS6_ISH_EEEEE5firstB8ue170006Ev, symObjAddr: 0x30BB4, symBinAddr: 0x1000314F8, symSize: 0x24 }
  - { offsetInCU: 0x5EA18, offset: 0x5EA18, size: 0x8, addend: 0x0, symName: __ZNSt3__122__compressed_pair_elemIPNS_11__hash_nodeINS_17__hash_value_typeINS_12basic_stringIcNS_11char_traitsIcEENS_9allocatorIcEEEENS_10unique_ptrIN4sdsl19structure_tree_nodeENS_14default_deleteISB_EEEEEEPvEELi0ELb0EE5__getB8ue170006Ev, symObjAddr: 0x30BD8, symBinAddr: 0x10003151C, symSize: 0x14 }
  - { offsetInCU: 0x5EA3E, offset: 0x5EA3E, size: 0x8, addend: 0x0, symName: __ZNSt3__110unique_ptrINS_11__hash_nodeINS_17__hash_value_typeINS_12basic_stringIcNS_11char_traitsIcEENS_9allocatorIcEEEENS0_IN4sdsl19structure_tree_nodeENS_14default_deleteISA_EEEEEEPvEENS_22__hash_node_destructorINS6_ISG_EEEEED2B8ue170006Ev, symObjAddr: 0x30BEC, symBinAddr: 0x100031530, symSize: 0x30 }
  - { offsetInCU: 0x5EA68, offset: 0x5EA68, size: 0x8, addend: 0x0, symName: __ZNSt3__110unique_ptrINS_11__hash_nodeINS_17__hash_value_typeINS_12basic_stringIcNS_11char_traitsIcEENS_9allocatorIcEEEENS0_IN4sdsl19structure_tree_nodeENS_14default_deleteISA_EEEEEEPvEENS_22__hash_node_destructorINS6_ISG_EEEEE5resetB8ue170006EPSG_, symObjAddr: 0x30C1C, symBinAddr: 0x100031560, symSize: 0x78 }
  - { offsetInCU: 0x5EAAC, offset: 0x5EAAC, size: 0x8, addend: 0x0, symName: __ZNSt3__122__hash_node_destructorINS_9allocatorINS_11__hash_nodeINS_17__hash_value_typeINS_12basic_stringIcNS_11char_traitsIcEENS1_IcEEEENS_10unique_ptrIN4sdsl19structure_tree_nodeENS_14default_deleteISB_EEEEEEPvEEEEEclB8ue170006EPSH_, symObjAddr: 0x30C94, symBinAddr: 0x1000315D8, symSize: 0x94 }
  - { offsetInCU: 0x5EAE1, offset: 0x5EAE1, size: 0x8, addend: 0x0, symName: __ZNSt3__14pairINS_15__hash_iteratorIPNS_11__hash_nodeINS_17__hash_value_typeINS_12basic_stringIcNS_11char_traitsIcEENS_9allocatorIcEEEENS_10unique_ptrIN4sdsl19structure_tree_nodeENS_14default_deleteISC_EEEEEEPvEEEEbEC2B8ue170006ISK_RbLSH_0EEEOT_OT0_, symObjAddr: 0x30D28, symBinAddr: 0x10003166C, symSize: 0x38 }
  - { offsetInCU: 0x5EB3F, offset: 0x5EB3F, size: 0x8, addend: 0x0, symName: __ZNSt3__15tupleIJRKNS_12basic_stringIcNS_11char_traitsIcEENS_9allocatorIcEEEEEEC1B8ue170006INS_4_AndELi0EEES8_, symObjAddr: 0x30D60, symBinAddr: 0x1000316A4, symSize: 0x34 }
  - { offsetInCU: 0x5EB87, offset: 0x5EB87, size: 0x8, addend: 0x0, symName: __ZNSt3__15tupleIJRKNS_12basic_stringIcNS_11char_traitsIcEENS_9allocatorIcEEEEEEC2B8ue170006INS_4_AndELi0EEES8_, symObjAddr: 0x30D94, symBinAddr: 0x1000316D8, symSize: 0x34 }
  - { offsetInCU: 0x5EBCF, offset: 0x5EBCF, size: 0x8, addend: 0x0, symName: __ZNSt3__112__tuple_implINS_15__tuple_indicesIJLm0EEEEJRKNS_12basic_stringIcNS_11char_traitsIcEENS_9allocatorIcEEEEEEC1B8ue170006IJLm0EEJSA_EJEJEJSA_EEENS1_IJXspT_EEEENS_13__tuple_typesIJDpT0_EEENS1_IJXspT1_EEEENSE_IJDpT2_EEEDpOT3_, symObjAddr: 0x30DC8, symBinAddr: 0x10003170C, symSize: 0x34 }
  - { offsetInCU: 0x5EC64, offset: 0x5EC64, size: 0x8, addend: 0x0, symName: __ZNSt3__112__tuple_implINS_15__tuple_indicesIJLm0EEEEJRKNS_12basic_stringIcNS_11char_traitsIcEENS_9allocatorIcEEEEEEC2B8ue170006IJLm0EEJSA_EJEJEJSA_EEENS1_IJXspT_EEEENS_13__tuple_typesIJDpT0_EEENS1_IJXspT1_EEEENSE_IJDpT2_EEEDpOT3_, symObjAddr: 0x30DFC, symBinAddr: 0x100031740, symSize: 0x34 }
  - { offsetInCU: 0x5ECF9, offset: 0x5ECF9, size: 0x8, addend: 0x0, symName: __ZNSt3__112__tuple_leafILm0ERKNS_12basic_stringIcNS_11char_traitsIcEENS_9allocatorIcEEEELb0EEC2B8ue170006IS8_vEEOT_, symObjAddr: 0x30E30, symBinAddr: 0x100031774, symSize: 0x20 }
  - { offsetInCU: 0x5ED3C, offset: 0x5ED3C, size: 0x8, addend: 0x0, symName: __ZNSt3__114pointer_traitsIPNS_17__hash_value_typeINS_12basic_stringIcNS_11char_traitsIcEENS_9allocatorIcEEEENS_10unique_ptrIN4sdsl19structure_tree_nodeENS_14default_deleteISA_EEEEEEE10pointer_toB8ue170006ERSE_, symObjAddr: 0x30E50, symBinAddr: 0x100031794, symSize: 0x14 }
  - { offsetInCU: 0x5ED5F, offset: 0x5ED5F, size: 0x8, addend: 0x0, symName: __ZNSt3__110unique_ptrIN4sdsl19structure_tree_nodeENS_14default_deleteIS2_EEE5resetB8ue170006EPS2_, symObjAddr: 0x30E64, symBinAddr: 0x1000317A8, symSize: 0x78 }
  - { offsetInCU: 0x5EDA3, offset: 0x5EDA3, size: 0x8, addend: 0x0, symName: __ZNSt3__110unique_ptrIN4sdsl19structure_tree_nodeENS_14default_deleteIS2_EEE7releaseB8ue170006Ev, symObjAddr: 0x30EDC, symBinAddr: 0x100031820, symSize: 0x44 }
  - { offsetInCU: 0x5EDD8, offset: 0x5EDD8, size: 0x8, addend: 0x0, symName: __ZNSt3__110unique_ptrIN4sdsl19structure_tree_nodeENS_14default_deleteIS2_EEE11get_deleterB8ue170006Ev, symObjAddr: 0x30F20, symBinAddr: 0x100031864, symSize: 0x24 }
  - { offsetInCU: 0x5EDFE, offset: 0x5EDFE, size: 0x8, addend: 0x0, symName: __ZNSt3__117__compressed_pairIPN4sdsl19structure_tree_nodeENS_14default_deleteIS2_EEE6secondB8ue170006Ev, symObjAddr: 0x30F44, symBinAddr: 0x100031888, symSize: 0x24 }
  - { offsetInCU: 0x5EE24, offset: 0x5EE24, size: 0x8, addend: 0x0, symName: __ZNSt3__117__compressed_pairIPN4sdsl19structure_tree_nodeENS_14default_deleteIS2_EEE5firstB8ue170006Ev, symObjAddr: 0x30F68, symBinAddr: 0x1000318AC, symSize: 0x24 }
  - { offsetInCU: 0x5EE4A, offset: 0x5EE4A, size: 0x8, addend: 0x0, symName: __ZNKSt3__114default_deleteIN4sdsl19structure_tree_nodeEEclB8ue170006EPS2_, symObjAddr: 0x30F8C, symBinAddr: 0x1000318D0, symSize: 0x4C }
  - { offsetInCU: 0x5EE7E, offset: 0x5EE7E, size: 0x8, addend: 0x0, symName: __ZNSt3__122__compressed_pair_elemIPN4sdsl19structure_tree_nodeELi0ELb0EE5__getB8ue170006Ev, symObjAddr: 0x30FD8, symBinAddr: 0x10003191C, symSize: 0x14 }
  - { offsetInCU: 0x5EEA4, offset: 0x5EEA4, size: 0x8, addend: 0x0, symName: __ZN4sdsl19structure_tree_nodeD1Ev, symObjAddr: 0x30FEC, symBinAddr: 0x100031930, symSize: 0x2C }
  - { offsetInCU: 0x5EED0, offset: 0x5EED0, size: 0x8, addend: 0x0, symName: __ZN4sdsl19structure_tree_nodeD2Ev, symObjAddr: 0x31018, symBinAddr: 0x10003195C, symSize: 0x44 }
  - { offsetInCU: 0x5EEFC, offset: 0x5EEFC, size: 0x8, addend: 0x0, symName: __ZNSt3__122__compressed_pair_elemINS_14default_deleteIN4sdsl19structure_tree_nodeEEELi1ELb1EE5__getB8ue170006Ev, symObjAddr: 0x3105C, symBinAddr: 0x1000319A0, symSize: 0x14 }
  - { offsetInCU: 0x5EF22, offset: 0x5EF22, size: 0x8, addend: 0x0, symName: __ZNSt3__110unique_ptrIN4sdsl19structure_tree_nodeENS_14default_deleteIS2_EEED2B8ue170006Ev, symObjAddr: 0x31070, symBinAddr: 0x1000319B4, symSize: 0x30 }
  - { offsetInCU: 0x5EF4C, offset: 0x5EF4C, size: 0x8, addend: 0x0, symName: __ZNKSt3__117__compressed_pairIPN4sdsl19structure_tree_nodeENS_14default_deleteIS2_EEE5firstB8ue170006Ev, symObjAddr: 0x310A0, symBinAddr: 0x1000319E4, symSize: 0x24 }
  - { offsetInCU: 0x5EF72, offset: 0x5EF72, size: 0x8, addend: 0x0, symName: __ZNKSt3__122__compressed_pair_elemIPN4sdsl19structure_tree_nodeELi0ELb0EE5__getB8ue170006Ev, symObjAddr: 0x310C4, symBinAddr: 0x100031A08, symSize: 0x14 }
  - { offsetInCU: 0x5EFC7, offset: 0x5EFC7, size: 0x8, addend: 0x0, symName: __ZNKSt9type_info4nameB8ue170006Ev, symObjAddr: 0x310D8, symBinAddr: 0x100031A1C, symSize: 0x24 }
  - { offsetInCU: 0x5F00D, offset: 0x5F00D, size: 0x8, addend: 0x0, symName: __ZNKSt3__112basic_stringIcNS_11char_traitsIcEENS_9allocatorIcEEE4findB8ue170006EPKcm, symObjAddr: 0x310FC, symBinAddr: 0x100031A40, symSize: 0x74 }
  - { offsetInCU: 0x5F053, offset: 0x5F053, size: 0x8, addend: 0x0, symName: __ZNSt3__111char_traitsIcE6lengthB8ue170006EPKc, symObjAddr: 0x31254, symBinAddr: 0x100031B98, symSize: 0x34 }
  - { offsetInCU: 0x5F076, offset: 0x5F076, size: 0x8, addend: 0x0, symName: __ZNSt3__111char_traitsIcE4findB8ue170006EPKcmRS2_, symObjAddr: 0x313DC, symBinAddr: 0x100031D20, symSize: 0x70 }
  - { offsetInCU: 0x5F0B5, offset: 0x5F0B5, size: 0x8, addend: 0x0, symName: __ZN4sdsl10int_vectorILh0EE12write_headerEyhRNSt3__113basic_ostreamIcNS2_11char_traitsIcEEEE, symObjAddr: 0x315D4, symBinAddr: 0x100031F18, symSize: 0x100 }
  - { offsetInCU: 0x5F106, offset: 0x5F106, size: 0x8, addend: 0x0, symName: __ZN4sdsl10int_vectorILh64EE12write_headerEyhRNSt3__113basic_ostreamIcNS2_11char_traitsIcEEEE, symObjAddr: 0x316D4, symBinAddr: 0x100032018, symSize: 0x98 }
  - { offsetInCU: 0x5F157, offset: 0x5F157, size: 0x8, addend: 0x0, symName: __ZNK4sdsl10int_vectorILh64EE10write_dataERNSt3__113basic_ostreamIcNS2_11char_traitsIcEEEE, symObjAddr: 0x3176C, symBinAddr: 0x1000320B0, symSize: 0x104 }
  - { offsetInCU: 0x5F1BB, offset: 0x5F1BB, size: 0x8, addend: 0x0, symName: __ZN4sdsl19structure_tree_node8add_sizeEm, symObjAddr: 0x31C28, symBinAddr: 0x10003256C, symSize: 0x28 }
  - { offsetInCU: 0x5F1EF, offset: 0x5F1EF, size: 0x8, addend: 0x0, symName: __ZN4sdsl10int_vectorILh64EE4loadERNSt3__113basic_istreamIcNS2_11char_traitsIcEEEE, symObjAddr: 0x31C50, symBinAddr: 0x100032594, symSize: 0xE8 }
  - { offsetInCU: 0x5F253, offset: 0x5F253, size: 0x8, addend: 0x0, symName: __ZN4sdsl10int_vectorILh64EE11read_headerERyRKhRNSt3__113basic_istreamIcNS5_11char_traitsIcEEEE, symObjAddr: 0x31D38, symBinAddr: 0x10003267C, symSize: 0x30 }
  - { offsetInCU: 0x5F295, offset: 0x5F295, size: 0x8, addend: 0x0, symName: __ZN4sdsl18select_support_mclILh1ELh1EEC2EPKNS_10int_vectorILh1EEE, symObjAddr: 0x31D98, symBinAddr: 0x1000326DC, symSize: 0x128 }
  - { offsetInCU: 0x5F2CE, offset: 0x5F2CE, size: 0x8, addend: 0x0, symName: __ZN4sdsl14select_supportC2EPKNS_10int_vectorILh1EEE, symObjAddr: 0x31EC0, symBinAddr: 0x100032804, symSize: 0x38 }
  - { offsetInCU: 0x5F306, offset: 0x5F306, size: 0x8, addend: 0x0, symName: __ZN4sdsl18select_support_mclILh1ELh1EE9init_slowEPKNS_10int_vectorILh1EEE, symObjAddr: 0x31EF8, symBinAddr: 0x10003283C, symSize: 0x7A8 }
  - { offsetInCU: 0x5F3EC, offset: 0x5F3EC, size: 0x8, addend: 0x0, symName: __ZN4sdsl18select_support_mclILh1ELh1EE9init_fastEPKNS_10int_vectorILh1EEE, symObjAddr: 0x326A0, symBinAddr: 0x100032FE4, symSize: 0xC6C }
  - { offsetInCU: 0x5F5AE, offset: 0x5F5AE, size: 0x8, addend: 0x0, symName: __ZN4sdsl14select_supportD2Ev, symObjAddr: 0x3330C, symBinAddr: 0x100033C50, symSize: 0x14 }
  - { offsetInCU: 0x5F5D8, offset: 0x5F5D8, size: 0x8, addend: 0x0, symName: __ZN4sdsl18select_support_mclILh1ELh1EED0Ev, symObjAddr: 0x33320, symBinAddr: 0x100033C64, symSize: 0x30 }
  - { offsetInCU: 0x5F603, offset: 0x5F603, size: 0x8, addend: 0x0, symName: __ZNK4sdsl18select_support_mclILh1ELh1EE6selectEy, symObjAddr: 0x33350, symBinAddr: 0x100033C94, symSize: 0x330 }
  - { offsetInCU: 0x5F6E2, offset: 0x5F6E2, size: 0x8, addend: 0x0, symName: __ZNK4sdsl18select_support_mclILh1ELh1EEclEy, symObjAddr: 0x33680, symBinAddr: 0x100033FC4, symSize: 0x34 }
  - { offsetInCU: 0x5F718, offset: 0x5F718, size: 0x8, addend: 0x0, symName: __ZNK4sdsl18select_support_mclILh1ELh1EE9serializeERNSt3__113basic_ostreamIcNS2_11char_traitsIcEEEEPNS_19structure_tree_nodeENS2_12basic_stringIcS5_NS2_9allocatorIcEEEE, symObjAddr: 0x336B4, symBinAddr: 0x100033FF8, symSize: 0x5F4 }
  - { offsetInCU: 0x5F824, offset: 0x5F824, size: 0x8, addend: 0x0, symName: __ZN4sdsl18select_support_mclILh1ELh1EE4loadERNSt3__113basic_istreamIcNS2_11char_traitsIcEEEEPKNS_10int_vectorILh1EEE, symObjAddr: 0x33CA8, symBinAddr: 0x1000345EC, symSize: 0x52C }
  - { offsetInCU: 0x5F8AB, offset: 0x5F8AB, size: 0x8, addend: 0x0, symName: __ZN4sdsl18select_support_mclILh1ELh1EE10set_vectorEPKNS_10int_vectorILh1EEE, symObjAddr: 0x341D4, symBinAddr: 0x100034B18, symSize: 0x20 }
  - { offsetInCU: 0x5F8E1, offset: 0x5F8E1, size: 0x8, addend: 0x0, symName: __ZN4sdsl14select_supportD1Ev, symObjAddr: 0x341F4, symBinAddr: 0x100034B38, symSize: 0x14 }
  - { offsetInCU: 0x5F90B, offset: 0x5F90B, size: 0x8, addend: 0x0, symName: __ZN4sdsl14select_supportD0Ev, symObjAddr: 0x34208, symBinAddr: 0x100034B4C, symSize: 0xC }
  - { offsetInCU: 0x5F935, offset: 0x5F935, size: 0x8, addend: 0x0, symName: __ZN4sdsl18select_support_mclILh1ELh1EE8initDataEv, symObjAddr: 0x34214, symBinAddr: 0x100034B58, symSize: 0x1A0 }
  - { offsetInCU: 0x5F95D, offset: 0x5F95D, size: 0x8, addend: 0x0, symName: __ZN4sdsl20select_support_traitILh1ELh1EE7arg_cntERKNS_10int_vectorILh1EEE, symObjAddr: 0x343B4, symBinAddr: 0x100034CF8, symSize: 0x24 }
  - { offsetInCU: 0x5F980, offset: 0x5F980, size: 0x8, addend: 0x0, symName: __ZN4sdsl10int_vectorILh0EEaSEOS1_, symObjAddr: 0x343D8, symBinAddr: 0x100034D1C, symSize: 0x34 }
  - { offsetInCU: 0x5F9B7, offset: 0x5F9B7, size: 0x8, addend: 0x0, symName: __ZN4sdsl20select_support_traitILh1ELh1EE9found_argEyRKNS_10int_vectorILh1EEE, symObjAddr: 0x3440C, symBinAddr: 0x100034D50, symSize: 0x3C }
  - { offsetInCU: 0x5F9E8, offset: 0x5F9E8, size: 0x8, addend: 0x0, symName: __ZN4sdsl4bits2hiEy, symObjAddr: 0x34448, symBinAddr: 0x100034D8C, symSize: 0x1D0 }
  - { offsetInCU: 0x5FA2C, offset: 0x5FA2C, size: 0x8, addend: 0x0, symName: __ZN4sdsl10int_vectorILh0EE4swapERS1_, symObjAddr: 0x34734, symBinAddr: 0x100035078, symSize: 0xA4 }
  - { offsetInCU: 0x5FA9E, offset: 0x5FA9E, size: 0x8, addend: 0x0, symName: __ZN4sdsl10int_vectorILh0EE5widthEh, symObjAddr: 0x347D8, symBinAddr: 0x10003511C, symSize: 0x30 }
  - { offsetInCU: 0x5FAD3, offset: 0x5FAD3, size: 0x8, addend: 0x0, symName: __ZN4sdsl16int_vector_traitILh0EE9set_widthEhRh, symObjAddr: 0x34808, symBinAddr: 0x10003514C, symSize: 0x60 }
  - { offsetInCU: 0x5FB04, offset: 0x5FB04, size: 0x8, addend: 0x0, symName: __ZN4sdsl20select_support_traitILh1ELh1EE16args_in_the_wordEyRy, symObjAddr: 0x34868, symBinAddr: 0x1000351AC, symSize: 0x28 }
  - { offsetInCU: 0x5FB32, offset: 0x5FB32, size: 0x8, addend: 0x0, symName: __ZN4sdsl20select_support_traitILh1ELh1EE23ith_arg_pos_in_the_wordEyyy, symObjAddr: 0x34890, symBinAddr: 0x1000351D4, symSize: 0x3C }
  - { offsetInCU: 0x5FB6E, offset: 0x5FB6E, size: 0x8, addend: 0x0, symName: __ZN4sdsl4bits3selEyj, symObjAddr: 0x348CC, symBinAddr: 0x100035210, symSize: 0x2C }
  - { offsetInCU: 0x5FBA3, offset: 0x5FBA3, size: 0x8, addend: 0x0, symName: __ZN4sdsl4bits4_selEyj, symObjAddr: 0x348F8, symBinAddr: 0x10003523C, symSize: 0x2F4 }
  - { offsetInCU: 0x5FBF6, offset: 0x5FBF6, size: 0x8, addend: 0x0, symName: __ZNK4sdsl10int_vectorILh0EE5emptyEv, symObjAddr: 0x34BEC, symBinAddr: 0x100035530, symSize: 0x28 }
  - { offsetInCU: 0x5FC1C, offset: 0x5FC1C, size: 0x8, addend: 0x0, symName: __ZN4sdsl20select_support_traitILh1ELh1EE10init_carryEPKyy, symObjAddr: 0x34C14, symBinAddr: 0x100035558, symSize: 0x18 }
  - { offsetInCU: 0x5FC47, offset: 0x5FC47, size: 0x8, addend: 0x0, symName: __ZN4sdsl20select_support_traitILh1ELh1EE22args_in_the_first_wordEyhy, symObjAddr: 0x34C2C, symBinAddr: 0x100035570, symSize: 0x44 }
  - { offsetInCU: 0x5FC83, offset: 0x5FC83, size: 0x8, addend: 0x0, symName: __ZN4sdsl20select_support_traitILh1ELh1EE29ith_arg_pos_in_the_first_wordEyyhy, symObjAddr: 0x34C70, symBinAddr: 0x1000355B4, symSize: 0x58 }
  - { offsetInCU: 0x5FCCD, offset: 0x5FCCD, size: 0x8, addend: 0x0, symName: __ZN4sdsl20select_support_traitILh1ELh1EE9get_carryEy, symObjAddr: 0x34CC8, symBinAddr: 0x10003560C, symSize: 0x14 }
  - { offsetInCU: 0x5FCED, offset: 0x5FCED, size: 0x8, addend: 0x0, symName: __ZNK4sdsl10int_vectorILh0EE9serializeERNSt3__113basic_ostreamIcNS2_11char_traitsIcEEEEPNS_19structure_tree_nodeENS2_12basic_stringIcS5_NS2_9allocatorIcEEEEb, symObjAddr: 0x34E04, symBinAddr: 0x100035748, symSize: 0xE8 }
  - { offsetInCU: 0x5FD70, offset: 0x5FD70, size: 0x8, addend: 0x0, symName: __ZNK4sdsl10int_vectorILh1EE9serializeERNSt3__113basic_ostreamIcNS2_11char_traitsIcEEEEPNS_19structure_tree_nodeENS2_12basic_stringIcS5_NS2_9allocatorIcEEEEb, symObjAddr: 0x34EEC, symBinAddr: 0x100035830, symSize: 0x118 }
  - { offsetInCU: 0x5FDF3, offset: 0x5FDF3, size: 0x8, addend: 0x0, symName: __ZNK4sdsl10int_vectorILh0EE10write_dataERNSt3__113basic_ostreamIcNS2_11char_traitsIcEEEE, symObjAddr: 0x3524C, symBinAddr: 0x100035B90, symSize: 0x104 }
  - { offsetInCU: 0x5FE57, offset: 0x5FE57, size: 0x8, addend: 0x0, symName: __ZNK4sdsl10int_vectorILh0EE8capacityEv, symObjAddr: 0x35350, symBinAddr: 0x100035C94, symSize: 0x24 }
  - { offsetInCU: 0x5FE7D, offset: 0x5FE7D, size: 0x8, addend: 0x0, symName: __ZN4sdsl10int_vectorILh1EE12write_headerEyhRNSt3__113basic_ostreamIcNS2_11char_traitsIcEEEE, symObjAddr: 0x35498, symBinAddr: 0x100035DDC, symSize: 0x98 }
  - { offsetInCU: 0x5FECE, offset: 0x5FECE, size: 0x8, addend: 0x0, symName: __ZNK4sdsl10int_vectorILh1EE10write_dataERNSt3__113basic_ostreamIcNS2_11char_traitsIcEEEE, symObjAddr: 0x35530, symBinAddr: 0x100035E74, symSize: 0x104 }
  - { offsetInCU: 0x5FF32, offset: 0x5FF32, size: 0x8, addend: 0x0, symName: __ZN4sdsl10int_vectorILh0EE4loadERNSt3__113basic_istreamIcNS2_11char_traitsIcEEEE, symObjAddr: 0x35634, symBinAddr: 0x100035F78, symSize: 0xE8 }
  - { offsetInCU: 0x5FF96, offset: 0x5FF96, size: 0x8, addend: 0x0, symName: __ZN4sdsl10int_vectorILh1EE4loadERNSt3__113basic_istreamIcNS2_11char_traitsIcEEEE, symObjAddr: 0x3571C, symBinAddr: 0x100036060, symSize: 0xE8 }
  - { offsetInCU: 0x5FFFA, offset: 0x5FFFA, size: 0x8, addend: 0x0, symName: __ZN4sdsl10int_vectorILh0EE11read_headerERyRhRNSt3__113basic_istreamIcNS4_11char_traitsIcEEEE, symObjAddr: 0x35804, symBinAddr: 0x100036148, symSize: 0x3C }
  - { offsetInCU: 0x6003C, offset: 0x6003C, size: 0x8, addend: 0x0, symName: __ZN4sdsl10int_vectorILh0EE10bit_resizeEy, symObjAddr: 0x35840, symBinAddr: 0x100036184, symSize: 0x2C }
  - { offsetInCU: 0x60078, offset: 0x60078, size: 0x8, addend: 0x0, symName: __ZN4sdsl14memory_manager6resizeINS_10int_vectorILh0EEEEEvRT_NS4_9size_typeE, symObjAddr: 0x3589C, symBinAddr: 0x1000361E0, symSize: 0x21C }
  - { offsetInCU: 0x6012A, offset: 0x6012A, size: 0x8, addend: 0x0, symName: __ZNK4sdsl10int_vectorILh0EE8bit_sizeEv, symObjAddr: 0x35AB8, symBinAddr: 0x1000363FC, symSize: 0x18 }
  - { offsetInCU: 0x60150, offset: 0x60150, size: 0x8, addend: 0x0, symName: __ZN4sdsl10int_vectorILh1EE11read_headerERyRhRNSt3__113basic_istreamIcNS4_11char_traitsIcEEEE, symObjAddr: 0x35AD0, symBinAddr: 0x100036414, symSize: 0x30 }
  - { offsetInCU: 0x60192, offset: 0x60192, size: 0x8, addend: 0x0, symName: __ZN4sdsl18select_support_mclILh1ELh1EED2Ev, symObjAddr: 0x35B00, symBinAddr: 0x100036444, symSize: 0x150 }
  - { offsetInCU: 0x601BD, offset: 0x601BD, size: 0x8, addend: 0x0, symName: __ZN4sdsl15rank_support_v5ILh1ELh1EED2Ev, symObjAddr: 0x35C50, symBinAddr: 0x100036594, symSize: 0x48 }
  - { offsetInCU: 0x6022C, offset: 0x6022C, size: 0x8, addend: 0x0, symName: __ZNSt3__15stackINS_5tupleIJyyyPyEEENS_5dequeIS3_NS_9allocatorIS3_EEEEEC1B8ue170006Ev, symObjAddr: 0x35C98, symBinAddr: 0x1000365DC, symSize: 0x2C }
  - { offsetInCU: 0x60256, offset: 0x60256, size: 0x8, addend: 0x0, symName: __ZNSt3__15stackINS_5tupleIJyyyPyEEENS_5dequeIS3_NS_9allocatorIS3_EEEEE7emplaceB8ue170006IJimRyRS2_EEEvDpOT_, symObjAddr: 0x35CC4, symBinAddr: 0x100036608, symSize: 0x44 }
  - { offsetInCU: 0x602D2, offset: 0x602D2, size: 0x8, addend: 0x0, symName: __ZNKSt3__15stackINS_5tupleIJyyyPyEEENS_5dequeIS3_NS_9allocatorIS3_EEEEE5emptyB8ue170006Ev, symObjAddr: 0x35D08, symBinAddr: 0x10003664C, symSize: 0x28 }
  - { offsetInCU: 0x602F8, offset: 0x602F8, size: 0x8, addend: 0x0, symName: __ZNSt3__15stackINS_5tupleIJyyyPyEEENS_5dequeIS3_NS_9allocatorIS3_EEEEE3topB8ue170006Ev, symObjAddr: 0x35D30, symBinAddr: 0x100036674, symSize: 0x24 }
  - { offsetInCU: 0x6031E, offset: 0x6031E, size: 0x8, addend: 0x0, symName: __ZNSt3__15stackINS_5tupleIJyyyPyEEENS_5dequeIS3_NS_9allocatorIS3_EEEEE3popB8ue170006Ev, symObjAddr: 0x35D54, symBinAddr: 0x100036698, symSize: 0x24 }
  - { offsetInCU: 0x60344, offset: 0x60344, size: 0x8, addend: 0x0, symName: __ZN4sdsl10int_vectorILh1EE7set_intEyyh, symObjAddr: 0x35D78, symBinAddr: 0x1000366BC, symSize: 0x54 }
  - { offsetInCU: 0x60399, offset: 0x60399, size: 0x8, addend: 0x0, symName: __ZN17se_quadtree_dfuds13get_chunk_idxERNSt3__16vectorIyNS0_9allocatorIyEEEEPKyyh, symObjAddr: 0x35DCC, symBinAddr: 0x100036710, symSize: 0x110 }
  - { offsetInCU: 0x6042F, offset: 0x6042F, size: 0x8, addend: 0x0, symName: __ZNSt3__15stackINS_5tupleIJyyyPyEEENS_5dequeIS3_NS_9allocatorIS3_EEEEE7emplaceB8ue170006IJRySA_yRS2_EEEvDpOT_, symObjAddr: 0x35EDC, symBinAddr: 0x100036820, symSize: 0x44 }
  - { offsetInCU: 0x604AB, offset: 0x604AB, size: 0x8, addend: 0x0, symName: __ZN4sdsl10int_vectorILh1EEC1ERKS1_, symObjAddr: 0x35F20, symBinAddr: 0x100036864, symSize: 0x34 }
  - { offsetInCU: 0x604E6, offset: 0x604E6, size: 0x8, addend: 0x0, symName: __ZN3asu18bp_support_sada_v2ILj256ELj32EN4sdsl15rank_support_v5ILh1ELh1EEENS1_18select_support_mclILh1ELh1EEEEC1EPKNS1_10int_vectorILh1EEE, symObjAddr: 0x35F54, symBinAddr: 0x100036898, symSize: 0x34 }
  - { offsetInCU: 0x6051F, offset: 0x6051F, size: 0x8, addend: 0x0, symName: __ZN3asu18bp_support_sada_v2ILj256ELj32EN4sdsl15rank_support_v5ILh1ELh1EEENS1_18select_support_mclILh1ELh1EEEEaSEOS6_, symObjAddr: 0x35F88, symBinAddr: 0x1000368CC, symSize: 0x100 }
  - { offsetInCU: 0x60554, offset: 0x60554, size: 0x8, addend: 0x0, symName: __ZNSt3__15stackINS_5tupleIJyyyPyEEENS_5dequeIS3_NS_9allocatorIS3_EEEEED1Ev, symObjAddr: 0x36088, symBinAddr: 0x1000369CC, symSize: 0x2C }
  - { offsetInCU: 0x60580, offset: 0x60580, size: 0x8, addend: 0x0, symName: __ZNSt3__15stackINS_5tupleIJyyyPyEEENS_5dequeIS3_NS_9allocatorIS3_EEEEEC2B8ue170006Ev, symObjAddr: 0x360B4, symBinAddr: 0x1000369F8, symSize: 0x2C }
  - { offsetInCU: 0x605AA, offset: 0x605AA, size: 0x8, addend: 0x0, symName: __ZNSt3__15dequeINS_5tupleIJyyyPyEEENS_9allocatorIS3_EEE12emplace_backIJimRyRS2_EEEvDpOT_, symObjAddr: 0x360E0, symBinAddr: 0x100036A24, symSize: 0xC4 }
  - { offsetInCU: 0x60637, offset: 0x60637, size: 0x8, addend: 0x0, symName: __ZNSt3__116allocator_traitsINS_9allocatorINS_5tupleIJyyyPyEEEEEE9constructB8ue170006IS4_JimRyRS3_EvEEvRS5_PT_DpOT0_, symObjAddr: 0x361A4, symBinAddr: 0x100036AE8, symSize: 0x4C }
  - { offsetInCU: 0x606CA, offset: 0x606CA, size: 0x8, addend: 0x0, symName: __ZNSt3__19allocatorINS_5tupleIJyyyPyEEEE9constructB8ue170006IS3_JimRyRS2_EEEvPT_DpOT0_, symObjAddr: 0x361F0, symBinAddr: 0x100036B34, symSize: 0x48 }
  - { offsetInCU: 0x60759, offset: 0x60759, size: 0x8, addend: 0x0, symName: __ZNSt3__15dequeINS_5tupleIJyyyPyEEENS_9allocatorIS3_EEE4backEv, symObjAddr: 0x36238, symBinAddr: 0x100036B7C, symSize: 0x68 }
  - { offsetInCU: 0x60790, offset: 0x60790, size: 0x8, addend: 0x0, symName: __ZNSt3__15dequeINS_5tupleIJyyyPyEEENS_9allocatorIS3_EEE8pop_backEv, symObjAddr: 0x362A0, symBinAddr: 0x100036BE4, symSize: 0xE0 }
  - { offsetInCU: 0x607F4, offset: 0x607F4, size: 0x8, addend: 0x0, symName: __ZNKSt3__15dequeINS_5tupleIJyyyPyEEENS_9allocatorIS3_EEE22__annotate_shrink_backB8ue170006Emm, symObjAddr: 0x36380, symBinAddr: 0x100036CC4, symSize: 0x60 }
  - { offsetInCU: 0x60838, offset: 0x60838, size: 0x8, addend: 0x0, symName: __ZNSt3__15dequeINS_5tupleIJyyyPyEEENS_9allocatorIS3_EEE25__maybe_remove_back_spareB8ue170006Eb, symObjAddr: 0x363E0, symBinAddr: 0x100036D24, symSize: 0xE8 }
  - { offsetInCU: 0x6086D, offset: 0x6086D, size: 0x8, addend: 0x0, symName: __ZNKSt3__15dequeINS_5tupleIJyyyPyEEENS_9allocatorIS3_EEE19__back_spare_blocksB8ue170006Ev, symObjAddr: 0x364C8, symBinAddr: 0x100036E0C, symSize: 0x2C }
  - { offsetInCU: 0x60893, offset: 0x60893, size: 0x8, addend: 0x0, symName: __ZNSt3__114__split_bufferIPNS_5tupleIJyyyPyEEENS_9allocatorIS4_EEE4backB8ue170006Ev, symObjAddr: 0x364F4, symBinAddr: 0x100036E38, symSize: 0x1C }
  - { offsetInCU: 0x608B9, offset: 0x608B9, size: 0x8, addend: 0x0, symName: __ZNSt3__114__split_bufferIPNS_5tupleIJyyyPyEEENS_9allocatorIS4_EEE8pop_backB8ue170006Ev, symObjAddr: 0x36510, symBinAddr: 0x100036E54, symSize: 0x2C }
  - { offsetInCU: 0x608DF, offset: 0x608DF, size: 0x8, addend: 0x0, symName: __ZNSt3__15dequeINS_5tupleIJyyyPyEEENS_9allocatorIS3_EEE12emplace_backIJRyS8_yRS2_EEEvDpOT_, symObjAddr: 0x3653C, symBinAddr: 0x100036E80, symSize: 0xC4 }
  - { offsetInCU: 0x6096C, offset: 0x6096C, size: 0x8, addend: 0x0, symName: __ZNSt3__116allocator_traitsINS_9allocatorINS_5tupleIJyyyPyEEEEEE9constructB8ue170006IS4_JRyS8_yRS3_EvEEvRS5_PT_DpOT0_, symObjAddr: 0x36600, symBinAddr: 0x100036F44, symSize: 0x4C }
  - { offsetInCU: 0x609FF, offset: 0x609FF, size: 0x8, addend: 0x0, symName: __ZNSt3__19allocatorINS_5tupleIJyyyPyEEEE9constructB8ue170006IS3_JRyS6_yRS2_EEEvPT_DpOT0_, symObjAddr: 0x3664C, symBinAddr: 0x100036F90, symSize: 0x48 }
  - { offsetInCU: 0x60A8E, offset: 0x60A8E, size: 0x8, addend: 0x0, symName: __ZN4sdsl10int_vectorILh1EEC2ERKS1_, symObjAddr: 0x36694, symBinAddr: 0x100036FD8, symSize: 0x104 }
  - { offsetInCU: 0x60AC9, offset: 0x60AC9, size: 0x8, addend: 0x0, symName: __ZN3asu18bp_support_sada_v2ILj256ELj32EN4sdsl15rank_support_v5ILh1ELh1EEENS1_18select_support_mclILh1ELh1EEEEC2EPKNS1_10int_vectorILh1EEE, symObjAddr: 0x36798, symBinAddr: 0x1000370DC, symSize: 0xAD4 }
  - { offsetInCU: 0x60BFE, offset: 0x60BFE, size: 0x8, addend: 0x0, symName: __ZN4sdsl20int_vector_referenceINS_10int_vectorILh0EEEEaSERKS3_, symObjAddr: 0x3736C, symBinAddr: 0x100037CB0, symSize: 0x3C }
  - { offsetInCU: 0x60C33, offset: 0x60C33, size: 0x8, addend: 0x0, symName: __ZN4sdsl15rank_support_v5ILh1ELh1EE4swapERS1_, symObjAddr: 0x373A8, symBinAddr: 0x100037CEC, symSize: 0x54 }
  - { offsetInCU: 0x60C67, offset: 0x60C67, size: 0x8, addend: 0x0, symName: __ZN4sdsl18select_support_mclILh1ELh1EE4swapERS1_, symObjAddr: 0x373FC, symBinAddr: 0x100037D40, symSize: 0xB0 }
  - { offsetInCU: 0x60C9C, offset: 0x60C9C, size: 0x8, addend: 0x0, symName: __ZN4sdsl15rank_support_v5ILh1ELh1EEaSEOS1_, symObjAddr: 0x37524, symBinAddr: 0x100037E68, symSize: 0x48 }
  - { offsetInCU: 0x60CCD, offset: 0x60CCD, size: 0x8, addend: 0x0, symName: __ZN4sdsl18select_support_mclILh1ELh1EEaSEOS1_, symObjAddr: 0x3756C, symBinAddr: 0x100037EB0, symSize: 0x1C0 }
  - { offsetInCU: 0x60D02, offset: 0x60D02, size: 0x8, addend: 0x0, symName: __ZN4sdsl12rank_supportaSEOS0_, symObjAddr: 0x3772C, symBinAddr: 0x100038070, symSize: 0x24 }
  - { offsetInCU: 0x60D33, offset: 0x60D33, size: 0x8, addend: 0x0, symName: __ZNSt3__15stackINS_5tupleIJyyyPyEEENS_5dequeIS3_NS_9allocatorIS3_EEEEED2Ev, symObjAddr: 0x37750, symBinAddr: 0x100038094, symSize: 0x2C }
  - { offsetInCU: 0x60D5F, offset: 0x60D5F, size: 0x8, addend: 0x0, symName: __ZN3asu18bp_support_sada_v2ILj256ELj32EN4sdsl15rank_support_v5ILh1ELh1EEENS1_18select_support_mclILh1ELh1EEEED2Ev, symObjAddr: 0x3777C, symBinAddr: 0x1000380C0, symSize: 0x54 }
  - { offsetInCU: 0x60D8B, offset: 0x60D8B, size: 0x8, addend: 0x0, symName: __ZN11se_quadtree7printBvEv, symObjAddr: 0x377D0, symBinAddr: 0x100038114, symSize: 0x8C }
  - { offsetInCU: 0x60DCE, offset: 0x60DCE, size: 0x8, addend: 0x0, symName: __ZN11se_quadtree5getBvEv, symObjAddr: 0x3785C, symBinAddr: 0x1000381A0, symSize: 0x18 }
  - { offsetInCU: 0x60DF4, offset: 0x60DF4, size: 0x8, addend: 0x0, symName: __ZN10rank_bv_645printEy, symObjAddr: 0x37874, symBinAddr: 0x1000381B8, symSize: 0x148 }
  - { offsetInCU: 0x60E36, offset: 0x60E36, size: 0x8, addend: 0x0, symName: __ZN10rank_bv_6412print_2_bitsEy, symObjAddr: 0x379BC, symBinAddr: 0x100038300, symSize: 0xDC }
  - { offsetInCU: 0x60E94, offset: 0x60E94, size: 0x8, addend: 0x0, symName: __ZN10rank_bv_6412print_4_bitsEy, symObjAddr: 0x37A98, symBinAddr: 0x1000383DC, symSize: 0xC4 }
  - { offsetInCU: 0x60EF2, offset: 0x60EF2, size: 0x8, addend: 0x0, symName: __ZN10rank_bv_6412print_8_bitsEy, symObjAddr: 0x37B5C, symBinAddr: 0x1000384A0, symSize: 0xC4 }
  - { offsetInCU: 0x60F50, offset: 0x60F50, size: 0x8, addend: 0x0, symName: __ZN10rank_bv_6413print_16_bitsEy, symObjAddr: 0x37C20, symBinAddr: 0x100038564, symSize: 0xC4 }
  - { offsetInCU: 0x60FAE, offset: 0x60FAE, size: 0x8, addend: 0x0, symName: __ZNSt3__16vectorIPNS0_IhNS_9allocatorIhEEEENS1_IS4_EEEaSB8ue170006ERKS6_, symObjAddr: 0x37CE4, symBinAddr: 0x100038628, symSize: 0x68 }
  - { offsetInCU: 0x60FE5, offset: 0x60FE5, size: 0x8, addend: 0x0, symName: __ZNSt3__16vectorIPNS0_IhNS_9allocatorIhEEEENS1_IS4_EEE19__copy_assign_allocB8ue170006ERKS6_, symObjAddr: 0x37D4C, symBinAddr: 0x100038690, symSize: 0x2C }
  - { offsetInCU: 0x6101A, offset: 0x6101A, size: 0x8, addend: 0x0, symName: __ZNSt3__16vectorIPNS0_IhNS_9allocatorIhEEEENS1_IS4_EEE6assignIPS4_Li0EEEvT_S9_, symObjAddr: 0x37D78, symBinAddr: 0x1000386BC, symSize: 0x5C }
  - { offsetInCU: 0x6106F, offset: 0x6106F, size: 0x8, addend: 0x0, symName: __ZNSt3__16vectorIPNS0_IhNS_9allocatorIhEEEENS1_IS4_EEE19__copy_assign_allocB8ue170006ERKS6_NS_17integral_constantIbLb0EEE, symObjAddr: 0x37DD4, symBinAddr: 0x100038718, symSize: 0x14 }
  - { offsetInCU: 0x610AD, offset: 0x610AD, size: 0x8, addend: 0x0, symName: __ZNSt3__16vectorIPNS0_IhNS_9allocatorIhEEEENS1_IS4_EEE18__assign_with_sizeB8ue170006IPS4_S8_EEvT_T0_l, symObjAddr: 0x37DE8, symBinAddr: 0x10003872C, symSize: 0x164 }
  - { offsetInCU: 0x6115D, offset: 0x6115D, size: 0x8, addend: 0x0, symName: __ZNSt3__16vectorIPNS0_IhNS_9allocatorIhEEEENS1_IS4_EEE18__construct_at_endIPS4_S8_EEvT_T0_m, symObjAddr: 0x37FEC, symBinAddr: 0x100038930, symSize: 0x8C }
  - { offsetInCU: 0x611D3, offset: 0x611D3, size: 0x8, addend: 0x0, symName: __ZNSt3__16vectorIPNS0_IhNS_9allocatorIhEEEENS1_IS4_EEE17__destruct_at_endB8ue170006EPS4_, symObjAddr: 0x380BC, symBinAddr: 0x100038A00, symSize: 0x4C }
  - { offsetInCU: 0x61217, offset: 0x61217, size: 0x8, addend: 0x0, symName: __ZNSt3__16vectorIPNS0_IhNS_9allocatorIhEEEENS1_IS4_EEE13__vdeallocateEv, symObjAddr: 0x38108, symBinAddr: 0x100038A4C, symSize: 0x94 }
  - { offsetInCU: 0x6123F, offset: 0x6123F, size: 0x8, addend: 0x0, symName: __ZNSt3__16vectorIPNS0_IhNS_9allocatorIhEEEENS1_IS4_EEE11__vallocateB8ue170006Em, symObjAddr: 0x3819C, symBinAddr: 0x100038AE0, symSize: 0xAC }
  - { offsetInCU: 0x61283, offset: 0x61283, size: 0x8, addend: 0x0, symName: __ZNKSt3__16vectorIPNS0_IhNS_9allocatorIhEEEENS1_IS4_EEE11__recommendB8ue170006Em, symObjAddr: 0x38248, symBinAddr: 0x100038B8C, symSize: 0xB4 }
  - { offsetInCU: 0x612F3, offset: 0x612F3, size: 0x8, addend: 0x0, symName: __ZNSt3__16vectorIPNS0_IhNS_9allocatorIhEEEENS1_IS4_EEE21_ConstructTransactionC1B8ue170006ERS6_m, symObjAddr: 0x3835C, symBinAddr: 0x100038CA0, symSize: 0x3C }
